ccollections
defaultdict
p0
(c__builtin__
set
p1
tp2
Rp3
VXML
p4
g1
((lp5
Vsebastianbergmann/phpunit-documentation
p6
atp7
Rp8
sVJava
p9
g1
((lp10
Vtteofili/btl
p11
aVJakeWharton/ActionBarSherlock
p12
aVnathanmarz/elephantdb
p13
aVJakeWharton/Android-ViewPagerIndicator
p14
aVnzakas/combiner
p15
aVnathanmarz/dfs-datastores
p16
aVtteofili/m2s
p17
aVcommonsguy/cwac-viewswiper
p18
aVcommonsguy/cwac-mmcursor
p19
aVhassox/bcrypt-ruby
p20
aVJakeWharton/butterknife
p21
aVkoush/android_build
p22
aVkoush/android-websockets
p23
aVcommonsguy/cw-advandroid
p24
aVJakeWharton/NineOldAndroids
p25
aVTeclis01/rtsGenerator
p26
aVcommonsguy/cwac-thumbnail
p27
aVtteofili/jackrabbit-oak
p28
aVtteofili/cpt
p29
aVnathanmarz/cascading-batch-query
p30
aVJakeWharton/apibuilder
p31
aVJakeWharton/heroku-java
p32
aVlukestar/cekt
p33
aVginatrapani/todo.txt-touch
p34
aVJakeWharton/DocBrown
p35
aVdanahern/java_game
p36
aVAlexanderFlatscher/sbicktAndroid
p37
aVkoush/android_vendor_cyanogen
p38
aVmacournoyer/min
p39
aVkoush/android_packages_apps_Launcher2
p40
aVstepbystep55/its-me-baby
p41
aVcanadaduane/Adafruit-ST7735-Library
p42
aVkoush/android_packages_apps_Superuser
p43
aVstepbystep55/joplin
p44
aVkoush/android_packages_wallpapers_Basic
p45
aVcommonsguy/cw-omnibus
p46
aVcommonsguy/cwac-loaderex
p47
aVJakeWharton/BreakoutWallpaper
p48
aVilazebny/ci_test
p49
aVnzakas/cssembed
p50
aVcommonsguy/cwac-task
p51
aVcommonsguy/cw-android
p52
aVtteofili/sedtum
p53
aVcommonsguy/cwac-custmenu
p54
aVJakeWharton/ActionBarSherlock-Plugin-Maps
p55
aVroland/ShowTracker
p56
aVup_the_irons/jenkins-hipchat-plugin
p57
aVJakeWharton/Android-DirectionalViewPager
p58
aVJakeWharton/Android-MapForgeFragment
p59
aVtteofili/le11-nls
p60
aVstepbystep55/procs
p61
aVJakeWharton/guiceymongo-generator-maven-plugin
p62
aVJakeWharton/ActivityCompat2
p63
aVstepbystep55/morrison
p64
aVasseym/android-sms-relay
p65
aVkoush/android_frameworks_base
p66
aVcommonsguy/cw-lunchlist
p67
aVcommonsguy/cw-andtutorials
p68
aVcommonsguy/cwac-parcel
p69
aVJakeWharton/domainr-java
p70
aVnzakas/props2js
p71
aVkoush/AndroidAsync
p72
aVJakeWharton/HanselAndGretel
p73
aVcommonsguy/cwac-bus
p74
aVDoogiemuc/gwt-comp-tagging
p75
aVnathanmarz/jzmq
p76
aVkafka399/Java
p77
aVakitaonrails/jruby_calculator_demo
p78
aVelbowdonkey/flightcontrol
p79
aVmoodlehq/functional-test-suite
p80
aVnathanmarz/dfs-datastores-cascading
p81
aVjdhuntington/Learnr
p82
aVtteofili/nlp-utils
p83
aVJakeWharton/github-deploy-maven-plugin
p84
aVJakeWharton/adjacent-fragment-pager-sample
p85
aVnzakas/yuitest
p86
aVcommonsguy/cwac-touchlist
p87
atp88
Rp89
sVScala
p90
g1
((lp91
VNZKoz/dropwizard
p92
ag16
aVnathanmarz/kestrel
p93
aVtteofili/samplett
p94
atp95
Rp96
sVEmacs Lisp
p97
g1
((lp98
Vjosh/emacs-color-theme-solarized
p99
aVjosh/emacs.d
p100
aVrobbevan/emacs
p101
aVjdhuntington/magit
p102
aVjosh/emacs
p103
aVjdhuntington/emacs-starter-kit-customization
p104
aVjdhuntington/rinari
p105
aVtopfunky/emacs-starter-kit
p106
aVrobbevan/omnifocus.el
p107
aVjdhuntington/dotfiles
p108
aValexvollmer/emacs-starter-kit
p109
aVrobbevan/aquamacs-emacs-starter-kit
p110
aVjdhuntington/emacs-starter-kit
p111
aVjosh/elpa
p112
aVjdhuntington/less-css-mode
p113
aVjdhuntington/rspec-mode
p114
atp115
Rp116
sVDelphi
p117
g1
((lp118
g103
aVrobbevan/ruby-ole
p119
atp120
Rp121
sVJavaScript
p122
g1
((lp123
Vjosh/backbone
p124
aVrmurphey/arduino-display
p125
aVjschairb/jschairb.github.com
p126
aVMarak/css_to_json
p127
aVMarak/natman
p128
aVrmurphey/frontend-dev-baseline
p129
aVchovy/offline-app
p130
aVmmower/bones
p131
aVMarak/javascript-fu
p132
aVnzakas/jshint
p133
aVfelixge/fab-basic-auth
p134
aVguille/emitter
p135
aVdesandro/3dtransforms
p136
aVelbowdonkey/axonome
p137
aVsstephenson/jquery-pjax
p138
aVtopfunky/cache.js
p139
aVded/Dagron
p140
aVtopfunky/backbone-couchdb
p141
aVayende/NHibernate-London-May
p142
aVdesandro/get-size
p143
aVrobbevan/jquery-select-autocomplete
p144
aVvanpelt/instimage
p145
aVmislav/developer.dnsimple.com
p146
aVmadrobby/creditcard_js_underscore
p147
aVded/morpheus
p148
aVmathiasbynens/320andup
p149
aVguille/express-trace
p150
aVguille/jade
p151
aVjoehewitt/copper
p152
aVnzakas/rebuild
p153
aVpkrumins/defined
p154
aVjoehewitt/api.js
p155
aVmacournoyer/faye
p156
aVelbowdonkey/js_state
p157
aVjosh/closure-compiler
p158
aVmathiasbynens/brnfckr
p159
aValthjs/althjs.github.com
p160
aVdesandro/get-style-property
p161
aVvanpelt/jsawesome
p162
aVjoehewitt/datetime
p163
aVcanadaduane/Hipchat
p164
aVnecolas/grunt-release
p165
aVrmurphey/dojo-scaffold
p166
aVrtomayko/node-bertrpc
p167
aVmadrobby/js-animation-course
p168
aVdanielharan/our-parliament
p169
aVayende/NHibernate-Warsaw-Course-Code
p170
aVguille/kibi
p171
aVnecolas/grunt-usemin
p172
aVcowboy/css-misc
p173
aVMarak/ohh
p174
aVasseym/ureport-project
p175
aVguille/mocha
p176
aVjnunemaker/fancy-zoom
p177
aVded/sink-test
p178
aVleegee/Mootools-Knob
p179
aVjazzyfox/FixedColumns
p180
aVrmurphey/ffco
p181
aVchovy/nodejs-stream
p182
aVjoehewitt/fool
p183
aVded/Kizzy
p184
aVDmitryBaranovskiy/rappar
p185
aVkamal/juggernaut
p186
aVmadrobby/enterprise-css
p187
aVvanpelt/vandev
p188
aVcowboy/grunt-jquery-example
p189
aVsstephenson/dnsserver.js
p190
aVnecolas/newsriver-ui
p191
aVpkrumins/invoice
p192
aVelbowdonkey/screw-unit
p193
aVrmurphey/bvjs
p194
aVfelixge/commander.js
p195
aVDoogiemuc/Dokuwiki-Plugin-InlineEdit
p196
aVtopfunky/datamapper.github.com
p197
aVchovy/boilerplates
p198
aVDmitryBaranovskiy/raphaeljs.com
p199
aVayende/nagarot
p200
aVlifesinger/lifesinger.github.com
p201
aVjoehewitt/lookskitchen
p202
aVmathiasbynens/BrowserQuest
p203
aVmathiasbynens/grunt-zopfli
p204
aVcreationix/embedder
p205
aVdesandro/make-julesmarie-cry
p206
aVJeffreyWay/jeffreyway.github.com
p207
aVjosh/css-explain
p208
aVjoehewitt/ore
p209
aVnzakas/yui3-gallery
p210
aVjoehewitt/mkdir
p211
aVJakeWharton/jakewharton.com
p212
aVmadrobby/box2d-js
p213
aVkamal/phantomjs-driver
p214
aVjdhuntington/showdown
p215
aVded/sqwish
p216
aVMarak/Faker.js
p217
aVleegee/mootools-core
p218
aVscharfie/backbone.bootstrap-modal
p219
aVguille/latency-io
p220
aVmathiasbynens/jquery
p221
aVcdcarter/loudmouth-web
p222
aVstepbystep55/f2j
p223
aVded/jquery.rtl.js
p224
aVded/CalEnder
p225
aVGreenRover/RedmineThemePixelCookers
p226
aVMarak/ospriet
p227
aVnecolas/delegate
p228
aVded/qwery
p229
aVfelixge/fab
p230
aVcowboy/battlelog-hacks
p231
aVnecolas/starter-kit
p232
aVnzakas/buildr
p233
aVguille/ios6-bugs
p234
aVjoehewitt/express-logger
p235
aVded/valentine
p236
aVadam/taxnstuff
p237
aVpkrumins/browserify-website
p238
aVguille/jsconf-todo-demo
p239
aVfelixge/chrome-bookmark-bar-shortcuts
p240
aVdesandro/jtetypes
p241
aVleegee/MooTools-PcmImage
p242
aVginatrapani/narrowthegapp
p243
aVcowboy/grunt-gruntfile-example
p244
aVnecolas/project-euler
p245
aVguille/chromekit
p246
aVjoehewitt/scrollability
p247
aVded/ender-tipsy
p248
aVDmitryBaranovskiy/brackets
p249
aVmoodlehq/moodlemobile
p250
aVMarak/pdf.js
p251
aVcanadaduane/cinemaker.us
p252
aVguille/gitfollow
p253
aVelbowdonkey/gcode_to_canvas
p254
aVmislav/diveintohtml5
p255
aVcowboy/benalman.com-OLD
p256
aVpkrumins/geom-vec
p257
aVmadrobby/downtime
p258
aVcowboy/javascript-library-boilerplate
p259
aVup_the_irons/node-autocomplete
p260
aVayende/Kalahari.Resort
p261
aVtopfunky/cascadiajs.github.com
p262
aVcowboy/javascript-getclass
p263
aVjoehewitt/dandy
p264
aVAlexanderFlatscher/bakk1todo
p265
aVMarak/nconf
p266
aVMarak/node_mailer
p267
aVcreationix/corn
p268
aVMarak/play.js
p269
aVmathiasbynens/grunt-esmangle
p270
aVcanadaduane/mycast
p271
aVjosh/ejs
p272
aVGreenRover/jquery-ui
p273
aVjoehewitt/nerve
p274
aVded/bowser
p275
aVjosh/dotjs
p276
aVweierophinney/avalanche
p277
aVded/reqwest
p278
aVmathiasbynens/GetCountries
p279
aVcowboy/comment.aculo.us
p280
aVcowboy/javascript-hooker
p281
aVcdcarter/ticketrequests
p282
aVmadrobby/Evidence
p283
aVhassox/chain
p284
aVvanpelt/sigmod
p285
aVMarak/JSONloops
p286
aVjosh/connect
p287
aVrmurphey/johnny-five
p288
aVMarak/npmtop
p289
aVJeffreyWay/jquery.styleWords
p290
aVdesandro/jquery-bridget
p291
aVcreationix/couch-client
p292
aVmadrobby/acornkittens
p293
aVcanadaduane/Perspective-Calendar
p294
aVibdknox/ibdknox.github.com
p295
aVrmurphey/blog-octopress
p296
aVtopfunky/demo-mocha-watch-bug
p297
aVfelixge/fab-json
p298
aVhassox/jetski
p299
aVded/script.js
p300
aVJeffreyWay/MessageBox
p301
aVayende/Macto
p302
aVmathiasbynens/grunt-yui-compressor
p303
aVdrnic/blue-ridge
p304
aVMarak/machine.js
p305
aVrmurphey/github-viewer
p306
aVdanahern/app_sleuth
p307
aVnzakas/xauth
p308
aVjazzyfox/discourse
p309
aVcreationix/cell
p310
aVcowboy/javascript-packify
p311
aValthjs/node
p312
aVcreationix/builder
p313
aVnecolas/necolas.github.com
p314
aVguille/express
p315
aVdesandro/infinite-scroll
p316
aVmadrobby/dom-monster
p317
aVcowboy/javascript-debug
p318
aVleegee/MilkChart
p319
aVnzakas/jstools
p320
aVdesandro/jshint.tmbundle
p321
aVcowboy/grunt
p322
aVrmurphey/bloody-jquery-plugins
p323
aVsstephenson/everyjs.com
p324
aVmadrobby/microjs.com
p325
aVnecolas/event
p326
aVayende/course-jul-25
p327
aVMarak/badjitsu
p328
aVhenrik/bookmarks_bar_keyboard_shortcuts
p329
aVcreationix/divclock
p330
aVcowboy/grunt-node-example
p331
aVMarak/node-stats
p332
aVjosh/bower
p333
aVjoehewitt/hascan
p334
aVtopfunky/demo-simplest-socket-io
p335
aVcreationix/eventemitter-browser
p336
aVmathiasbynens/escodegen
p337
aVMarak/node-kiwf
p338
aVMarak/JSLINQ
p339
aVvanpelt/fancy-zoom
p340
aVchovy/tabbed-navigation
p341
aVrmurphey/dojo-sandbox
p342
aVmdo/inca
p343
aVpkrumins/heatwave
p344
aVdesandro/html5-boilerplate
p345
aVded/bonzo
p346
aVlifesinger/dew
p347
aVscharfie/facebox
p348
aVpsi/docs.vagrantup.com
p349
aVmathiasbynens/istanbul
p350
aVsstephenson/nodeunit
p351
aVcreationix/canvasclock
p352
aVguille/APNG
p353
aVnzakas/nui
p354
aVleah/solitaire-anywhere
p355
aVfelixge/campusparty-2012-code
p356
aVdrnic/8cpj
p357
aVJakeWharton/abs.io
p358
aVchovy/express-template-demo
p359
aVpkrumins/endian-toggle
p360
aVdesandro/draggabilly
p361
aVcdcarter/statister
p362
aVguille/define.js
p363
aVMarak/node-backbone-request
p364
aVmadrobby/creditcard_js
p365
aVmathiasbynens/cdnjs
p366
aVchovy/express-force-domain
p367
aVcreationix/continuable
p368
aVjazzyfox/DataTables
p369
aVcowboy/D8
p370
aVdesandro/classie
p371
aVmdo/ratchet
p372
aVdesandro/dropshado.ws
p373
aVded/domready
p374
aVjsierles/globalize_translator
p375
aVMarak/data-behaviors
p376
aVcanadaduane/casperjs
p377
aVded/klass
p378
aVnzakas/oocss
p379
aVnextgen666/ProsilverME
p380
aVnzakas/fireunit
p381
aVcowboy/javascript-emotify
p382
aVentryway/entryway.github.com
p383
aVded/R2
p384
aVcowboy/grunt-gruntplugin-example
p385
aVrtomayko/lesscode.org
p386
aVcowboy/javascript-linkify
p387
aVcowboy/grunt-commonjs-example
p388
aVtopfunky/geddy
p389
aVmadrobby/jsnes
p390
aVdesandro/FitText.js
p391
aVpkrumins/browser-badge-cached
p392
aVAlexanderFlatscher/alexanderflatscher.github.com
p393
aVdesandro/bootstrap
p394
aVlifesinger/backbone
p395
aVjoehewitt/transformjs
p396
aVcreationix/detectindent
p397
aVguille/expresso
p398
aVjacobian/djobs
p399
aVJeffreyWay/Backbone--RequireJS--and-Testem-Boilerplate-Project
p400
aVup_the_irons/cacheable-flash
p401
aVjoehewitt/express-store
p402
aVcreationix/creationix
p403
aVmacournoyer/node-cusec
p404
aVcreationix/conductor
p405
aVdesandro/close-pixelate
p406
aVjoehewitt/express-rewrite
p407
aVcreationix/candor.js
p408
aVelbowdonkey/IsometricMap
p409
aVded/emile
p410
aVcreationix/adventure
p411
aVfelixge/buster-docs
p412
aVnzakas/computer-science-in-javascript
p413
aVnzakas/parser-lib
p414
aVtopfunky/ember-tunes-noodling
p415
aVayende/NHibernate-NewYork-Course-Code-Oct-2011
p416
aVayende/courses-new-york-aug-2012
p417
aVdesandro/demo
p418
aVDmitryBaranovskiy/prism
p419
aVrmurphey/Bober
p420
aVtopfunky/ember.js
p421
aVautomatthew/rephraser
p422
ag53
aVsstephenson/ndns
p423
aVdesandro/imagesloaded
p424
aVnzakas/yui3-1
p425
aVmathiasbynens/Faker.js
p426
aVDmitryBaranovskiy/raphael
p427
aVjoehewitt/app.js
p428
aVjoehewitt/looker
p429
aVyinwang0/blog-cn
p430
aVayende/courses-ravendb-stockholm-march-2013
p431
aVcreationix/dombuilder
p432
aVrmurphey/ffconf-mulberry-demo
p433
aVguille/insights-chrome
p434
aVJeffreyWay/CodeCanyon-Comp-Landing-Page
p435
aVMarak/ANSIdom
p436
aVcdcarter/HouseCounter
p437
aVmathiasbynens/HTML5-custom-data-attributes-plugin-for-jQuery
p438
aVrmurphey/dojo-demo
p439
aVmdo/Redditate
p440
aVkamal/geekcamp-hub
p441
aVsharkcz/jquery-ui
p442
aVpkrumins/endtable
p443
aVmadrobby/emile
p444
aVjosh/components-jquery
p445
aVcreationix/embedder-sync
p446
aVmathiasbynens/html5shiv
p447
aVguille/chrome-spdy-indicator
p448
aVayende/NewYork-Course-RavenDB-Nov-2011
p449
aVibdknox/brepl
p450
aVayende/courses-ravendb-fleet-street-nov-2012
p451
aVcreationix/dublin-talk
p452
aVcdcarter/bootstrap
p453
aVcanadaduane/merb_active_admin
p454
aVMarak/node-dbox
p455
aVjoehewitt/diskcache
p456
aVMarak/colors.js
p457
aVpkrumins/dnode
p458
aVfelixge/cluster
p459
aVJakeWharton/EffectiveOpenSource
p460
aVmathiasbynens/Dynamic-Carousel
p461
aVjoehewitt/ajax
p462
aVscharfie/bam
p463
aVDmitryBaranovskiy/elemental
p464
aVsstephenson/backbone
p465
aVdesandro/doc-ready
p466
aVcreationix/colorspin
p467
aVcowboy/benalman.com-idea
p468
aVcowboy/javascript-htmlslice
p469
aVcreationix/conquest
p470
aVhassox/gabber-client
p471
aVdesandro/eventie
p472
aVguille/jshint
p473
aVcreationix/boxcode
p474
aVcreationix/do
p475
aVdesandro/isotope
p476
aVMarak/node_hash
p477
aVDmitryBaranovskiy/g.raphael
p478
aVmadrobby/bitarray.js
p479
aVMarak/badproject
p480
aVmadrobby/keymaster
p481
aVrmurphey/grunt-mocha
p482
aVmmower/Hexdump
p483
aVDmitryBaranovskiy/prefixfree
p484
aVayende/CourseSampleApp
p485
aVMarak/geddy
p486
aVchovy/Chic
p487
aVguille/connect
p488
aVfelixge/codesurgeon
p489
aVMarak/hellonode
p490
aVakitaonrails/dynamic_liquid_templates
p491
aValexvollmer/tuneup_js
p492
aVnzakas/professional-javascript
p493
aVginatrapani/greasemonkey-multi-script-compiler
p494
atp495
Rp496
sVVimL
p497
g1
((lp498
Vxhr/vim-nginx
p499
aVrobbevan/vim-twilight
p500
aVxhr/vim-io
p501
aVvim-scripts/accurev
p502
aVdesandro/dotvim
p503
aVvim-scripts/acsb
p504
aVgarybernhardt/destroy-all-software-extras
p505
aVjschairb/dot_vim
p506
aVfelixge/dotfiles
p507
aVhenrik/git-grep-vim
p508
aVxhr/vimfiles
p509
aVhenrik/dotfiles
p510
aVvim-scripts/a.vim
p511
aVvim-scripts/ACScope
p512
aVvim-scripts/accentuate.vim
p513
aVvim-scripts/A-soft-mellow-color-scheme
p514
aVvim-scripts/A-better-tcl-indent
p515
aVvim-scripts/256-grayvim
p516
aVweierophinney/argumentrewrap
p517
aVzybl880506/project
p518
aVvim-scripts/3DGlasses.vim
p519
aVvim-scripts/256-jungle
p520
aVmathiasbynens/dotfiles
p521
aVvim-scripts/Access-SQL-Syntax-file
p522
aVnecolas/dotfiles
p523
aVvim-scripts/2tex.vim
p524
aVvim-scripts/ack.vim
p525
aVvim-scripts/a-new-txt2tags-syntax
p526
aVsoffes/dotfiles
p527
aVhenrik/CamelCaseMotion
p528
aVvim-scripts/4NT-Bundle
p529
aVvim-scripts/285colors-with-az-menu
p530
aVcowboy/benalman.com-content-OLD
p531
aVvim-scripts/abolish.vim
p532
aVscharfie/janus
p533
aVvim-scripts/abnf
p534
aVrmurphey/dotfiles
p535
aVrtomayko/dotfiles
p536
aVvim-scripts/2htmlj
p537
aVrobbevan/Vagrantfile.vim
p538
aVvim-scripts/abc-vim
p539
aVgarybernhardt/vim-ruby
p540
aVjazzyfox/vimfiles
p541
aVvim-scripts/accelerated-jk
p542
aVhassox/dotfiles
p543
aVmadrobby/dotvim
p544
aVJeffreyWay/My-Vim-Repo
p545
aVvim-scripts/Acpp
p546
aVup_the_irons/dotfiles
p547
aVvim-scripts/0scan
p548
aVvim-scripts/abap.vim--Piedallu-van-Wyk
p549
aVvim-scripts/ABAP.vim
p550
aVrobbevan/quicksilver.vim
p551
aVhenrik/ack.vim
p552
aVadam/old-dotfiles
p553
aVvim-scripts/abbott.vim
p554
aVvim-scripts/acomment
p555
aVgarybernhardt/pycomplexity
p556
atp557
Rp558
sVPerl
p559
g1
((lp560
Vmiyagawa/catalyst-plugin-authentication-credential-openid
p561
aVmiyagawa/AnyEvent-Twitter-Stream
p562
aVmiyagawa/Acme-Dzil-Test
p563
aVmiyagawa/Acme-Blue
p564
aVagentzh/appears
p565
aVagentzh/cookiexs
p566
aVmiyagawa/catalyst-view-json
p567
aVagentzh/makefile-dom-pm
p568
aVakitaonrails/cramp_chat_demo
p569
ag47
aVjsierles/chef_cookbooks
p570
aVmiyagawa/carton
p571
aVmislav/bluecloth
p572
aVmiyagawa/Corona
p573
aVmiyagawa/AnyEvent-Atom-Stream
p574
aVmiyagawa/AnyEvent-DBI-Abstract
p575
aVmiyagawa/blib-portable
p576
aVagentzh/lua-resty-redis
p577
aVagentzh/lua-resty-memcached
p578
aVakitaonrails/cookbooks
p579
aVouterim/stunnel
p580
aValthjs/bs
p581
ag322
aVup_the_irons/Ruby-Radius
p582
aVcommonsguy/cwac-endless
p583
aVmiyagawa/AnyEvent-FriendFeed-Realtime
p584
aVcommonsguy/cwac-layouts
p585
aVmiyagawa/AnyEvent-mDNS
p586
aVcommonsguy/cwac-colormixer
p587
aVagentzh/cheater
p588
aVjsierles/heroku-buildpack-ruby
p589
aVagentzh/lua-resty-dns
p590
aVagentzh/lua-php-utils
p591
aVcommonsguy/cwac-strictmodeex
p592
aVmiyagawa/ark-perl
p593
aVcommonsguy/cwac-wakeful
p594
aVmiyagawa/CGI.pm
p595
aVagentzh/memc-nginx-module
p596
aVmiyagawa/Catalyst-Engine-PSGI
p597
aVrtomayko/discount
p598
aVlifo/cramp_chat_demo
p599
aVagentzh/echo-nginx-module
p600
aVmiyagawa/AnyEvent-Redis
p601
aVagentzh/lua-redis-parser
p602
aVrtomayko/rocco
p603
aVcommonsguy/cwac-prefs
p604
aVcommonsguy/cwac-merge
p605
aVpkrumins/busy-beaver
p606
aVmiyagawa/backpan-timemachine
p607
aVmiyagawa/CGI-PSGI
p608
aVagentzh/makefile-parser-pm
p609
aVagentzh/memcacheq
p610
aVmoodlehq/sample-ws-clients
p611
aVpkrumins/bitly
p612
aVagentzh/makefile-graphviz-pm
p613
aVcommonsguy/cwac-anddown
p614
aVagentzh/lua-rds-parser
p615
aVmiyagawa/camp
p616
aVcanadaduane/grbl
p617
aVMarak/asciimo
p618
aVcommonsguy/cwac-sacklist
p619
aVcanadaduane/bio-hmm
p620
aVcommonsguy/cwac-richedit
p621
aVagentzh/headers-more-nginx-module
p622
aVezmobius/lua-nginx-module
p623
aVagentzh/array-var-nginx-module
p624
aVmiyagawa/App-BundleDeps
p625
aVjosh/dotfiles
p626
aVcowboy/dotfiles
p627
aVagentzh/lua-resty-upload
p628
aVagentzh/dns-nginx-module
p629
aVpkrumins/http-async-retry
p630
aVmiyagawa/App-perlbrew
p631
aVagentzh/lua-resty-mysql
p632
aVmislav/gorgeous
p633
aVrtomayko/rdiscount
p634
aVmiyagawa/CGI-Compile
p635
aVmiyagawa/Acme-YakiniQ
p636
ag109
aVrtomayko/replicate
p637
aVmiyagawa/App-FatPacker
p638
aVagentzh/jemplate
p639
aVagentzh/dodo
p640
aVrtomayko/redcarpet
p641
aVcommonsguy/cwac-updater
p642
aVcommonsguy/cwac-adapter
p643
aVagentzh/advent.perlchina.org
p644
aVagentzh/encrypted-session-nginx-module
p645
aVmiyagawa/Acme-MillaTutorial
p646
aVmiyagawa/App-PAUSE-Comaint
p647
aVcommonsguy/cwac-locpoll
p648
aVmiyagawa/AnyEvent-ReverseHTTP
p649
atp650
Rp651
sVLua
p652
g1
((lp653
Vcloudwu/skynet
p654
aVcreationix/chicagowebconf2012
p655
aVcreationix/brozula
p656
aVcloudwu/lua-serialize
p657
aVcommonsguy/cw-andtuning
p658
ag590
ag591
aVcloudwu/lua-int64
p659
aVcloudwu/lua-snapshot
p660
aVcloudwu/lua-db
p661
aVcloudwu/atomdict
p662
aVagentzh/jitdemo
p663
aVjazzyfox/trinketmenu_buttonfacade
p664
aVantirez/load81
p665
ag577
aVcloudwu/luacc
p666
aVcreationix/bench-suite
p667
ag628
aVcloudwu/attrib
p668
aVagentzh/lua-resty-string
p669
aVcloudwu/pbc
p670
ag578
aVcloudwu/lua-trace
p671
aVantirez/lua-cmsgpack
p672
aVcloudwu/guess-word
p673
ag632
aVcloudwu/lua-stable
p674
aVgarybernhardt/LuaSpec
p675
atp676
Rp677
sVObjective-J
p678
g1
((lp679
Vtopfunky/cappuccino
p680
aVtopfunky/cappuccino-couchdb
p681
atp682
Rp683
sVRebol
p684
g1
((lp685
Vkafka399/kaggle-event
p686
atp687
Rp688
sVVerilog
p689
g1
((lp690
g6
atp691
Rp692
sVHaxe
p693
g1
((lp694
Vjosh/ace
p695
atp696
Rp697
sVScheme
p698
g1
((lp699
Vyinwang0/lightsabers
p700
aVjdhuntington/bus-scheme
p701
aVezmobius/ez-scheme
p702
aVhornbeck/arc
p703
atp704
Rp705
sVDOT
p706
g1
((lp707
g6
atp708
Rp709
sVShell
p710
g1
((lp711
Vcanadaduane/kopimi-vector
p712
aVdrnic/bosh-sample-release
p713
aVdrnic/cassandra-boshrelease
p714
aValexvollmer/janus
p715
aVzybl880506/Lik_note
p716
aVzybl880506/rsa
p717
aVjvantuyl/minecraft_stuff
p718
ag412
aVsoffes/bin
p719
ag348
aVsstephenson/gosh
p720
aVgarybernhardt/raptor
p721
ag523
aVrmurphey/dojo-transformers
p722
aVmoodlehq/mdlrelease
p723
aVchovy/node-startup
p724
aVmmower/mulchworks
p725
aVkoush/android_device_htc_inc
p726
aVpsi/runit-rpm
p727
ag580
aVkoush/android_device_asus_tf201
p728
ag424
aVjwhitmire/dial-a-script
p729
aVantirez/Gitan
p730
ag22
ag330
ag308
aVgarybernhardt/cls
p731
ag589
aVscharfie/dotfiles
p732
aVmislav/dotfiles
p733
aVjosh/direnv
p734
ag510
aVsstephenson/bats
p735
aVfelixge/depmake
p736
ag439
aVibdknox/cljs-watch
p737
aVNZKoz/janus
p738
ag341
ag342
aVdrnic/cf-release
p739
aVup_the_irons/git-winner
p740
aVrtomayko/hem
p741
aVJakeWharton/jquery-maven-artifact
p742
aVmislav/git-deploy
p743
aVdesandro/dotfiles
p744
ag166
aVfelixge/contained
p745
aVweierophinney/2013-04-04-RestfulZf2-Webinar
p746
aVkafka399/twittrack
p747
aVJakeWharton/mkvdts2ac3
p748
aVrtomayko/git-sh
p749
aVmislav/freckle-apidocs
p750
ag260
aVmislav/bats
p751
aVdrnic/.dotfiles
p752
aVcowboy/bash-misc
p753
aVkoush/android_device_motorola_sholes
p754
aVdesandro/bash-it
p755
aVJakeWharton/gms-mvn-install
p756
aVDoogiemuc/Dokuwiki-Plugin-Doodle2
p757
ag626
ag627
aVkoush/android_device_elocity_a7
p758
ag373
ag629
ag467
aVdrnic/bosh-solo
p759
aVjnunemaker/dotfiles
p760
aVpsi/dotfiles
p761
aVdrnic/bosh-gen
p762
ag470
aVpsi/strap
p763
aVdrnic/bosh-getting-started
p764
aVjosh/git
p765
aVibdknox/.scripts
p766
ag476
ag195
aVginatrapani/todo.txt-cli
p767
aVautomatthew/pez
p768
ag527
aVrobbyrussell/oh-my-zsh
p769
aVjvantuyl/gunicorn-init
p770
ag400
aVmoodlehq/moodle-local_ci
p771
aVcowboy/gaucho
p772
aVfelixge/couchdb-benchmarks
p773
aVmislav/coral
p774
aVerica/Auto-Layout-Demystified
p775
atp776
Rp777
sVAssembly
p778
g1
((lp779
g765
aVelbowdonkey/impsock
p780
atp781
Rp782
sVPython
p783
g1
((lp784
Vjacobian/djangobench
p785
aVJakeWharton/is_awesome
p786
aVjvantuyl/exim_ses_transport
p787
aVcdcarter/couchapp
p788
aVgarybernhardt/expecter
p789
aVdrnic/bosh
p790
aVjacobian/django-tastypie
p791
aVjvantuyl/iterdict
p792
ag718
aVgarybernhardt/dingus
p793
aVjacobian/django-pjax
p794
aVNZKoz/ocdtv
p795
aVgarybernhardt/blocks
p796
aVjacobian/jellyroll
p797
ag531
aVasseym/rapidsms-generic
p798
aVjvantuyl/ansible
p799
aVjvantuyl/vertebra-py
p800
aVleah/django-flash-status
p801
ag728
aVjacobian/django-debug-toolbar
p802
aVjacobian/cheeserater
p803
aVnathanmarz/nanny
p804
aVjvantuyl/shovel
p805
aVasseym/rapidsms-geoserver
p806
aVasseym/rapidsms-uganda-common
p807
aVglassesfactory/slimish-jinja-example
p808
aVjacobian/django-multiurl
p809
aVmathiasbynens/es-spec-html
p810
aVjoehewitt/devon
p811
aVasseym/rapidsms-script
p812
aVjacobian/fumblerooski
p813
aVjacobian/metrology
p814
aVglassesfactory/skypit
p815
aVpkrumins/catonmat.net
p816
aVjacobian/django-storymarket
p817
aVgarybernhardt/python-mock-comparison
p818
aVpkrumins/hacker-top
p819
aVjacobian/django-buildbots
p820
aVleah/django-pagination
p821
aVjvantuyl/pyrowl
p822
aVglassesfactory/Shimehari
p823
aVasseym/rapidsms-unregister
p824
aVjacobian/django-shorturls
p825
ag255
aVleah/django-flash
p826
aVglassesfactory/gae-spreadsheet-example
p827
aVasseym/rapidsms-mvrs
p828
aVasseym/rapidsms-message-classifier
p829
aVjacobian/chishop
p830
aVcanadaduane/Printrun
p831
aVkafka399/rinkimai
p832
aVjosh/brew-pip
p833
ag556
aVjacobian/ddt
p834
aVasseym/rapidsms-polls
p835
aVasseym/ctca
p836
aVjacobian/djangobook.com
p837
aVglassesfactory/deploytest
p838
aVchovy/wineapp_1
p839
aVgarybernhardt/prest
p840
aVjvantuyl/sublime_diagram_plugin
p841
aVasseym/django-eav
p842
ag175
aVjacobian/django
p843
aVleah/mightylemon
p844
aVjacobian/django-buildmaster
p845
aVkafka399/newsCrawl
p846
aVjvantuyl/requests
p847
aVnzakas/play
p848
aVjacobian/geocoders
p849
aVphilsturgeon/chef-logstash
p850
aVleah/python-oauth
p851
aVglassesfactory/simple_bot_study
p852
aVasseym/rapidsms-xforms
p853
aVgarybernhardt/mote
p854
aVjschairb/holland
p855
aVjacobian/django-markupfield
p856
aVjacobian/django-dev-dashboard
p857
aVleah/django-elsewhere
p858
aVasseym/rapidsms-auth
p859
aVjacobian/django-googlecharts
p860
aVjvantuyl/pystache
p861
aVasseym/rapidsms-uganda-ussd
p862
aVleah/python-oauth-old
p863
aVgarybernhardt/topaz
p864
aVglassesfactory/oyakata
p865
aVasseym/rapidsms-ureport
p866
aVJakeWharton/myp2p-boxee-app
p867
ag399
aVjnunemaker/chinwag
p868
aVasseym/rapidsms-contact
p869
aVjacobian/django-deployment-workshop
p870
ag712
aVjacobian/djangome
p871
aVjacobian/chucks
p872
aVasseym/rapidsms-httprouter
p873
aVJakeWharton/davealcorn.com
p874
aVcreationix/Calix
p875
aVglassesfactory/hagedown
p876
atp877
Rp878
sVAppleScript
p879
g1
((lp880
Vgarybernhardt/dotfiles
p881
atp882
Rp883
sVProcessing
p884
g1
((lp885
Vstepbystep55/nardove
p886
atp887
Rp888
sVCommon Lisp
p889
g1
((lp890
Vibdknox/aichallenge
p891
atp892
Rp893
sVArduino
p894
g1
((lp895
Vcanadaduane/NewPing
p896
atp897
Rp898
sVCoffeeScript
p899
g1
((lp900
g124
aVsstephenson/node-matrices
p901
aVxhr/creamy
p902
aVglassesfactory/webgl-example
p903
aVsstephenson/node-coffee-project
p904
aVglassesfactory/techlab3-template
p905
aVjosh/dom-prof
p906
aVjdhuntington/swagger-ui
p907
aVautomatthew/shred
p908
aVAlexanderFlatscher/portfolio
p909
aVcreationix/coffeepot
p910
aVglassesfactory/yarinage.js
p911
aVdanahern/demo_app
p912
aVglassesfactory/kazitori.js
p913
aVautomatthew/ax
p914
aVsstephenson/eco
p915
aVtopfunky/geddy-coffee-script-demo
p916
aVkamal/chosen
p917
aVglassesfactory/kazitori-long-example
p918
aVjnunemaker/flipper-ui
p919
aVjosh/eve
p920
aVjschairb/enrollment_service
p921
aVjschairb/project_w
p922
ag395
aVsstephenson/coffee-mode
p923
aVsstephenson/eve
p924
aVglassesfactory/techlab3-py
p925
aVjosh/coffee-script
p926
aVjdhuntington/stresster
p927
aVautomatthew/ascribe
p928
aVjdhuntington/game-checker
p929
aVautomatthew/patchboard
p930
aVgarybernhardt/turbolinks_test
p931
aVrtomayko/camo
p932
ag465
aVcanadaduane/limescripts
p933
aVglassesfactory/iOSSafariExample
p934
aVlancecarlson/corpus
p935
aVmathiasbynens/browser-diet
p936
aVsstephenson/coffee-script
p937
aVtjogin/static-skeleton
p938
aVrobbevan/chanko_sample
p939
aVJeffreyWay/My-Starting-Template
p940
aVglassesfactory/study-modan-dev
p941
aVautomatthew/djinn
p942
aVJeffreyWay/Backbone-Starter
p943
aVakitaonrails/CoffeeScript-Demonstration
p944
ag876
aVtopfunky/demo-vows-callbacks
p945
atp946
Rp947
sVXQuery
p948
g1
((lp949
g695
atp950
Rp951
sVArc
p952
g1
((lp953
g703
atp954
Rp955
sVRuby
p956
g1
((lp957
Vleah/github-services
p958
aVscharfie/format_fallback
p959
aVvanpelt/merb-core
p960
aVjschairb/paperclip
p961
aVjwhitmire/heroku-rails
p962
aVmerb/merb_activerecord
p963
ag912
aVjsierles/broach
p964
aVezmobius/nanite
p965
aVnorbauer/sprocket_express
p966
aVrtomayko/mongrel_proctitle
p967
aVjdhuntington/codekatas
p968
aVezmobius/redis-rb
p969
aVjsierles/chef
p970
aVjnunemaker/adapter-memcached
p971
aVhenrik/blocket_se_feeds
p972
aVsstephenson/hike
p973
aVjschairb/purikura
p974
aVmmower/alonetone
p975
aVpsi/mongrel_proctitle
p976
aVkamal/ancestry
p977
aVautomatthew/bitescript
p978
aVkamal/pickler
p979
aVrmurphey/blog-jekyll
p980
aVdrnic/bootstrap-cf-plugin
p981
aVjnunemaker/common_helpers
p982
aVakitaonrails/disqus
p983
ag929
aVsoffes/access_control
p984
aVNZKoz/cassandra_object
p985
aVdanielharan/hansard_scraper
p986
ag762
aVjnunemaker/flipper
p987
aVlancecarlson/anvil
p988
aVdrnic/bosh-bootstrap
p989
aVmacournoyer/orange
p990
aVup_the_irons/credit_card_tools
p991
aVhenrik/delishlist.com
p992
aVautomatthew/ruby2java
p993
aVrobbevan/Specs
p994
aVakitaonrails/fisl_10_demo
p995
aVmmower/dg834statsd
p996
aVtopfunky/good_form_builder
p997
aVantirez/redis-io
p998
ag78
ag731
aVjsierles/bluepill
p999
aVnorbauer/cj4r
p1000
aVdrnic/bcat
p1001
aVautomatthew/filebase
p1002
aVmmower/errata_plugin
p1003
aVsoffes/adder
p1004
aVautomatthew/activemdb
p1005
aVmmower/homebrew
p1006
aVmislav/curly
p1007
aVNZKoz/xss_bareback
p1008
aVNZKoz/rails
p1009
aVibdknox/chris-granger.com
p1010
aVrtomayko/kidgloves
p1011
aVkamal/rufus-tokyo
p1012
aVakitaonrails/globalize3
p1013
aVvanpelt/async-observer
p1014
aVantirez/redis-sampler
p1015
aVautomatthew/dotfiles
p1016
aVouterim/homebrew
p1017
aVhassox/db2fog
p1018
aVhassox/futures
p1019
aVstepbystep55/mapreduce
p1020
aVhenrik/country_select
p1021
ag156
ag158
aVhenrik/attachment_fu
p1022
ag162
aVdaikini/octave-ruby
p1023
aVjwhitmire/integrity-campfire
p1024
aVsstephenson/minihal
p1025
aVjsierles/bundler
p1026
aVjvantuyl/pelvis
p1027
aVakitaonrails/depot
p1028
aVjschairb/cfb
p1029
aVNZKoz/cassandra
p1030
aVlancecarlson/live-search
p1031
ag603
aVdrnic/blinksale-greasemonkey
p1032
aVdanielharan/timestamped_boolean
p1033
aVjschairb/collaboration
p1034
aVmerb/merb_datamapper
p1035
aVjwhitmire/feedzirra
p1036
aVrobbyrussell/shorturl
p1037
aVdanielharan/restful-authentication
p1038
aValexvollmer/word_salad
p1039
aVmerb/merb_parts
p1040
aVrdempsey/Coupon-Tracker-Test-App
p1041
aVdaikini/event_attribute
p1042
aValexvollmer/alexvollmer.com
p1043
aVxhr/short.li
p1044
aVdanielharan/bort
p1045
aVmattslack/radiant-mediamaid-extension
p1046
aVnorbauer/dns-tools
p1047
aVmacournoyer/eventmachine
p1048
aVhassox/dm-zone-types
p1049
ag750
aVkamal/webrat
p1050
aVdanielharan/presenter_test
p1051
aVmislav/faraday-stack
p1052
aVkamal/fireeagle
p1053
aVentryway/pebbles
p1054
aVlancecarlson/dm-more
p1055
aVtopfunky/gruff
p1056
aVdanielharan/mp-ca-scraper
p1057
aVjnunemaker/bin
p1058
aVrobbevan/currentcoststatus
p1059
aVrtomayko/adoc-themes
p1060
aVjnunemaker/google-weather
p1061
aVjazzyfox/rbot-plugins
p1062
aVmattslack/AVA_home_page_layout
p1063
aVmjankowski/repeated_job
p1064
aVmattslack/radiant
p1065
aVjnunemaker/adapter
p1066
aVautomatthew/fate
p1067
aVsstephenson/mackerel
p1068
aVrobbevan/prowlr
p1069
ag850
aVjdhuntington/i18n
p1070
aVrobbevan/annotate_models
p1071
aVjnunemaker/columbus
p1072
ag181
ag131
aVrbazinet/simplelog
p1073
aVjdhuntington/pomodori
p1074
aVtopfunky/couchrest
p1075
aVjdhuntington/fieldmarshal
p1076
ag763
aVrtomayko/date-performance
p1077
aValexvollmer/daemon-spawn
p1078
aVrobbevan/ruby-spreadsheet
p1079
aVmislav/asbestos
p1080
aVjnunemaker/flipper-redis
p1081
aVhenrik/henrik.nyh.se
p1082
aVkamal/celerity
p1083
aVjnunemaker/adapter-cassanity
p1084
aVrobbyrussell/year_after_year
p1085
aVjnunemaker/adapter-riak
p1086
aVlifo/journey_demo
p1087
aVdrnic/bosh-cloudfoundry
p1088
aVvanpelt/amqp
p1089
aVjsierles/intercom-rails
p1090
ag922
aVhede/first_app
p1091
aVjwhitmire/excelinator
p1092
aVmacournoyer/meshu
p1093
aVdanielharan/miniblog
p1094
aVjschairb/libretsy
p1095
aVakitaonrails/cells_demo
p1096
aVlancecarlson/merb-core
p1097
aVantirez/redis-doc
p1098
aVtopfunky/bong
p1099
ag265
aVNZKoz/delayed_job
p1100
aVautomatthew/cassie
p1101
aVrobbevan/rails-templates
p1102
aVmacournoyer/mor7
p1103
aVsoffes/binary_plist
p1104
aValexvollmer/pci4r
p1105
aVhassox/amqp
p1106
aVpsi/hubot
p1107
aVsoffes/hands
p1108
aVtjogin/naive-search
p1109
aVlancecarlson/acts-as-taggable-on
p1110
aVjschairb/doughboy
p1111
aVmacournoyer/preforker
p1112
aVlifo/cramp-pub-sub-chat-demo
p1113
ag790
aVjdhuntington/codename-chicane
p1114
aVsoffes/findi
p1115
aVrobbyrussell/active_merchant
p1116
aVdaikini/kato
p1117
aVmerb/merb_sequel
p1118
aVjschairb/photos
p1119
ag222
aVscharfie/jbuilder
p1120
aVmislav/euruko-golf
p1121
aVmjankowski/sms-fu
p1122
ag720
ag721
aVjschairb/boomtown
p1123
aVmislav/fakefs
p1124
aVmjankowski/money
p1125
aVsstephenson/mdtoc
p1126
aVakitaonrails/capistrano
p1127
aVrobbyrussell/faker
p1128
aVmislav/anemone
p1129
aVnorbauer/mlb-gameday-api
p1130
aVsoffes/geminabox
p1131
aVmmower/coreplus
p1132
aVentryway/pebbles_audio_files
p1133
aVdaikini/Specs
p1134
ag579
aVrobbevan/electro
p1135
aValexvollmer/freedomrock
p1136
ag582
aVup_the_irons/altered_beast
p1137
aVrtomayko/posix-spawn
p1138
aVjnunemaker/cassandra-cql
p1139
aVkamal/will_paginate
p1140
aVrtomayko/bcat
p1141
aVsstephenson/disaster
p1142
aVmattslack/radiant-sitemap_search-extension
p1143
aVscharfie/has_default
p1144
aVantirez/lamernews
p1145
aVjsierles/faraday
p1146
aVjwhitmire/sinatra-helpers
p1147
aVouterim/fog
p1148
aVhenrik/go_to_param
p1149
aVrobbyrussell/less
p1150
aVjnunemaker/cassanity
p1151
aVjnunemaker/adapter-redis
p1152
aVjsierles/dropbox-api
p1153
aVlifo/enlighten-websockets
p1154
aVjnunemaker/aaws
p1155
aVdanahern/ruby_game
p1156
aVantirez/redis-rb-cluster
p1157
aVpsi/homebrew
p1158
aVmacournoyer/macournoyer.com
p1159
aVmacournoyer/rest-client
p1160
aVjwhitmire/llor-nu-legacy
p1161
aVjnunemaker/adapter-mongo
p1162
aVkamal/friendly_id
p1163
aVcdcarter/artnetr
p1164
aVhenrik/git-tmbundle
p1165
aVlancecarlson/dm-mongo-adapter
p1166
aVjwhitmire/ruby-units
p1167
aVmislav/albino
p1168
aValexvollmer/httparty
p1169
aVscharfie/article-slate-plugin
p1170
ag743
aVmislav/facebook
p1171
aValexvollmer/itunes-connect
p1172
aVvanpelt/merb_paginate
p1173
aVjnunemaker/crdts
p1174
aVdaikini/paysimple
p1175
aVakitaonrails/active_merchant
p1176
aVmjankowski/polepin
p1177
aVmislav/bundler
p1178
aVdaikini/rubicus
p1179
aVsoffes/apple_push_notification
p1180
aVkamal/database_cleaner
p1181
aVdanielharan/prisoners_dilemma
p1182
aVnorbauer/submarine
p1183
aVautomatthew/rakegen
p1184
aVdanahern/goose
p1185
aVakitaonrails/dry_scaffold
p1186
aVautomatthew/autocode
p1187
aVrobbevan/scout-plugins
p1188
aVtjogin/local-copy
p1189
aVmmower/bishop
p1190
aVlancecarlson/fog
p1191
aVcanadaduane/getdoc
p1192
aVjschairb/how-many-days-since
p1193
aVrtomayko/rinku
p1194
aVkamal/rails
p1195
aVdanielharan/addressbookimporter
p1196
aVrtomayko/rack-cache
p1197
aVhenrik/action_mailer_tls
p1198
aVmacournoyer/rack-sandbox
p1199
aVpsi/peeler
p1200
aVdrnic/blue-ridge-tmbundle
p1201
aVjsierles/memcache-client
p1202
aVhassox/haml
p1203
aVezmobius/ez-where
p1204
aVjsierles/kayak
p1205
aVvanpelt/dm-imap-adapter
p1206
aVjosh/bundler
p1207
aVezmobius/chef-deploy
p1208
aVkamal/tender_multipass
p1209
aVjosh/albino
p1210
aVsoffes/any
p1211
aVjdhuntington/memory-address-218
p1212
aVmislav/choices
p1213
aVsstephenson/37signalsMenu
p1214
aVjwhitmire/ruby-tmbundle
p1215
aVakitaonrails/call4paperz
p1216
aVakitaonrails/enki
p1217
aVentryway/headwater
p1218
aVtopfunky/barista
p1219
aVhassox/foreman
p1220
aVup_the_irons/powerdns-models
p1221
aValexvollmer/chikken_in_a_bukket
p1222
aVjosh/datomic-free
p1223
aVmerb/merb-core
p1224
aVadam/dm-exampleapp
p1225
aVscharfie/gabby
p1226
aVjsierles/bits_on_the_run
p1227
aVsoffes/houston
p1228
aVlancecarlson/amfruby
p1229
aVkamal/detached_counter_cache
p1230
ag772
aVmerb/merb-gen
p1231
aVmerb/merb_cucumber
p1232
aVcanadaduane/BraveZealot
p1233
aVjdhuntington/dieselisation
p1234
aVkamal/contacts
p1235
aVjazzyfox/ruby_koans
p1236
aVdanielharan/postal_code_to_edid_webservice
p1237
ag296
aVtopfunky/calendar_helper
p1238
aVscharfie/bones
p1239
aVpsi/chef-xcode-command-line-tools
p1240
aVezmobius/nats
p1241
aVmacournoyer/confoo
p1242
aVjosh/gem_stub
p1243
aVrobbevan/migrate_test_db
p1244
aVscharfie/blog-slate-plugin
p1245
aVmislav/contacts
p1246
aVup_the_irons/billing-system-models
p1247
aVezmobius/vmc
p1248
ag304
aVezmobius/redactor
p1249
aVrobbyrussell/rubyurl
p1250
aVsoffes/hue
p1251
aVakitaonrails/locarails
p1252
aVdrnic/build-change-trigger-plugin
p1253
aVakitaonrails/brazilian-rails
p1254
ag307
aVrobbevan/authlogic_facebook_connect
p1255
aVleah/suggestorama
p1256
aVgarybernhardt/explicit_import
p1257
aVmmower/godo
p1258
aVsstephenson/hork
p1259
ag309
aVouterim/ripple
p1260
aVpsi/doorman
p1261
aVscharfie/jira
p1262
aVautomatthew/functor
p1263
aVvanpelt/merb_facebooker
p1264
aVdanielharan/cijoe
p1265
aVakitaonrails/acts_as_solr_reloaded
p1266
aVouterim/travis_reprise
p1267
aVgarybernhardt/the-march-of-progress
p1268
ag317
aVmacournoyer/invisible
p1269
aVjnunemaker/flipper-cassanity
p1270
aVmacournoyer/pusher
p1271
aVlifo/journey
p1272
aVjschairb/distribunaut
p1273
aVgspederson/01-CodeBreaker
p1274
aVsoffes/acts_as_list
p1275
aVdrnic/bosh-client
p1276
aVfloydprice/Rails-Startup-App
p1277
aVhassox/dm-polymorphic
p1278
ag939
aVpsi/chef-cookbook-template
p1279
aVjosh/gem-template
p1280
ag730
aVantirez/redis-rb
p1281
aVscharfie/hcl
p1282
aVcdcarter/gingko
p1283
aVentryway/hitch
p1284
aVdaikini/chunky_bacon
p1285
ag105
aVjosh/brew-gem
p1286
ag589
aVrobbyrussell/textilizefu
p1287
aVkamal/cucumber
p1288
aVdanielharan/danielharan.com
p1289
aVdanielharan/support
p1290
aVhenrik/draper
p1291
aVhenrik/hasmygembuiltyet
p1292
aVhenrik/cloudinary_gem
p1293
aVezmobius/acl_system2
p1294
aVscharfie/form_assistant
p1295
aVhassox/google-spreadsheet-ruby
p1296
aVrtomayko/rip
p1297
aVhassox/any_view
p1298
aVantirez/nolate
p1299
aVhassox/black
p1300
aVlifo/fast_context
p1301
aVelbowdonkey/infiniteexcitebike
p1302
aVNZKoz/sillytestapp
p1303
aVjsierles/exception_notification
p1304
aVjdhuntington/pindah
p1305
aVdrnic/cf-docs
p1306
aVgarybernhardt/rouge
p1307
aVNZKoz/rails_xss
p1308
aVhede/demo_app
p1309
ag349
aVvanpelt/contacts
p1310
aVup_the_irons/ip_allocator
p1311
aVup_the_irons/immutable
p1312
aVmattslack/annual-aggregator
p1313
ag944
aVhassox/abr_lookup
p1314
aVdanielharan/isochrones
p1315
aVtopfunky/basic_model
p1316
aVsstephenson/BubbleWrap
p1317
aVmmower/mailtrap
p1318
aVxhr/compass-rails
p1319
ag357
aVhenrik/gchartrb
p1320
aVrobbyrussell/masochism
p1321
aVjwhitmire/ssl_requirement
p1322
aVgarybernhardt/base
p1323
aVtopfunky/ar_fixtures
p1324
aVdrnic/Bundler.tmbundle
p1325
aVphilsturgeon/chef-php-fpm
p1326
ag39
aVdanielharan/pc_scraper
p1327
aVxhr/minifactory
p1328
aVvanpelt/shortr
p1329
aVlancecarlson/cheap_chronic
p1330
aVjsierles/driven
p1331
aVNZKoz/thinking-sphinx
p1332
aVdanahern/vimeo
p1333
aVmislav/addressable
p1334
aVmacournoyer/gh-contest
p1335
aVrobbevan/jekyll-skeleton
p1336
aVvanpelt/merb-more
p1337
aVtopfunky/google-checkout
p1338
aVezmobius/merbivore
p1339
aVhede/sample_app
p1340
aVnorbauer/has_accent
p1341
aVmislav/fakeweb
p1342
ag375
aVjsierles/cijoe
p1343
aVmacournoyer/mtlrb-jan12
p1344
aVpsi/octokit
p1345
aVsoffes/fat.samsoff.es
p1346
aVsstephenson/dimensions
p1347
aVjschairb/kickstart
p1348
aVjdhuntington/fragrant
p1349
aVxhr/guard-unicorn
p1350
aVjsierles/flamencodb
p1351
aVhornbeck/blerb-core
p1352
aVmmower/passport_control
p1353
aVrdempsey/CouchLog
p1354
aVakitaonrails/answers_demo
p1355
aVtopfunky/bigapp
p1356
aVjdhuntington/rack-client
p1357
aVrbazinet/render_mate
p1358
aVjnunemaker/flipper-mongo
p1359
aVsoffes/discover
p1360
aVmathiasbynens/captured
p1361
aVtopfunky/async_observer
p1362
aVpsi/chef-percona
p1363
aVup_the_irons/ram
p1364
aVautomatthew/ambition
p1365
aVhenrik/delpin
p1366
aVmerb/merb
p1367
aVNZKoz/bigdecimal-segfault-fix
p1368
aVkamal/rack
p1369
aVlifo/tickle
p1370
aVjdhuntington/ruby-function-overloading
p1371
aVdanielharan/biximo
p1372
aVlifo/cramp
p1373
aVcdcarter/bankers
p1374
aVrtomayko/gitscm
p1375
aVdanahern/google_weather_api_test
p1376
aVlifo/misfit_client
p1377
aVsoffes/enmatz.com
p1378
aVscharfie/acts_as_lookup
p1379
aVjschairb/alonzo
p1380
aVmacournoyer/is_taggable
p1381
ag401
aVNZKoz/rake
p1382
aVnorbauer/salty_slugs
p1383
aVrobbevan/facebooker
p1384
aVsstephenson/execjs
p1385
aVmacournoyer/llvmruby
p1386
aVpsi/runit
p1387
aVdanielharan/validations
p1388
aVdanielharan/semantic-menu
p1389
aVup_the_irons/ebay4r
p1390
aValexvollmer/homebrew
p1391
aVmislav/eventmachine
p1392
aVezmobius/chef-101
p1393
aVlifo/snoop
p1394
aVhassox/dm-pagination
p1395
aValexvollmer/yajl-rails
p1396
aVmerb/merb-auth
p1397
aVdrnic/appscrolls
p1398
aVautomatthew/moonstone
p1399
aVhenrik/annotate_models
p1400
aVjsierles/js_named_routes
p1401
aVjnunemaker/crack
p1402
aVlifo/docrails
p1403
aVjschairb/build_tester
p1404
aVakitaonrails/Command-T
p1405
aVmislav/by_star
p1406
aValexvollmer/clip
p1407
aVjnunemaker/googlebase
p1408
aVlancecarlson/merb
p1409
aVmacournoyer/mysql_s3_backup
p1410
aVjnunemaker/feedzirra
p1411
aVjosh/homebrew
p1412
aVcanadaduane/dropbox-api
p1413
aVjsierles/integrity
p1414
aVdrnic/chef-repo
p1415
aVnorbauer/openssh-for-git
p1416
aVezmobius/vcap
p1417
aVphilsturgeon/gulliver
p1418
aVmiyagawa/asana_digest
p1419
aVsoffes/async_sinatra
p1420
ag422
aVrmurphey/flitter
p1421
aVouterim/ghost
p1422
aVrobbyrussell/docrails
p1423
aVcowboy/gaucho-old
p1424
aVautomatthew/harp
p1425
aVvanpelt/jekyll
p1426
aVlukas/mailfactory
p1427
aVnorbauer/letterpress
p1428
aVrobbyrussell/active_delegate
p1429
aVdanielharan/github_resys
p1430
aVjnunemaker/github-twitter
p1431
aVogc/rails_skeleton
p1432
aVhenrik/etsy-rss
p1433
aVmattslack/warehouse
p1434
aVsstephenson/brochure
p1435
ag921
aVhassox/babushka-deps
p1436
aVpsi/chef-rbenv_system_pkgs
p1437
aVjsierles/clickatell
p1438
aVhenrik/exception_logger
p1439
aVsoffes/awfulrecruiters.com
p1440
aVautomatthew/ripples
p1441
aVgarybernhardt/sucks-rocks
p1442
aVakitaonrails/chef-debian
p1443
aVsstephenson/multi_json
p1444
aVpsi/chef-ruby
p1445
aVscharfie/easy_search
p1446
aVhassox/acts_as_votable
p1447
ag927
aVadam/exceptionalauthentication
p1448
aVdrnic/cf-console
p1449
aVrtomayko/rack
p1450
aVjschairb/mineralogy
p1451
aVpsi/few
p1452
aVjnunemaker/canable
p1453
aVjnunemaker/gemwhois
p1454
aVnorbauer/kindle-nom-nom
p1455
aVantirez/redis-timeseries
p1456
aVjsierles/fast_git_deploy
p1457
aVlifo/sidekick
p1458
aVlancecarlson/machinist
p1459
aVNZKoz/sprockets
p1460
aVdrnic/celerity
p1461
aVjschairb/conan
p1462
aVlancecarlson/account_location
p1463
aVlifo/tramp
p1464
aVdanielharan/people_you_may_know
p1465
aVautomatthew/flipper
p1466
ag454
aVantirez/book-examples
p1467
aVpsi/vagrant
p1468
aVmacournoyer/cache_digests
p1469
aVjsierles/bitsontherun
p1470
aVpsi/dmg
p1471
aVhassox/handlebars_assets
p1472
aVjwhitmire/rspec_validation_expectations
p1473
aVsoffes/hire.samsoff.es
p1474
aVjosh/cook
p1475
aVhassox/dm-adapters
p1476
aVmadrobby/freckle-cmd
p1477
ag931
aVlancecarlson/kissgen
p1478
aVtopfunky/castanaut
p1479
aValexvollmer/github-gem
p1480
aVmislav/big_sitemap
p1481
aVouterim/coffer
p1482
aVscharfie/gnat
p1483
aVsoffes/grater
p1484
aVcommonsguy/andglobe
p1485
aVrtomayko/astrotrain
p1486
aVsstephenson/hector
p1487
aVmacournoyer/rack
p1488
aVdrnic/associated_with
p1489
aVdanielharan/confidence
p1490
aVjwhitmire/ruby-on-rails-tmbundle
p1491
aVmislav/cook
p1492
aVAlexanderFlatscher/sbicktRails
p1493
aVjwhitmire/runt
p1494
aVscharfie/faq-slate-plugin
p1495
aVvanpelt/delayed_job
p1496
aVmathiasbynens/homebrew
p1497
aVnorbauer/heroku-sinatra-coming-soon
p1498
aVmislav/explain-ruby
p1499
aVagentzh/linguist
p1500
aVup_the_irons/tendersync
p1501
aVhenrik/atomica
p1502
aVhenrik/augmentations
p1503
aVdanielharan/ruby-aaws
p1504
aVscharfie/associated_save
p1505
aVscharfie/eztime
p1506
ag637
aVautomatthew/rupez
p1507
aVjdhuntington/laizen
p1508
aVautomatthew/desire
p1509
aValexvollmer/gitjour
p1510
aVmislav/faraday
p1511
aVhenrik/globalize3
p1512
aVvanpelt/merb_async_observer
p1513
aVcanadaduane/alfred2-dropbox
p1514
aVNZKoz/rexml-expansion-fix
p1515
aVAlexanderFlatscher/puzzlesBackEnd
p1516
aVjschairb/dot_foo
p1517
aVmislav/cane
p1518
aVmacournoyer/em-spec
p1519
aVhassox/hash_path
p1520
aVvanpelt/merb-plugins
p1521
aVlancecarlson/devise
p1522
aVhassox/hashie
p1523
aVrobbyrussell/rbot-svnwatch
p1524
aVautomatthew/ambitious_activerecord
p1525
aVakitaonrails/factory_girl
p1526
aVezmobius/ey-lessql
p1527
aVhenrik/fuzzy_file_finder
p1528
aVautomatthew/ambitious_activeldap
p1529
aVakitaonrails/demo_responds_to_parent
p1530
aVgarybernhardt/do_not_want
p1531
ag491
aVtopfunky/choctop
p1532
aVjosh/gem_keychain
p1533
ag492
aVjsierles/marginalia
p1534
atp1535
Rp1536
sVGroovy
p1537
g1
((lp1538
g695
aVginatrapani/todo.txt-html5
p1539
atp1540
Rp1541
sVC
p1542
g1
((lp1543
Vezmobius/bmhsearch
p1544
aVcanadaduane/osx-space-id
p1545
ag634
aVantirez/otree
p1546
aVsstephenson/kinect
p1547
aVtopfunky/gfxCardStatus
p1548
ag614
aVautomatthew/minfinite
p1549
aVcloudwu/coroutine
p1550
aVantirez/aspark
p1551
aVxhr/matcher
p1552
ag20
ag658
aVzybl880506/iptables-1.2.7
p1553
aVcloudwu/buddy
p1554
aVantirez/dump1090
p1555
aVzybl880506/email
p1556
ag610
aVantirez/hping
p1557
ag741
aVcloudwu/aoi
p1558
aVantirez/linenoise
p1559
ag660
aVgarybernhardt/webkit
p1560
aVdaikini/matlab-ruby
p1561
aVcloudwu/windsoul
p1562
ag1194
aVzybl880506/wamlog
p1563
aVantirez/mc-benchmark
p1564
ag43
aVcdcarter/Effe
p1565
ag617
aVpkrumins/bithacks.h
p1566
aVkoush/android_system_core
p1567
aVagentzh/mockeagain
p1568
aVkafka399/TwsMongo
p1569
ag641
aVcloudwu/dfont
p1570
aVkoush/android_external_busybox
p1571
aVnathanmarz/formula-inverse
p1572
ag726
ag1164
aVdesandro/editorconfig-textmate
p1573
aVkoush/android_bionic
p1574
aVkoush/android_vendor_google_passion
p1575
ag624
aVezmobius/super-nginx
p1576
aVkoush/android_device_motorola_backflip
p1577
aVkoush/android_external_yaffs2
p1578
ag1386
ag598
aVerica/sleepnow
p1579
aVantirez/redis-tools
p1580
aVsoffes/cloudapp.uploader
p1581
aVzybl880506/noteC
p1582
aVjoehewitt/markdom
p1583
ag629
aVzybl880506/authorization
p1584
aVjoehewitt/up
p1585
ag1138
ag645
aVmacournoyer/peg
p1586
aVkoush/android_device_samsung_epic4g
p1587
aVsebastianbergmann/php-test-helpers
p1588
aVzybl880506/acknetworks
p1589
aVkoush/android_device_generic
p1590
aVzybl880506/libnids-1.24
p1591
ag22
aVcloudwu/mread
p1592
aVAlexanderFlatscher/FileServer
p1593
atp1594
Rp1595
sVD
p1596
g1
((lp1597
g119
atp1598
Rp1599
sVOCaml
p1600
g1
((lp1601
g891
atp1602
Rp1603
sVC++
p1604
g1
((lp1605
g1567
ag1549
aVcanadaduane/node-serialport
p1606
ag780
ag42
ag1048
aVcreationix/candor.io
p1607
aVmacournoyer/node-syscalls
p1608
ag43
aVmacournoyer/rbv8
p1609
ag1569
ag565
ag1572
aVdaikini/fityk-ruby
p1610
ag66
ag1386
aVsstephenson/node
p1611
aVpkrumins/hwnd-finder
p1612
ag76
ag1023
aVjoaoleal/CppADCodeGen
p1613
ag1392
ag1593
atp1614
Rp1615
sVGo
p1616
g1
((lp1617
Vlancecarlson/couchgo
p1618
aVfelixge/felixge.de
p1619
aVfelixge/ardrone
p1620
aVjosh/gobert
p1621
atp1622
Rp1623
sVObjective-C
p1624
g1
((lp1625
g1268
aVmmower/LRResty
p1626
aVNZKoz/iOSPorts
p1627
ag1548
aVerica/iphone-3.0-cookbook-
p1628
aVsoffes/iphone-plist
p1629
ag433
aVsoffes/bully
p1630
aVerica/datatube
p1631
aVdaikini/sstoolkit
p1632
aVNZKoz/MagicalRecord
p1633
aVdaikini/ssconnection
p1634
aVsoffes/ActiveSupportInflector
p1635
aVerica/uicolor-utilities
p1636
aVerica/Camera-Image-Helper
p1637
aVhenrik/DeepSleepPreventerLibrary
p1638
aVtopfunky/CocoaHelpDemo
p1639
aVsoffes/blending-benchmarks
p1640
aVNZKoz/UnwindSegues
p1641
aVmmower/lmhoneycombview
p1642
aVkamal/gitx
p1643
aVerica/ibrowser
p1644
aVerica/iOS-6-Advanced-Cookbook
p1645
aVerica/NSObject-Utility-Categories
p1646
ag1059
aVvanpelt/CardMaven
p1647
aVerica/CFClippyRef
p1648
aVerica/MPMediaItem-Properties
p1649
ag1573
aVmmower/jscocoa
p1650
aVmmower/diffly
p1651
aVmmower/lmdial
p1652
aVmmower/pastackedlistview
p1653
aVerica/ABContactHelper
p1654
aVtopfunky/categories
p1655
aVorencohen1/TrackDir
p1656
ag1581
aVmmower/MAFuture
p1657
aVmmower/lmswitch
p1658
aVmmower/Freeman
p1659
aVginatrapani/todo.txt-touch-ios
p1660
aVerica/NSArray-Utilities
p1661
aValexvollmer/OCMock
p1662
aVdaikini/FireBooks
p1663
aVerica/NSDate-Extensions
p1664
aVNZKoz/MailCore
p1665
aVerica/uidevice-extension
p1666
aVmmower/elysium
p1667
aVantirez/iconping
p1668
aVmoodlehq/mymoodle
p1669
aVsoffes/AFNetworking
p1670
aVsoffes/iphone-library-test-library
p1671
aVmmower/Gen
p1672
aVsoffes/iphone-library-test-app
p1673
aVleah/PullToRefresh
p1674
aVhenrik/file_transfer_sender_subdirectories_plugin
p1675
aVerica/iOS-5-Cookbook
p1676
aVerica/iOS-6-Cookbook
p1677
aVmmower/nebo
p1678
atp1679
Rp1680
sVR
p1681
g1
((lp1682
Vkafka399/githubdata
p1683
aVkafka399/haxogreen.lu
p1684
aVkafka399/carCount
p1685
aVkafka399/Rproject
p1686
aVkafka399/fitparse
p1687
aVhornbeck/zendeskR
p1688
ag686
aVkafka399/votingDistance
p1689
aVkafka399/candidateFeatures
p1690
aVhornbeck/resumatoR
p1691
aVkafka399/Levenshtein-distance
p1692
aVfelixge/faster-than-c
p1693
aVkafka399/compfinance
p1694
atp1695
Rp1696
sVClojure
p1697
g1
((lp1698
g13
aVibdknox/ChromaShift
p1699
aVnathanmarz/cascalog-workshop
p1700
aVibdknox/clojail
p1701
aVnathanmarz/clojars-web
p1702
aVibdknox/clj-record
p1703
aVnathanmarz/cascalog-workshop-starter
p1704
aVrichhickey/sdb
p1705
aVibdknox/gambit
p1706
aVnathanmarz/cascalog-conj
p1707
aVnathanmarz/elephantdb-cascading
p1708
aVrichhickey/rdfm
p1709
aVibdknox/blind
p1710
ag81
aVibdknox/colorize
p1711
aVibdknox/clj-socketio
p1712
ag737
aVibdknox/fetch
p1713
aVnathanmarz/kafka-deploy
p1714
aVrichhickey/clojure-clr
p1715
aVibdknox/clojure-pong
p1716
aVnathanmarz/elephantdb-cascalog
p1717
aVnathanmarz/cascalog-demo
p1718
aVnathanmarz/storm
p1719
aVnathanmarz/carbonite
p1720
aVrichhickey/clojure
p1721
aVjdhuntington/boardgame-tracker
p1722
aVnathanmarz/cascalog
p1723
aVibdknox/crate
p1724
aVnathanmarz/crane
p1725
aVibdknox/clojure-koans
p1726
aVnathanmarz/cascalog-contrib
p1727
aVibdknox/jayq
p1728
aVibdknox/babbage
p1729
aVrichhickey/clojure-contrib
p1730
aVnathanmarz/clj-disruptor
p1731
aVnathanmarz/serializable-fn
p1732
aVibdknox/dommy
p1733
aVnathanmarz/leiningen
p1734
aVjnunemaker/clostar
p1735
atp1736
Rp1737
sVErlang
p1738
g1
((lp1739
Vjvantuyl/erlbench
p1740
aVhornbeck/fuzed
p1741
aVjvantuyl/erlctl
p1742
aVhornbeck/Little-Erlanger
p1743
ag108
aVjdhuntington/learning
p1744
aVjvantuyl/erl-class
p1745
aVezmobius/vcap-tests
p1746
aVjvantuyl/erl-skel
p1747
ag506
atp1748
Rp1749
sVRust
p1750
g1
((lp1751
Vkoush/android_device_motorola_targa
p1752
aVkoush/android_device_htc_ace
p1753
atp1754
Rp1755
sVProlog
p1756
g1
((lp1757
g103
atp1758
Rp1759
sVFORTRAN
p1760
g1
((lp1761
Vjschairb/foortran
p1762
aVfelixge/ack
p1763
atp1764
Rp1765
sVColdFusion
p1766
g1
((lp1767
g695
atp1768
Rp1769
sVRagel in Ruby Host
p1770
g1
((lp1771
Vagentzh/chunkin-nginx-module
p1772
aVcanadaduane/alfred2-ruby-framework
p1773
atp1774
Rp1775
sVFancy
p1776
g1
((lp1777
g1719
atp1778
Rp1779
sVC#
p1780
g1
((lp1781
Vayende/Effectus
p1782
aVayende/courses-stockholm-oct-2012
p1783
ag1715
aVayende/managed-esent
p1784
aVayende/lucene.net
p1785
aVayende/Example.MapReduce
p1786
aVroland/HttpBuildQuery
p1787
aVayende/Degenerated.Storage
p1788
aVayende/IntroToNHibernate
p1789
aVayende/NHibernate-Challanges
p1790
aVvanpelt/evercookie
p1791
aVayende/nhibernate-blog-model
p1792
aVayende/Advanced.NHibernate
p1793
ag362
aVcdcarter/Mantle
p1794
aVkoush/androidmono
p1795
aVayende/NHibernate-Course
p1796
aVayende/HibernatingRhinos.PhoneBook
p1797
aVayende/dotnet-protobufs
p1798
aVayende/Alexandria
p1799
atp1800
Rp1801
sVTcl
p1802
g1
((lp1803
Vantirez/redis
p1804
aVantirez/recidiv
p1805
aVantirez/gif-pure-tcl
p1806
aVantirez/Bigdis
p1807
ag765
atp1808
Rp1809
sVHaskell
p1810
g1
((lp1811
Vcanadaduane/ImplicitCAD
p1812
ag111
atp1813
Rp1814
sVPuppet
p1815
g1
((lp1816
Vpsi/puppet-chef
p1817
aVrtomayko/MiniProfiler
p1818
aVNZKoz/MiniProfiler
p1819
aVpsi/puppet-vagrant
p1820
aVpsi/puppet-traktor
p1821
aVpsi/puppet-quicksilver
p1822
aVpsi/my-boxen
p1823
atp1824
Rp1825
sVIo
p1826
g1
((lp1827
Vcdcarter/backpacking
p1828
aVcdcarter/io
p1829
ag1344
atp1830
Rp1831
sVActionScript
p1832
g1
((lp1833
g425
aVglassesfactory/messagepack
p1834
aVglassesfactory/GFTweet
p1835
aVglassesfactory/GFGAETweet
p1836
aVglassesfactory/WorldWordWeb
p1837
aVglassesfactory/glassesfactory
p1838
aVglassesfactory/GFWindowObserver
p1839
aVglassesfactory/Tween24
p1840
aVglassesfactory/GFS.I.OAS3
p1841
aVAlexanderFlatscher/puzzlesFrontEndAIR
p1842
aVglassesfactory/GFSimpleSoundVisualizer
p1843
aVdesandro/css3please
p1844
aVlancecarlson/flails
p1845
aVAlexanderFlatscher/puzzlesFrontEnd
p1846
atp1847
Rp1848
sVRacket
p1849
g1
((lp1850
Vyinwang0/ydiff
p1851
aVpsi/svdir-camper_van
p1852
ag774
atp1853
Rp1854
sVASP
p1855
g1
((lp1856
g1818
ag431
ag261
ag449
ag1783
ag1819
ag170
ag302
ag327
ag416
ag417
ag451
aVayende/courses-nhibernate-fleet-street-nov-2012
p1857
ag142
ag485
aVayende/courses-trondheim-sep-2012
p1858
aVroland/TestServiceStackService
p1859
aVayende/courses-lucerne-oct-2012
p1860
atp1861
Rp1862
sVVisual Basic
p1863
g1
((lp1864
Vfloydprice/helloworld
p1865
ag1586
ag327
ag142
ag1857
ag543
atp1866
Rp1867
sVPHP
p1868
g1
((lp1869
Vnextgen666/nxgsrtg
p1870
aVsebastianbergmann/finder-facade
p1871
ag1791
aVfelixge/cakephp-authsome
p1872
aVmoodlehq/moodle-theme_mooch
p1873
aVsebastianbergmann/php-timer
p1874
aVsebastianbergmann/php-text-template
p1875
aVweierophinney/Component_ZendForm
p1876
aVphilsturgeon/codeigniter-oauth
p1877
aVJeffreyWay/Laravel-Model-Validation
p1878
aVsebastianbergmann/dbunit
p1879
aVmoodlehq/moodle-local_dev
p1880
ag723
aVweierophinney/Component_ZendDi
p1881
ag316
aVmoodlehq/moodle-filter_moodledocs
p1882
aVweierophinney/Component_ZendCode
p1883
aVweierophinney/Component_ZendDb
p1884
aVweierophinney/Component_ZendLog
p1885
aVweierophinney/bugapp
p1886
aVginatrapani/isosceles
p1887
aVfelixge/cakephp-browscap
p1888
ag318
aVginatrapani/Smarterware
p1889
aVphilsturgeon/fuel-oauth-provider
p1890
aVmoodlehq/moodle-filter_geshi
p1891
aVweierophinney/Component_ZendBarcode
p1892
aVweierophinney/Component_ZendHttp
p1893
aVJeffreyWay/Easy-WordPress-Custom-Post-Types
p1894
aVmoodlehq/moodle-behat-extension
p1895
aVphilsturgeon/codeigniter-payments
p1896
aVmoodlehq/moodle-local_codechecker
p1897
aVJeffreyWay/PHPUnit-Wrappers
p1898
ag243
aVsebastianbergmann/phploc
p1899
aVJeffreyWay/Blog-Expenses
p1900
aVsebastianbergmann/PHPUnit-CodeSniffer
p1901
aVweierophinney/Component_ZendConfig
p1902
aVweierophinney/Component_ZendInputFilter
p1903
aVmoodlehq/moodle-local_amos
p1904
aVmoodlehq/moodle-local_moodlecheck
p1905
aVmoodlehq/moodle-filter_moodlelinks
p1906
aVweierophinney/Component_ZendDebug
p1907
aVweierophinney/Component_ZendCaptcha
p1908
aVphilsturgeon/fuel-ninjauth
p1909
aVsebastianbergmann/diff
p1910
aVweierophinney/Component_ZendDom
p1911
aVfelixge/cakephp
p1912
aVweierophinney/Component_ZendJson
p1913
ag130
aVmoodlehq/moodle-local_chatlogs
p1914
aVsebastianbergmann/hphpa
p1915
aVweierophinney/Component_ZendLdap
p1916
aVmoodlehq/moodle-local_hub
p1917
aVsharkcz/gettext-extractor
p1918
aVphilsturgeon/codeigniter-prowl
p1919
aVJeffreyWay/Recurring-Tweets
p1920
aVphilsturgeon/codeigniter-github
p1921
aVmoodlehq/moodle-local_wstemplate
p1922
aVsuperphly/cmb-genesis-base
p1923
aVJeffreyWay/framework
p1924
aVsebastianbergmann/gap
p1925
aVphilsturgeon/ee2-rest
p1926
aVsebastianbergmann/phpcpd
p1927
aVJeffreyWay/ardent
p1928
aVJeffreyWay/Laravel-Generator
p1929
aVphilsturgeon/codeigniter-maxcdn
p1930
aVfelixge/cakephp-mixpanel
p1931
aVmoodlehq/moodle-behat-features
p1932
aVphilsturgeon/codeigniter-curl
p1933
aVweierophinney/Component_ZendI18n
p1934
aVphilsturgeon/codeigniter-encoding
p1935
aVweierophinney/Component_ZendFile
p1936
aVweierophinney/Component_ZendLoader
p1937
aVscharfie/harvest-wordpress-theme
p1938
aVweierophinney/Component_ZendFilter
p1939
aVsebastianbergmann/php-object-freezer
p1940
aVginatrapani/ThinkUp
p1941
ag611
aVnextgen666/phpbb3
p1942
aVsgperez/project
p1943
aVJeffreyWay/Laravel-4-Generators
p1944
aVphilsturgeon/fuelphp-gettingstarted
p1945
aVphilsturgeon/codeigniter-restclient
p1946
aVsebastianbergmann/php-file-iterator
p1947
aVphilsturgeon/codeigniter-oauth2
p1948
aVJeffreyWay/Reminders
p1949
aVmoodlehq/moodle-local_phppgadmin
p1950
aVsebastianbergmann/money
p1951
aVweierophinney/Component_ZendAuthentication
p1952
aVfelixge/debuggable-scraps
p1953
aVJeffreyWay/Envato-Marketplace-API-Wrapper-in-PHP
p1954
aVmoodlehq/moodle-mod_newmodule
p1955
aVmoodlehq/moodle-filter_skypeicons
p1956
aVJeffreyWay/Compress-and-Concatenate-Stylesheets-with-PHP
p1957
ag369
aVweierophinney/Component_ZendFeed
p1958
ag757
aVginatrapani/GitHub-Pull-Request-Email-Bot
p1959
ag418
aVphilsturgeon/codeigniter-restserver
p1960
aVsebastianbergmann/bytekit-cli
p1961
aVsebastianbergmann/phpcov
p1962
aVsebastianbergmann/php-code-coverage
p1963
aVmoodlehq/moodle-local_phpmyadmin
p1964
aVsebastianbergmann/phpunit-mock-objects
p1965
aVsebastianbergmann/exporter
p1966
aVJeffreyWay/Capitalizr
p1967
aVweierophinney/Component_ZendCrypt
p1968
aVsebastianbergmann/phpunit
p1969
aVphilsturgeon/codeigniter-dwoo
p1970
ag1588
aVphilsturgeon/codeigniter-cli
p1971
aVweierophinney/Component_ZendEscaper
p1972
aVweierophinney/Component_ZendMail
p1973
ag382
aVmislav/async-upload
p1974
aVsebastianbergmann/php-project-wizard
p1975
aVweierophinney/Component_ZendEventManager
p1976
aVsebastianbergmann/php-token-stream
p1977
aVsebastianbergmann/php-invoker
p1978
aVweierophinney/Component_ZendConsole
p1979
ag196
aVmoodlehq/moodle-behat-contexts
p1980
ag387
aVphilsturgeon/codeigniter-unzip
p1981
aVsebastianbergmann/phpOpenTracker
p1982
aVphilsturgeon/codeigniter-cache
p1983
aVphilsturgeon/ee2-widgets
p1984
aVmoodlehq/moodle-block_unanswered_discussions
p1985
aVkamal/geekcamp
p1986
aVnextgen666/customisation-db
p1987
aVweierophinney/Component_ZendCache
p1988
aVmoodlehq/block-spam_deletion
p1989
aVlifesinger/requirejs
p1990
aVsebastianbergmann/phptok
p1991
ag773
aVnecolas/custom-tweet-button-for-wordpress
p1992
aVmoodlehq/moodle-enrol_groupsync
p1993
aVJeffreyWay/Laravel-Guard
p1994
aVphilsturgeon/codeigniter-template
p1995
aVJeffreyWay/Envato-Marketplace-API--Cookbook
p1996
aVphilsturgeon/mojo-inputs
p1997
aVJeffreyWay/Quiz-Preparer
p1998
atp1999
Rp2000
sVPowerShell
p2001
g1
((lp2002
g1785
atp2003
Rp2004
s.