ccollections
defaultdict
p0
(tRp1
Vnecolas/suit-utils-dimension
p2
I0
sVjschairb/jschairb.github.com
p3
F0.001187090771812925
sVvanpelt/merb-core
p4
F0.06533652323080653
sVMarak/natman
p5
F5.5255590810336545e-05
sVmerb/merb_activerecord
p6
F0.003557450702382938
sVezmobius/nanite
p7
F0.02691429496053649
sVnorbauer/sprocket_express
p8
F0.007712666203350384
sVdesandro/dropshado.ws
p9
F0.0005712929799717254
sVezmobius/redis-rb
p10
F0.02318387560143806
sVvim-scripts/256-jungle
p11
F0.0018443171976347877
sVjschairb/glowstone
p12
I0
sVasseym/formhub
p13
I0
sVrobbevan/ruby-ole
p14
F1.0
sVrmurphey/dojo-transformers
p15
F0.00015039695195510704
sVginatrapani/todo.txt-aim-bot
p16
I0
sVsstephenson/eve
p17
F0.03644913837549018
sVguille/emitter
p18
F4.2414382630973276e-05
sVscharfie/janus
p19
F0.007649866349311185
sVjazzyfox/trinketmenu_buttonfacade
p20
F0.01562772354889315
sVcommonsguy/cwac-bus
p21
F0.0003871052292796771
sVNZKoz/cassandra_object
p22
F0.009265540365862806
sVdesandro/3dtransforms
p23
F0.00013423115420448033
sVvim-scripts/accelerated-jk
p24
F0.004779024630357709
sVhassox/dotfiles
p25
F1.0
sVmacournoyer/orange
p26
F0.0009150599903658318
sVup_the_irons/credit_card_tools
p27
F0.00036404012624852063
sVtopfunky/cache.js
p28
F0.0006135537800464007
sVJeffreyWay/Easy-WordPress-Custom-Post-Types
p29
F0.0010037268004349483
sVnathanmarz/kryo
p30
I0
sVlancecarlson/eugene
p31
I0
sVpsi/my-boxen
p32
F0.4416744186046512
sVantirez/otree
p33
F0.004253829422128866
sVkafka399/Rproject
p34
F1.0
sVvim-scripts/accurev
p35
F0.1651450530552734
sVrobbevan/jquery-select-autocomplete
p36
F0.0017788699583219602
sVcommonsguy/cwac-mmcursor
p37
F0.00029986838356015684
sVibdknox/CodeMirror
p38
I0
sVcanadaduane/node-serialport
p39
F0.00047856191036669025
sVscharfie/dotfiles
p40
F0.009164614263817587
sVayende/courses-trondheim-sep-2012
p41
F0.0063957620001292076
sVmislav/developer.dnsimple.com
p42
F0.0004800649415306942
sVfloydprice/helloworld
p43
F0.24838680611870054
sVjwhitmire/donors_choose_gem
p44
I0
sVagentzh/lua-php-utils
p45
F0.0038674394282726164
sVrtomayko/kidgloves
p46
F0.00040594937783980123
sVNZKoz/UnwindSegues
p47
F0.006222171250603111
sVguille/express-trace
p48
F4.0861492339515396e-05
sVcommonsguy/cwac-strictmodeex
p49
F0.012499422240123606
sVlancecarlson/altered_beast
p50
I0
sVmjankowski/rails
p51
I0
sVnathanmarz/kestrel
p52
F1.0
sVded/matador
p53
I0
sVfelixge/berlinjs.org
p54
I0
sVjoehewitt/api.js
p55
F6.185110836691317e-05
sVmacournoyer/faye
p56
F0.0204755212153187
sVmadrobby/jsnes
p57
F0.00235684377949265
sValthjs/althjs.github.com
p58
F0.0015490933893716262
sVhassox/i18n
p59
I0
sVJeffreyWay/My-Vim-Repo
p60
F0.8934595278298741
sVjoehewitt/datetime
p61
F0.0001357840444959382
sVnzakas/fireunit
p62
F0.0013717481986685928
sVrtomayko/rocco
p63
F0.006368222371976846
sVjacobian/chishop
p64
F0.012331763268216526
sVjdhuntington/boardgame-tracker
p65
F0.0009035647742997576
sVrmurphey/dojo-scaffold
p66
F4.088806022420168e-05
sVdanielharan/timestamped_boolean
p67
F0.0001670170470220563
sVjosh/ace
p68
F1.0
sVezmobius/ez-scheme
p69
F0.022544423752603043
sVnathanmarz/cascading.elasticsearch
p70
I0
sVmadrobby/js1k-finals
p71
I0
sVNZKoz/AFNetworking
p72
I0
sVautomatthew/harp
p73
F0.0011159268175193072
sVnecolas/suit-grid-layouts
p74
I0
sVnecolas/grunt-usemin
p75
F0.000507129600896103
sValexvollmer/alexvollmer.com
p76
F0.004901026590676184
sVerica/funpaths
p77
I0
sVjwhitmire/rr
p78
I0
sVnorbauer/dns-tools
p79
F0.000765153821212405
sVsebastianbergmann/php-object-freezer
p80
F0.010925398781318362
sVglassesfactory/deploytest
p81
F0.0005050294247985986
sVnecolas/idiomatic-js
p82
I0
sVasseym/ureport-project
p83
F0.0014960751372180361
sVrobbevan/aquamacs-emacs-starter-kit
p84
F0.00016309527691375428
sVjacobian/django
p85
F0.9175249485548383
sVJakeWharton/AndroidDesignKeynoteTheme
p86
I0
sVhassox/httpi
p87
I0
sVdrnic/bosh-getting-started
p88
F0.001847073677084589
sVsoffes/findi
p89
F0.00010737695821908
sVautomatthew/patchboard
p90
F0.3616791913384474
sVmiyagawa/App-BundleDeps
p91
F0.00846610805540332
sVguille/hummingbird
p92
I0
sVfloydprice/testing
p93
I0
sVleegee/Mootools-Knob
p94
F0.0007085957853021663
sVjnunemaker/crdts
p95
F0.002844125482250874
sVmislav/async-upload
p96
F0.0027485738868659798
sVphilsturgeon/chef-logstash
p97
F0.0038816894388066033
sVsebastianbergmann/php-code-coverage
p98
F0.020369017838578644
sVdrnic/bosh-solo
p99
F0.005244338159191085
sVguille/jackpot
p100
I0
sVvim-scripts/abap.vim--Piedallu-van-Wyk
p101
F0.005159103512302717
sVjwhitmire/fbootstrapp
p102
I0
sVmadrobby/jslogocrazyness
p103
I0
sVerica/uicolor-utilities
p104
F0.09783579184285848
sVcowboy/benalman.com-OLD
p105
F7.663769559271817e-05
sVded/Kizzy
p106
F0.0002315854301689553
sVdanielharan/bort
p107
F0.011847795021602483
sVrobbevan/ruby-spreadsheet
p108
F0.03190372775353392
sVnecolas/newsriver-ui
p109
F0.0008324771816850071
sVhenrik/henrik.nyh.se
p110
F0.0009070005189059702
sVsebastianbergmann/php-project-wizard
p111
F0.003937638364791709
sVelbowdonkey/screw-unit
p112
F0.0017477012317576985
sVfelixge/commander.js
p113
F0.0002550664965540767
sVnathanmarz/elephantdb-cascading
p114
F0.00816621041520914
sVlifo/journey_demo
p115
F0.0017862268592425709
sVantirez/recidiv
p116
F0.037040166275198974
sVvanpelt/evercookie
p117
F0.0012948290787980073
sVrmurphey/2012.jsconf.eu
p118
I0
sVhede/first_app
p119
F0.0014445052693444363
sVkafka399/hadoop-snappy
p120
I0
sVmacournoyer/meshu
p121
F0.002264959463958354
sVxhr/taggart
p122
I0
sVDmitryBaranovskiy/optimus
p123
I0
sVxhr/certified
p124
I0
sVantirez/redis-doc
p125
F0.0008897656491687275
sVmoodlehq/block-spam_deletion
p126
F0.004653488822402187
sVkoush/android_vendor_google_passion
p127
F0.0043861821620469026
sVleah/getwelltermie
p128
I0
sVmadrobby/EventSource
p129
I0
sVcommonsguy/cwac-adapter
p130
F0.012499422240123606
sVNZKoz/delayed_job
p131
F0.008742666655920705
sVup_the_irons/ram
p132
F0.03570321058344994
sVmdo/sublime-snippets
p133
I0
sVJeffreyWay/Laravel-Guard
p134
F0.0022603823086929974
sVjdhuntington/showdown
p135
F0.0009914777892746644
sVdesandro/FitText.js
p136
F1.2824143450885705e-05
sVmadrobby/exploder
p137
I0
sVfloydprice/feck
p138
I0
sVcloudwu/mread
p139
F0.001991736562422329
sVAlexanderFlatscher/FileServer
p140
F0.00017255245557674004
sVtteofili/btl
p141
F0.0002052183916186439
sVnathanmarz/elephantdb
p142
F0.10509709664811596
sVgarybernhardt/expecter
p143
F0.0025727362188225334
sVdrnic/bosh
p144
F0.43382287389592994
sVguille/latency-io
p145
F0.00010350611058063506
sVibdknox/gambit
p146
F0.00782899874134727
sVzybl880506/email
p147
F0.0023811132022078805
sVakitaonrails/cramp_chat_demo
p148
F0.0021921860452831683
sVjwhitmire/disco-tmbundle
p149
I0
sVzybl880506/rsa
p150
F0.7516750771628806
sVglassesfactory/GFTweet
p151
F0.08257136752695768
sVsstephenson/gosh
p152
F5.4804405927059306e-05
sVjacobian/django-pjax
p153
F0.000967194913119526
sVmislav/fakefs
p154
F0.00766641723635764
sVnathanmarz/kafka-deploy
p155
F0.018826162100495578
sVMarak/ospriet
p156
F0.0006820004059698904
sVxhr/tmux-powerline
p157
I0
sVhenrik/CamelCaseMotion
p158
F0.013104932925423538
sVjdhuntington/ruby-function-overloading
p159
F0.0003702397196791834
sVnorbauer/mlb-gameday-api
p160
F0.0018720292323229442
sVxhr/bxslider
p161
I0
sVmmower/mulchworks
p162
F1.1733095542597003e-05
sVrmurphey/complexityReport.js
p163
I0
sVautomatthew/functor
p164
F0.0017197672176658655
sVfelixge/felixge.de
p165
F0.5094160253508375
sVentryway/pebbles_audio_files
p166
F0.00044178302786903234
sVginatrapani/isosceles
p167
F0.1663551974698834
sVakitaonrails/cookbooks
p168
F0.04590240971997057
sVrobbevan/electro
p169
F0.0035279406376529827
sVup_the_irons/Ruby-Radius
p170
F0.005341941675464923
sVmoodlehq/moodle-filter_geshi
p171
F0.05676425300889537
sVginatrapani/todo.txt-touch-ios
p172
F0.3948800701019049
sVpkrumins/browserify-website
p173
F0.00010936784481267663
sVguille/jsconf-todo-demo
p174
F0.00018141512844493138
sVcowboy/embedly-jquery
p175
I0
sVibdknox/clojure
p176
I0
sVasseym/rapidsms-uganda-common
p177
F0.0065400691740681955
sVtjogin/local-copy
p178
F0.0003065078992119697
sVmoodlehq/moodle-local_codechecker
p179
F0.16988214351741723
sVginatrapani/narrowthegapp
p180
F0.0006285965820905737
sVrbazinet/iOS-ClearStyle
p181
I0
sVantirez/lamernews
p182
F0.011661559234945372
sVcowboy/enterprise-js
p183
I0
sVhenrik/go_to_param
p184
F0.0004926196940004675
sVjsierles/dropbox-api
p185
F0.004128557249215597
sVJakeWharton/NotificationCompat2
p186
I0
sVantirez/redis-rb-cluster
p187
F0.0017497732498702736
sVnextgen666/documentation
p188
I0
sVkoush/android_packages_apps_Superuser
p189
F0.0010016073926819265
sVcloudwu/atomdict
p190
F0.006552858636918249
sVkamal/friendly_id
p191
F0.010836889316798605
sVJakeWharton/adjacent-fragment-pager-sample
p192
F0.0001883402462025
sVelbowdonkey/gcode_to_canvas
p193
F0.000668817903220976
sVrobbevan/emacs-starter-kit
p194
I0
sVlancecarlson/dm-mongo-adapter
p195
F0.006655759515290988
sVmislav/albino
p196
F0.0020369384175785753
sVjazzyfox/vimfiles
p197
F0.014869807405930476
sVscharfie/article-slate-plugin
p198
F0.0007764370812562112
sVmislav/git-deploy
p199
F0.0014177230257239732
sVkoush/android_device_htc_ace
p200
F0.15512936027802807
sVkoush/android_build
p201
F0.03324605469196643
sVjdhuntington/fieldmarshal
p202
F0.00034556533782514545
sVglassesfactory/gae-spreadsheet-example
p203
F0.0003466241162406955
sVmislav/bundler
p204
F0.003505250125696757
sVvanpelt/lyndon
p205
I0
sVautomatthew/djinn
p206
F0.09536066367741029
sVnzakas/yuitest
p207
F0.012069098465445637
sVrtomayko/distributed-management-talk
p208
I0
sVJeffreyWay/Laravel-Testing-Decoded
p209
I0
sVnecolas/suit
p210
I0
sVvanpelt/CardMaven
p211
F0.023947452242853284
sVsstephenson/mdtoc
p212
F0.0002676984443360205
sVnathanmarz/clojars-web
p213
F0.029181404441930927
sVautomatthew/autocode
p214
F0.001285175718176402
sVrobbevan/scout-plugins
p215
F0.00011010477932857163
sVrobbyrussell/brightcove
p216
I0
sVjnunemaker/aaws
p217
F0.005759546288954371
sVcanadaduane/getdoc
p218
F0.00024649583480315364
sVnextgen666/bleachnxg
p219
I0
sVkafka399/coursera-loans
p220
I0
sVagentzh/advent.perlchina.org
p221
F0.14900152088409366
sVnextgen666/Google-plus-buttons
p222
I0
sVcreationix/candor.io
p223
F0.001671885392433831
sVrtomayko/rinku
p224
F0.002039503628663595
sValexvollmer/alexvollmer.github.com
p225
I0
sVdanielharan/addressbookimporter
p226
F0.0006469895704239717
sVMarak/node_mailer
p227
F7.375375648001067e-05
sVpsi/peeler
p228
F7.154330818984891e-05
sVcommonsguy/cwac-sacklist
p229
F0.012499422240123606
sVsebastianbergmann/php-file-iterator
p230
F0.0014477537849248805
sVmmower/blueprint-css
p231
I0
sVnextgen666/jQuery-Mobile-Bootstrap-Theme
p232
I0
sVcommonsguy/cwac-custmenu
p233
F0.0005222627702199355
sVnathanmarz/storm
p234
F1.0
sVhassox/haml
p235
F0.08588271981123478
sVkafka399/fitparse
p236
F0.16370174626093117
sVcreationix/bench-suite
p237
F0.011433458253442564
sVrmurphey/gaucho
p238
I0
sVagentzh/lua-resty-upload
p239
F0.029768389402126547
sVagentzh/lua-resty-string
p240
F0.10313534948579396
sVagentzh/lua-resty-memcached
p241
F0.07341053686595782
sVGreenRover/jquery-ui
p242
F0.006457387111915011
sVjnunemaker/dotfiles
p243
F0.00010950889173090537
sVatep/moment-isocalendar
p244
I0
sVglassesfactory/study-modan-dev
p245
F0.024911337822425675
sVsoffes/any
p246
F9.547373883220738e-05
sVatep/morris.js
p247
I0
sVsebastianbergmann/phpunit
p248
F0.10663675558753158
sVmislav/choices
p249
F0.000435831418175596
sVsstephenson/37signalsMenu
p250
F0.005413484983654773
sVjwhitmire/ruby-tmbundle
p251
F0.00872034811957032
sVmadrobby/eyeballs.js
p252
I0
sVweierophinney/Component_ZendEscaper
p253
F0.001054573689162216
sVmiyagawa/Acme-YakiniQ
p254
F0.0012116449979200645
sVjacobian/fumblerooski
p255
F0.018464681297631985
sVcowboy/comment.aculo.us
p256
F3.5451973412129144e-05
sVcowboy/javascript-hooker
p257
F0.00029526246448296725
sVhassox/foreman
p258
F0.0029511304648641144
sValexvollmer/chikken_in_a_bukket
p259
F0.011633041105164324
sVmerb/merb-core
p260
F0.12525993345356412
sVmadrobby/Evidence
p261
F0.00032678101798101907
sVsoffes/houston
p262
F0.0010256607371688564
sVtopfunky/geddy-coffee-script-demo
p263
F0.002655959504429203
sVmadrobby/blink
p264
I0
sVasseym/RapidFTR-chef-repo
p265
I0
sVglassesfactory/oyakata
p266
F0.00012375414731086176
sVscharfie/backbone.bootstrap-modal
p267
F6.605756393663149e-05
sVMarak/npmtop
p268
F2.8796729305881078e-05
sVnzakas/tinyjs
p269
I0
sVakitaonrails/cells_demo
p270
F0.007654885992576607
sVroland/ShowTracker
p271
F0.0006566922342991052
sVnathanmarz/carbonite
p272
F0.014136075879939642
sVmmower/homebrew
p273
F0.3038824953859526
sVcowboy/gaucho
p274
F0.002544189152075407
sVjacobian/django-faq
p275
I0
sVphilsturgeon/mojo-inputs
p276
F0.0002432509012073371
sVcanadaduane/BraveZealot
p277
F0.013299863794932329
sVkoush/android_external_yaffs2
p278
F0.04197489006290508
sVasseym/rapidsms-contact
p279
F0.005233900401087191
sVjwhitmire/rspec_validation_expectations
p280
F0.000997762566730874
sVsoffes/cloudapp.uploader
p281
F0.019741696342452823
sVtopfunky/demo-mocha-watch-bug
p282
F3.156974768348444e-06
sVmmower/lmswitch
p283
F0.0018618578527976476
sVpsi/chef-xcode-command-line-tools
p284
F9.324188519716878e-05
sVezmobius/nats
p285
F0.006131025927319686
sVded/script.js
p286
F9.579285330877831e-05
sVNZKoz/rails
p287
F0.6959290369737553
sVezmobius/vmc
p288
F0.013135202593413924
sVglassesfactory/hagedown
p289
F0.0047924445763744584
sVjdhuntington/memory-address-218
p290
F0.00247996136413374
sVtteofili/m2s
p291
F0.0009292246411656643
sVMarak/machine.js
p292
F0.00010987125430276462
sVdrnic/bosh-sample-release
p293
F0.0012277084517753772
sVvanpelt/chris-snez
p294
I0
sVmmower/godo
p295
F0.0015470465446875993
sVsstephenson/hork
p296
F0.00044959451559166755
sVpsi/doorman
p297
F0.0007942919103365202
sVweierophinney/argumentrewrap
p298
F0.003670720841407413
sVcowboy/javascript-packify
p299
F0.0001283096934227673
sValthjs/node
p300
F7.670595450662841e-06
sVgarybernhardt/destroy-all-software-extras
p301
F0.009193547382128815
sVkafka399/TwsMongo
p302
F0.009027004285350389
sVatep/este
p303
I0
sVasseym/rapidsms-generic
p304
F0.006118967561900418
sVdesandro/infinite-scroll
p305
F0.0016087433298982241
sValthjs/idea-markdown
p306
I0
sVweierophinney/Component_ZendLog
p307
F0.009602073938596162
sVjnunemaker/flipper-cassanity
p308
F0.001387716993519565
sVmmower/jscocoa
p309
F0.16459656685238952
sVfelixge/cakephp-browscap
p310
F3.364189918813188e-05
sVvanpelt/cube
p311
I0
sVcommonsguy/cw-andtutorials
p312
F0.01614589866030548
sVrmurphey/idiomatic.js
p313
I0
sValthjs/bs
p314
F0.011194235166978107
sVnathanmarz/cascading-batch-query
p315
F0.0025527367581848247
sVmathiasbynens/browser-diet
p316
F0.014463261830737262
sVsstephenson/everyjs.com
p317
F1.659544844442628e-05
sVhassox/dm-polymorphic
p318
F0.0011963975402493104
sVnecolas/event
p319
F6.518726278427597e-06
sVrtomayko/bert
p320
I0
sVantirez/Gitan
p321
F0.000258275062321413
sVphilsturgeon/ee2-rest
p322
F0.003233769953467416
sVkafka399/compfinance
p323
F0.1222655079412646
sVhenrik/bookmarks_bar_keyboard_shortcuts
p324
F1.3600588596614646e-05
sVagentzh/cheater
p325
F0.25424405897772817
sVrbazinet/cheddarkit
p326
I0
sVjoehewitt/devon
p327
F0.037274186651180145
sVjosh/bower
p328
F0.0004240670350315838
sVrichhickey/sdb
p329
F0.014214081471965522
sVkamal/cucumber
p330
F0.03090782506483225
sVdanielharan/danielharan.com
p331
F8.344652757672153e-05
sVdanielharan/support
p332
F0.00031717119991270975
sVpkrumins/immutable-hash
p333
I0
sVjwhitmire/lazy_developer
p334
I0
sVsebastianbergmann/diff
p335
F0.0012879163597867473
sVMarak/JSLINQ
p336
F0.0003234363311994174
sVhassox/google-spreadsheet-ruby
p337
F0.004312437190369056
sVantirez/nolate
p338
F0.0006885268464094126
sVguille/api.js
p339
I0
sVvanpelt/fancy-zoom
p340
F0.0003387177955510717
sVrmurphey/dojo-sandbox
p341
F0.0002879941633182901
sVdanielharan/isochrones
p342
F0.001045251452409751
sVjosh/dotjs
p343
F1.9880408676356415e-06
sVstepbystep55/nardove
p344
F1.0
sVmiyagawa/Catalyst-Engine-PSGI
p345
F0.32183095956561264
sVmmower/diffly
p346
F0.04443326453658062
sVmdo/inca
p347
F6.9709415830829146e-06
sVjdhuntington/pindah
p348
F0.0009107202749643679
sVmathiasbynens/custom.keylayout
p349
I0
sVNZKoz/rails_xss
p350
F0.00039479010966460824
sVtopfunky/ember-tunes-noodling
p351
F0.0006874781838111869
sVdesandro/lazyweb-requests
p352
I0
sVmathiasbynens/istanbul
p353
F0.0027944431442069382
sVnathanmarz/jzmq
p354
F0.002073993127616319
sVkafka399/Java
p355
F0.0005739893217600001
sVentryway/entryway.github.com
p356
F0.00039616620397077456
sVrtomayko/ipadsforautism.info
p357
I0
sVjwhitmire/jwhitmire.github.com
p358
I0
sVcanadaduane/Printrun
p359
F0.033738193151197984
sVzybl880506/libnids-1.24
p360
F0.009372322207845013
sVmislav/eventmachine
p361
F0.05329294504866371
sVnzakas/nui
p362
F0.003661962745820613
sVasseym/RapidFTR
p363
I0
sVmmower/LRResty
p364
F0.07771419765171163
sVJakeWharton/abs.io
p365
F1.7380425954394e-05
sVJoachimReiss/robotium
p366
I0
sVmdo/preboot
p367
I0
sVrobbyrussell/masochism
p368
F0.00020185876210238133
sVguille/define.js
p369
F1.3284891119779802e-05
sVakitaonrails/enki
p370
F0.017524762726060426
sVmdo/github-buttons
p371
I0
sVNZKoz/sprockets
p372
F0.018978567385550857
sVdanielharan/spree
p373
I0
sVcanadaduane/Adafruit-ST7735-Library
p374
F0.0018675171486921588
sVdanielharan/pc_scraper
p375
F0.0005619311485552778
sVjschairb/old.jschairb.github.com
p376
I0
sVmathiasbynens/GetCountries
p377
F0.0005061483790086434
sVNZKoz/thinking-sphinx
p378
F0.0884681982555584
sVdanahern/vimeo
p379
F0.0029159167741779493
sVhornbeck/rubyzilla
p380
I0
sVcreationix/continuable
p381
F5.6654898545496394e-05
sVguille/jsconfus
p382
I0
sVjazzyfox/DataTables
p383
F0.016026024052222844
sVrobbevan/omnifocus.el
p384
F1.4530585319772656e-05
sVvanpelt/merb-more
p385
F0.018672555453813338
sVginatrapani/GitHub-Pull-Request-Email-Bot
p386
F0.0019996959939794826
sVkoush/android_frameworks_base
p387
F1.0
sVmdo/ratchet
p388
F0.00046800871086129865
sVsebastianbergmann/phpcov
p389
F0.0018155872443129254
sVmislav/fakeweb
p390
F0.0045121880907050115
sVmerb/internals
p391
I0
sVrbazinet/rails_upgrade_guide
p392
I0
sVjschairb/encoding-dot-com
p393
I0
sVkoush/android_vendor_dell_streak
p394
I0
sVmmower/passport_control
p395
F0.00021909363183962398
sVscharfie/harvest-wordpress-theme
p396
F0.0022706745792208734
sVtopfunky/bigapp
p397
F0.0014427693831838507
sVjdhuntington/rack-client
p398
F0.008449053911044514
sVagentzh/chunkin-nginx-module
p399
F0.20036306625959235
sVmdo/userstyles
p400
I0
sVibdknox/.scripts
p401
F0.0001166198587264187
sVsoffes/discover
p402
F0.000810162869519017
sVJakeWharton/apibuilder
p403
F0.0007749385354204429
sVphilsturgeon/codeigniter-unzip
p404
F0.00159176876432613
sVpsi/chef-percona
p405
F0.002131420221461877
sVsebastianbergmann/phpOpenTracker
p406
F0.00021636810505243722
sVtopfunky/geddy
p407
F0.003689257779020469
sVhenrik/delpin
p408
F0.0002908849237666994
sVpkrumins/browser-badge-cached
p409
F2.511928031896708e-05
sVakitaonrails/enki-translator
p410
I0
sVtteofili/sedtum
p411
F0.0006188653319252768
sVvanpelt/sigmod
p412
F0.0028082997037307163
sVjdhuntington/simple_todo
p413
I0
sVjoehewitt/transformjs
p414
F0.00010962381573984002
sVguille/chromekit
p415
F0.00021001561337332053
sVdanahern/google_weather_api_test
p416
F0.00036329617503684107
sVscharfie/acts_as_lookup
p417
F0.0011625477601178915
sVtteofili/le11-nls
p418
F0.004100231032025784
sVNZKoz/rake
p419
F0.03217861772624951
sVlifesinger/requirejs
p420
F0.3060282212521715
sVakitaonrails/dry_scaffold
p421
F0.007474973791218772
sVpsi/runit
p422
F0.0078121076819782165
sVmmower/MAFuture
p423
F0.013348391862838956
sVjoehewitt/markdom
p424
F0.009929987254757834
sVphilsturgeon/fuelphp-casset
p425
I0
sVup_the_irons/ebay4r
p426
F0.4589571415906545
sVnecolas/suit-button
p427
I0
sVakitaonrails/call4paperz
p428
F0.009807136847965511
sVlifo/snoop
p429
F0.0003818949553288295
sValexvollmer/yajl-rails
p430
F0.000448850564379988
sVtopfunky/demo-vows-callbacks
p431
F0.0042964050806943
sVcreationix/candor.js
p432
F0.00042317113678651193
sVhenrik/annotate_models
p433
F0.005708337647217096
sVglassesfactory/techlab3-template
p434
F0.04528020372771728
sVMarak/JSONloops
p435
F0.0001475331100527377
sVjschairb/build_tester
p436
F7.005540576648985e-05
sVakitaonrails/Command-T
p437
F0.011299254994857436
sVmiyagawa/catalyst-view-json
p438
F0.02381691284739876
sValexvollmer/janus
p439
F4.942122061881768e-05
sVfelixge/buster-docs
p440
F0.00015786346730039605
sVmacournoyer/mysql_s3_backup
p441
F0.0009283271203074503
sVscharfie/harvest-slate-theme
p442
I0
sVnzakas/computer-science-in-javascript
p443
F0.0004889215356105474
sVnzakas/parser-lib
p444
F0.01310517393181839
sVweierophinney/Component_ZendForm
p445
F0.029246408400827713
sVcloudwu/lua-snapshot
p446
F0.0009151124280983091
sVphilsturgeon/codeigniter-oauth
p447
F0.003910064296735683
sVjsierles/integrity
p448
F0.011935705256449282
sVgarybernhardt/blocks
p449
F0.0006341837530830252
sVmiyagawa/AnyEvent-Atom-Stream
p450
F0.005066678992210696
sVjosh/dom-prof
p451
F0.03810130142015717
sVJakeWharton/heroku-java
p452
F0.004258190616479225
sVphilsturgeon/gulliver
p453
F0.00016763700636512256
sVrbazinet/downforeveryoneorjustme
p454
I0
sVrichhickey/clojure
p455
F0.6588717953718307
sVgarybernhardt/python-mock-comparison
p456
F0.000801701867033819
sVmerb/merb_parts
p457
F0.0014513248221181656
sVlukas/mailfactory
p458
F0.0025449331032870864
sVcommonsguy/cwac-endless
p459
F0.012499422240123606
sVxhr/iTerm-2-Color-Themes
p460
I0
sVjnunemaker/github-twitter
p461
F0.00026683050125572764
sVcloudwu/lua-stable
p462
F0.06966838068677009
sVdesandro/blahble
p463
I0
sVhassox/babushka-deps
p464
F0.0002502155908615513
sVcloudwu/coroutine
p465
F0.00044853363494571464
sVcreationix/dombuilder
p466
F2.9692627550952928e-05
sVrmurphey/ffconf-mulberry-demo
p467
F0.02968579132766682
sVJeffreyWay/CodeCanyon-Comp-Landing-Page
p468
F0.00015635557467563575
sVjoehewitt/app.js
p469
F0.0010112302124874392
sVcanadaduane/Hipchat
p470
F2.2184147020826904e-07
sVhenrik/git-grep-vim
p471
F0.0009003507941156312
sVglassesfactory/skypit
p472
F0.00032108576038654494
sVagentzh/makefile-parser-pm
p473
F0.32628906482135667
sVakitaonrails/chef-debian
p474
F2.5914300540170576e-05
sVpkrumins/catonmat.net
p475
F0.02696490366133395
sVhornbeck/zendeskR
p476
F0.249298498923911
sVmdo/Redditate
p477
F0.00052826426711556
sVvim-scripts/2tex.vim
p478
F0.008776083692123644
sVvim-scripts/ack.vim
p479
F0.001029639921990367
sVsebastianbergmann/hphpa
p480
F0.002836979882221094
sVlancecarlson/funfx
p481
I0
sVjvantuyl/pyrowl
p482
F0.0006134830593510264
sVweierophinney/Component_ZendCache
p483
F0.03399129873015656
sVJakeWharton/ActionBarSherlock-Plugin-Maps
p484
F0.00046074027545795203
sVasseym/RapidFTR---BlackBerry-Edition
p485
I0
sVjacobian/django-shorturls
p486
F0.0017322205510412168
sVrobbyrussell/hoodwinkd
p487
I0
sVrmurphey/ember.js
p488
I0
sVjnunemaker/canable
p489
F0.0013145617910377437
sVjnunemaker/gemwhois
p490
F0.00046868926335810903
sVayende/NewYork-Course-RavenDB-Nov-2011
p491
F0.01637467351974786
sVjsierles/git-deploy
p492
I0
sVlancecarlson/machinist
p493
F0.004617829162763506
sVkamal/webrat
p494
F0.032022635955534035
sVdrnic/celerity
p495
F0.016228675723446058
sVgarybernhardt/pycomplexity
p496
F0.00808991669418604
sVdanielharan/presenter_test
p497
F0.0051439266612895536
sVjvantuyl/erlctl
p498
F0.20671205494687167
sVguille/CSS3-Overlay
p499
I0
sVautomatthew/flipper
p500
F0.0020727720676078066
sVcdcarter/bootstrap
p501
F0.0016337685720772747
sVmislav/faraday-stack
p502
F0.002547908908133805
sVayende/courses-nhibernate-fleet-street-nov-2012
p503
F0.010334144262158734
sVayende/NHibernate-Course
p504
F0.0007132355279276813
sVdaikini/sstoolkit
p505
F0.09265699569792567
sVcommonsguy/cwac-thumbnail
p506
F0.0005409942021915775
sVkoush/android_device_kyocera_m6000
p507
I0
sVJakeWharton/DocBrown
p508
F0.0003412363870310978
sVibdknox/blind
p509
F0.026980996700200946
sVrtomayko/git-sh
p510
F0.021467653811104985
sVsstephenson/eco
p511
F0.10710547283890824
sVpsi/svdir-camper_van
p512
F0.00034870450991166153
sVsoffes/hire.samsoff.es
p513
F0.00013961484405852664
sVmadrobby/freckle-cmd
p514
F0.0012237997432128403
sVjwhitmire/rspec-tmbundle
p515
I0
sVmacournoyer/rails
p516
I0
sVjschairb/acts_as_list
p517
I0
sVgarybernhardt/dotfiles
p518
F1.0
sVmiyagawa/coveralls-perl
p519
I0
sVvim-scripts/abc-vim
p520
F0.0758265157981968
sVcowboy/dotfiles
p521
F0.019807954114352173
sVcommonsguy/andglobe
p522
F5.8152186379617226e-05
sVjacobian/geocoders
p523
F0.000610220450012831
sVagentzh/dns-nginx-module
p524
F0.0011650396285647056
sVdrnic/cf-release
p525
F0.023887515879678172
sVphilsturgeon/fuel-oauth-provider
p526
F0.0012016609881240255
sVmoodlehq/moodle-local_phpmyadmin
p527
F1.0
sVsstephenson/hector
p528
F0.010529513474506341
sVmacournoyer/rack
p529
F0.030805531773226313
sVcowboy/javascript-htmlslice
p530
F0.0001773025288818396
sVdanielharan/confidence
p531
F0.00044017113357706006
sVnathanmarz/focus
p532
I0
sVfelixge/faster-than-c
p533
F0.11869670635028742
sVAlexanderFlatscher/sbicktRails
p534
F0.006580000483568288
sVsebastianbergmann/academic-papers
p535
I0
sVhassox/gabber-client
p536
F0.00014105704559550398
sVjacobian/django-dev-dashboard
p537
F0.007448312111559639
sVmathiasbynens/homebrew
p538
F0.31577058776485445
sVcreationix/boxcode
p539
F0.03902525076405188
sVguille/brevity
p540
I0
sVrtomayko/diveintomark
p541
I0
sVcommonsguy/cw-andtuning
p542
F0.07943460039670504
sVcreationix/do
p543
F7.248243420843252e-05
sVdanielharan/ruby-aaws
p544
F0.015101217662145717
sVrbazinet/NewsBlur
p545
I0
sVphilsturgeon/codeigniter-cache
p546
F0.0007767591928985792
sVcanadaduane/peslyak-psoriasis-paper
p547
I0
sVcowboy/github-markdown-anchors
p548
I0
sVmislav/faraday
p549
F0.008810490208052156
sVrmurphey/grunt-mocha
p550
F0.001844697148424145
sVcanadaduane/alfred2-dropbox
p551
F0.1931392819258913
sVlifo/Websocket-Bomberman
p552
I0
sVmmower/Hexdump
p553
F9.402665391135093e-06
sVscharfie/blog-slate-plugin
p554
F0.000770981439037228
sVmacournoyer/em-spec
p555
F0.0007810247803949018
sVguille/Cube5
p556
I0
sVvanpelt/merb-plugins
p557
F0.02295015092910207
sVmoodlehq/moodle-local_ci
p558
F0.029449358715218928
sVayende/CourseSampleApp
p559
F0.007479325441522119
sVmezelve/AppropriatingNewTechnologies
p560
I0
sVkoush/android_device_motorola_backflip
p561
F0.00026991482717107274
sVkafka399/d3-tsline
p562
I0
sVantirez/redis-tools
p563
F0.01008308908999324
sVfelixge/codesurgeon
p564
F0.00023994714712295928
sVMarak/hellonode
p565
F4.581879596224633e-06
sVasseym/rapidsms-httprouter
p566
F0.013618131377627792
sVrbazinet/cheddar-ios
p567
I0
sVakitaonrails/dynamic_liquid_templates
p568
F0.00292658007487869
sVjsierles/marginalia
p569
F0.0011645316300157036
sVvim-scripts/acomment
p570
F0.03855386216221268
sVjosh/backbone
p571
F0.00340587748215039
sVscharfie/format_fallback
p572
F7.489108864240682e-05
sVibdknox/aichallenge
p573
F1.0
sVsoffes/blog
p574
I0
sVjwhitmire/heroku-rails
p575
F0.0033123187781345298
sVcommonsguy/cw-advandroid
p576
F0.014607108214394808
sVjvantuyl/minecraft_stuff
p577
F0.0008838296193401182
sVjsierles/broach
p578
F0.00290413754665969
sVgspederson/enki
p579
I0
sVrtomayko/mongrel_proctitle
p580
F0.0009639127865994549
sVmadrobby/mail
p581
I0
sVjnunemaker/flipper-ui
p582
F0.1282281625447217
sVmmower/alonetone
p583
F0.03029431329893386
sVpsi/mongrel_proctitle
p584
F0.0003795391098251777
sVkamal/ancestry
p585
F0.0062522899748234505
sVlancecarlson/hamr
p586
I0
sVdrnic/bootstrap-cf-plugin
p587
F0.002730672922469744
sVakitaonrails/disqus
p588
F0.005123220019231139
sVjdhuntington/game-checker
p589
F0.006162643853816067
sVleah/django-flash-status
p590
F8.53903616444946e-05
sVscharfie/easy_search
p591
F0.0025211266645133413
sVjacobian/django-tastypie
p592
F0.057003635334329145
sVrmurphey/github-viewer
p593
F0.002374992118228534
sVjacobian/django-debug-toolbar
p594
F0.001554577097764989
sVrobbevan/annotate_models
p595
F0.0027155459144989273
sVpkrumins/hwnd-finder
p596
F0.0001430706360239142
sVnextgen666/ResponsiveSlides.js
p597
I0
sVtopfunky/backbone-couchdb
p598
F0.0011516899925862287
sVayende/HibernatingRhinos.PhoneBook
p599
F0.0007824234836452339
sVautomatthew/ruby2java
p600
F0.0022856661060167674
sVrobbevan/snipmate-snippets
p601
I0
sVnextgen666/Font-Awesome
p602
I0
sVtopfunky/good_form_builder
p603
F0.000425168117474856
sVantirez/redis-io
p604
F0.003671895197112973
sVvanpelt/instimage
p605
F0.000838441304287914
sVjdhuntington/learning
p606
F0.12911613087455098
sVautomatthew/filebase
p607
F0.001976802361301146
sVweierophinney/Component_ZendDebug
p608
F0.00023249778274537716
sVroland/Carousel
p609
I0
sVpsi/dotfiles
p610
F0.001672854985694512
sVfelixge/depmake
p611
F0.0016788993076406987
sVhenrik/blocket_se_feeds
p612
F0.001101295777022943
sVsoffes/hue
p613
F0.0017522530872425388
sVglassesfactory/Tween24
p614
F0.9876690168787963
sVup_the_irons/pony
p615
I0
sVguille/jade
p616
F0.0015881716175852366
sVrobbevan/frank
p617
I0
sVantirez/redis-sampler
p618
F0.001081457078044822
sVvim-scripts/a-new-txt2tags-syntax
p619
F0.010364159184512719
sVhassox/db2fog
p620
F0.0014788510169503086
sVpkrumins/defined
p621
F8.600623152689815e-06
sVautomatthew/ascribe
p622
F0.019693158560782412
sVezmobius/heist
p623
I0
sVelbowdonkey/js_state
p624
F0.0007191588522297755
sVgarybernhardt/vim-ruby
p625
F0.07349230184494028
sVhenrik/attachment_fu
p626
F0.012382447959062844
sVMarak/node-backbone-request
p627
F2.0375285802205633e-05
sVjacobian/django-storymarket
p628
F0.004669018970498249
sVglassesfactory/glassesfactory
p629
F0.34937058790185793
sVakitaonrails/depot
p630
F0.002273886878498508
sVjschairb/cfb
p631
F0.001836567557899553
sVezmobius/LocheGSplicer
p632
I0
sVlancecarlson/live-search
p633
F0.0005691226769348466
sVnecolas/grunt-release
p634
F2.608343747794917e-05
sVJeffreyWay/ardent
p635
F0.000799110317701653
sVcdcarter/statister
p636
F0.0019661468209989335
sVJeffreyWay/Laravel-Generator
p637
F0.0025823613986396847
sVkafka399/rinkimai
p638
F0.012643061200588484
sVmathiasbynens/Benchmark.js
p639
I0
sVrtomayko/node-bertrpc
p640
F0.0003190677607091623
sVmadrobby/js-animation-course
p641
F2.2201211749304465e-05
sVdanielharan/restful-authentication
p642
F0.017669461236732097
sVdanielharan/our-parliament
p643
F1.0
sVguille/kibi
p644
F3.9137954763281925e-05
sVweierophinney/2013-04-04-RestfulZf2-Webinar
p645
F9.137592589234635e-05
sVginatrapani/todo.txt-web
p646
I0
sVautomatthew/ax
p647
F0.003519146343368694
sVhenrik/henrik.github.com
p648
I0
sVgarybernhardt/prest
p649
F0.0017792471270193443
sVsstephenson/node-matrices
p650
F0.11231584045495024
sVjdhuntington/swagger-ui
p651
F0.08471729654569032
sVkamal/fireeagle
p652
F0.010385806898783578
sVentryway/pebbles
p653
F0.047717030717125575
sVphilsturgeon/codeigniter-restclient
p654
F0.0006320529415962037
sVtopfunky/gruff
p655
F0.02434828323958515
sVguille/mocha
p656
F0.0013128492883282975
sVnathanmarz/elephantdb-cascalog
p657
F0.006790549297502765
sVjosh/emacs-color-theme-solarized
p658
F0.0001040911323039123
sVrobbyrussell/rbot-svnwatch
p659
F0.00024302406248198245
sVmattslack/AVA_home_page_layout
p660
F0.0014769911389211096
sVagentzh/array-var-nginx-module
p661
F0.00759781749831074
sVxhr/xhr.github.com
p662
I0
sVtopfunky/google-checkout
p663
F0.006637656702473451
sVjnunemaker/adapter
p664
F0.002166013952804975
sVjschairb/dot_tmux
p665
I0
sVnzakas/jshint
p666
F0.001824100021151731
sVadam/yard-tmbundle
p667
I0
sVjdhuntington/i18n
p668
F0.016154280602278102
sVjnunemaker/columbus
p669
F0.000884186015081131
sVrmurphey/ffco
p670
F0.0004991912630369701
sVNZKoz/MiniProfiler
p671
F1.0
sVrmurphey/grunt
p672
I0
sVagentzh/lua-resty-mysql
p673
F0.10282486491197489
sVmerb/merb-pre
p674
I0
sVsuperphly/cmb-genesis-base
p675
F0.003214337532246874
sVmadrobby/enterprise-css
p676
F3.899290457122267e-05
sVrtomayko/date-performance
p677
F0.013006871009399205
sVvanpelt/vandev
p678
F0.0015576769477958384
sVroland/HttpBuildQuery
p679
F0.0009621639567264705
sVjosh/emacs.d
p680
F0.0001003147136917814
sVhassox/bcrypt-ruby
p681
F0.0034939710633999648
sVjnunemaker/flipper-redis
p682
F0.0010766213951689048
sVkamal/celerity
p683
F0.04424637432277191
sVyosephaider/Proyecto-Busqueda
p684
I0
sVsebastianbergmann/php-token-stream
p685
F0.006870628233280302
sVDoogiemuc/Dokuwiki-Plugin-InlineEdit
p686
F0.00015860849731390942
sVerica/iOS-6-Advanced-Cookbook
p687
F1.0
sVrobbyrussell/year_after_year
p688
F0.00017408458353301192
sVjnunemaker/adapter-riak
p689
F0.0006451296923947728
sVtopfunky/datamapper.github.com
p690
F0.00025466547543485403
sVDmitryBaranovskiy/raphaeljs.com
p691
F0.0014365515050621237
sVdrnic/bosh-cloudfoundry
p692
F0.014697252154203729
sVakitaonrails/capistrano
p693
F0.05097020537393158
sVkoush/android_device_samsung_galaxy5
p694
I0
sVjschairb/project_w
p695
F0.00206682045791437
sVmathiasbynens/BrowserQuest
p696
F0.00941647075647344
sVagentzh/jitdemo
p697
F1.0
sVhornbeck/Little-Erlanger
p698
F0.006785698182965868
sVjoehewitt/ore
p699
F0.0004928293584319085
sVmmower/crashcity
p700
I0
sVAlexanderFlatscher/bakk1todo
p701
F0.008429370070053269
sVcanadaduane/kopimi-vector
p702
F0.00019789413192709623
sVrobbevan/rails-templates
p703
F0.0029655135216232523
sVkamal/phantomjs-driver
p704
F9.49652139776167e-06
sVpkrumins/awk-cheat-sheet
p705
I0
sValthjs/android
p706
I0
sVcowboy/blog.js
p707
I0
sVerica/Auto-Layout-Demystified
p708
F7.217631500446036e-05
sVjschairb/distribunaut
p709
F0.0031114519509810546
sVmadrobby/madrobby.github.com
p710
I0
sVpsi/hubot
p711
F0.0006438897737086403
sVpsi/puppet-chef
p712
F0.02958139534883721
sVmmower/CocoaAsyncSocket
p713
I0
sVasseym/RapidFTR---Android
p714
I0
sVmiyagawa/Acme-Dzil-Test
p715
F0.0008165672919679272
sVlancecarlson/acts-as-taggable-on
p716
F0.006831332001247358
sVsebastianbergmann/finder-facade
p717
F0.0015563602813906763
sVjvantuyl/exim_ses_transport
p718
F0.0005697190927110944
sVkafka399/hat-trie
p719
I0
sVup_the_irons/dotfiles
p720
F0.003500152654632912
sVMarak/badjitsu
p721
F2.4658532650072978e-06
sVmerb/merb_sequel
p722
F0.0028617323275939564
sVmoodlehq/moodle-theme_mooch
p723
F0.001073929302393744
sVscharfie/jbuilder
p724
F0.004644487414515356
sVrmurphey/dojo-boilerplate
p725
I0
sVglassesfactory/GFSimpleSoundVisualizer
p726
F0.0636650228262718
sVmiyagawa/Corona
p727
F0.007624229378374393
sVmjankowski/money
p728
F0.02360011630437276
sVcanadaduane/Adafruit-GFX-Library
p729
I0
sVrbazinet/railsbp.com
p730
I0
sVdrnic/bosh-client
p731
F0.00014779830738700158
sVdaikini/daikini.github.com
p732
I0
sVsoffes/geminabox
p733
F0.004880567932354996
sVmiyagawa/blib-portable
p734
F0.003900154289399372
sVmadrobby/enterprise-js
p735
I0
sVrobbyrussell/github-services
p736
I0
sVkoush/android_bionic
p737
F0.19062432261929518
sVnathanmarz/cascalog
p738
F0.20665956490755932
sVginatrapani/Smarterware
p739
F0.629712602170947
sValexvollmer/freedomrock
p740
F0.0005655269127450623
sVded/valentine
p741
F0.0003728301877777124
sVrtomayko/posix-spawn
p742
F0.005814226703012816
sVadam/taxnstuff
p743
F8.344652225526427e-06
sVnathanmarz/cascalog-contrib
p744
F0.028451727133188862
sVerica/NSDate-Extensions
p745
F0.005784482337661989
sVayende/Advanced.NHibernate
p746
F0.0015827671194042642
sVrtomayko/bcat
p747
F0.003994522039244667
sVjwhitmire/excelinator
p748
F0.005167609108194685
sVfelixge/chrome-bookmark-bar-shortcuts
p749
F1.9368466822029643e-06
sVmmower/Gen
p750
F0.023525891068771815
sVleah/PullToRefresh
p751
F0.00562813286927258
sVkafka399/githubdata
p752
F0.1339798948429455
sVJakeWharton/myp2p-boxee-app
p753
F0.02263272097906181
sVjsierles/faraday
p754
F0.01712662483594326
sVjwhitmire/sinatra-helpers
p755
F0.00308652958538979
sVnecolas/project-euler
p756
F7.952163470542567e-05
sVantirez/book-examples
p757
F0.0004892719135479096
sVnathanmarz/cascalog-workshop
p758
F0.01930475890990435
sVjazzyfox/leash
p759
I0
sVrobbevan/chanko_sample
p760
F0.0026833002640336214
sVjnunemaker/cassanity
p761
F0.02631305838963081
sVjnunemaker/adapter-redis
p762
F0.0006812113261612303
sVcloudwu/buddy
p763
F0.00040827156062775286
sVantirez/dump1090
p764
F0.009701129148108367
sVxhr/picasso
p765
I0
sVroland/TestServiceStackService
p766
F0.11234575876994636
sVjschairb/libretsy
p767
F0.0031558410399446005
sVmacournoyer/macournoyer.com
p768
F0.00027315408655500373
sVnathanmarz/dfs-datastores-cascading
p769
F0.0008905703787224171
sVvim-scripts/256-grayvim
p770
F0.001628575701120921
sVkamal/chosen
p771
F0.17956239161341728
sVayende/course-jul-25
p772
F0.006977194909231862
sVfelixge/cakephp
p773
F0.4748656225030203
sVNZKoz/janus
p774
F4.942122061881768e-05
sVphilsturgeon/jsonlint
p775
I0
sVjsierles/bitsontherun
p776
F0.001571596934673024
sVmoodlehq/moodlemobile
p777
F0.002687310778824822
sVpkrumins/adns
p778
I0
sVjnunemaker/7langauges7weeks
p779
I0
sVglassesfactory/techlab3-py
p780
F0.045936381958223325
sVvim-scripts/2htmlj
p781
F0.011079922488831289
sVcanadaduane/limescripts
p782
F0.026364303904260474
sVagentzh/echo-nginx-module
p783
F0.09969164130025686
sValexvollmer/itunes-connect
p784
F0.006391656835144751
sVvanpelt/merb_paginate
p785
F0.0026396628909076143
sVnzakas/datauri
p786
I0
sVmjankowski/polepin
p787
F0.0025490248349513242
sVtopfunky/bong
p788
F0.0007432072604678585
sVpkrumins/geom-vec
p789
F0.00022263498008247553
sVcloudwu/guess-word
p790
F0.009793881819766427
sVmadrobby/downtime
p791
F1.615176550400974e-05
sVup_the_irons/cacheable-flash
p792
F0.00018821965655492313
sVdaikini/rubicus
p793
F0.001783871013738919
sVdanielharan/prisoners_dilemma
p794
F0.0005996246766137077
sVerica/iOS-5-Cookbook
p795
F0.948760829664646
sVcowboy/javascript-library-boilerplate
p796
F1.2235410318409914e-05
sVjnunemaker/chinwag
p797
F0.0014979877013128402
sVdanahern/goose
p798
F0.0009539934371103944
sVtopfunky/cascadiajs.github.com
p799
F0.00042753970727676705
sVcommonsguy/cwac-colormixer
p800
F0.012499422240123606
sVmmower/bishop
p801
F0.001321381343811473
sVjoehewitt/dandy
p802
F1.315690565619811e-05
sVrichhickey/rdfm
p803
F0.00968488178496296
sVdanahern/java_game
p804
F0.00016421442657824726
sVkamal/rails
p805
F0.8177609672357686
sVlancecarlson/fog
p806
F0.38114232468634707
sVMarak/nconf
p807
F0.0002172681229762832
sVmoodlehq/moodle-local_phppgadmin
p808
F0.37931694501753876
sVmislav/bats
p809
F0.002006003789434312
sVayende/Effectus
p810
F0.002438824912299045
sVjsierles/memcache-client
p811
F0.0005704865874895925
sVJeffreyWay/Envato-Marketplace-API-Wrapper-in-PHP
p812
F0.0010250794213808403
sVdrnic/cf-docs-contrib
p813
I0
sVnathanmarz/formula-inverse
p814
F0.04252266617928366
sVJeffreyWay/Compress-and-Concatenate-Stylesheets-with-PHP
p815
F0.0004180658842032004
sVjsierles/kayak
p816
F0.001790566574644035
sVkoush/android_device_elocity_a7
p817
F1.7066320789232006e-05
sVsebastianbergmann/bytekit-cli
p818
F0.005583787185339751
sVtjogin/static-skeleton
p819
F0.005659537238114581
sVkamal/tender_multipass
p820
F0.0005238656448910081
sVjosh/albino
p821
F0.0016380565762497295
sVsebastianbergmann/pear.phpqatools.org
p822
I0
sVDoogiemuc/gwt-comp-tagging
p823
F0.0013420442214028782
sVweierophinney/avalanche
p824
F0.00016555346332504015
sVelbowdonkey/flightcontrol
p825
F0.0002849759023106181
sVmislav/gorgeous
p826
F0.0036943617239034118
sVJeffreyWay/docs
p827
I0
sVweierophinney/Component_ZendFile
p828
F0.005840786716580595
sVup_the_irons/yubikey-cli-tools
p829
I0
sVjosh/datomic-free
p830
F0.000351640939387195
sVadam/dm-exampleapp
p831
F0.00039466611779599497
sVhassox/chain
p832
F0.00013843760977419863
sVjvantuyl/pystache
p833
F0.0030920536224470223
sVjsierles/bits_on_the_run
p834
F0.002683432020528094
sVkafka399/kafka399.github.com
p835
I0
sVnecolas/css3-facebook-buttons
p836
I0
sVjosh/connect
p837
F0.0017425988779429084
sVrmurphey/johnny-five
p838
F0.002082118715732425
sVJeffreyWay/jquery.styleWords
p839
F0.0004245704445216718
sVasseym/rapidsms-maintenance
p840
I0
sVfelixge/connect
p841
I0
sVagentzh/dodo
p842
F0.01005192135422513
sVmadrobby/acornkittens
p843
F0.0013055541169041407
sVjvantuyl/gunicorn-init
p844
F0.001787341554322277
sVginatrapani/todo.txt-touch
p845
F0.06412662712768052
sVmerb/merb-gen
p846
F0.025760302639352913
sVfloydprice/gemtastic
p847
I0
sVdanielharan/postal_code_to_edid_webservice
p848
F0.003264457916849813
sVtopfunky/calendar_helper
p849
F0.0024162295436665265
sVmislav/coral
p850
F0.008181167528338093
sVscharfie/bones
p851
F0.004376788970179336
sVjosh/gem_stub
p852
F0.00018226804686148683
sVup_the_irons/billing-system-models
p853
F0.0069408168212328645
sVdrnic/blue-ridge
p854
F0.003855031187054753
sVgarybernhardt/LuaSpec
p855
F0.06392169252222415
sVrobbyrussell/rubyurl
p856
F0.005048576914325959
sVjacobian/djangobench
p857
F0.013244956371600402
sVJakeWharton/DiskLruCache
p858
I0
sVnzakas/yui-misc
p859
I0
sVakitaonrails/locarails
p860
F0.002069300295286635
sVdrnic/build-change-trigger-plugin
p861
F0.0005897053271246472
sVibdknox/clj-record
p862
F0.04738514692272003
sVayende/courses-ravendb-stockholm-march-2013
p863
F0.006589572969830091
sVleah/suggestorama
p864
F0.002679712264469696
sVjazzyfox/rbot-plugins
p865
F0.0020883950430530766
sVweierophinney/Component_ZendDom
p866
F0.0013704081399877831
sVgarybernhardt/explicit_import
p867
F0.00033986171186893566
sVxhr/devise
p868
I0
sVsebastianbergmann/php-text-template
p869
F0.0006440349878823876
sVscharfie/jira
p870
F0.0002973325009345887
sVvanpelt/merb_facebooker
p871
F0.001169119329154394
sVnextgen666/nxgsrtg
p872
F0.023020276003363885
sVautomatthew/pez_libs
p873
I0
sVerica/iphone-3.0-cookbook-
p874
F0.829988096832736
sVmiyagawa/AnyEvent-DBI-Abstract
p875
F0.0032728721378876215
sVrtomayko/rip
p876
F0.001682321673344662
sVweierophinney/Component_ZendCode
p877
F0.021734433459280517
sVorencohen1/TrackDir
p878
F0.025160616599296023
sVmadrobby/dotvim
p879
F0.24931383300206236
sVnecolas/griddle
p880
I0
sVrmurphey/bloody-jquery-plugins
p881
F0.00011675687224345974
sVagentzh/lua-redis-parser
p882
F0.021953774807908596
sVmadrobby/microjs.com
p883
F0.0010886016914046924
sVcanadaduane/ImplicitCAD
p884
F1.0
sVfelixge/cakephp-authsome
p885
F0.0005776728853742919
sVjdhuntington/Learnr
p886
F5.748497762321956e-05
sVjosh/gobert
p887
F0.8173381620642826
sVrobbevan/vim-twilight
p888
F0.003671499691575333
sVagentzh/agentzh.org
p889
I0
sVsebastianbergmann/php-jenkins-template
p890
I0
sVrobbyrussell/active_merchant
p891
F0.1510012653370192
sVjwhitmire/tm-themes
p892
I0
sVjvantuyl/erlbench
p893
F0.022250777762748544
sVginatrapani/sphinx-bootstrap-theme
p894
I0
sVtopfunky/demo-simplest-socket-io
p895
F1.6859951735828445e-05
sVautomatthew/pez
p896
F0.2715532520763135
sVcreationix/eventemitter-browser
p897
F1.4385566106582366e-05
sVginatrapani/todo.txt-cli
p898
F0.057371281719801596
sVhenrik/draper
p899
F0.012790257214931844
sVkoush/android_vendor_cyanogen
p900
F0.0005941438130510425
sVezmobius/acl_system2
p901
F0.0012500860193588505
sVfelixge/EventEmitter
p902
I0
sVscharfie/form_assistant
p903
F0.003947033153565789
sVayende/courses-lucerne-oct-2012
p904
F0.00613734737386136
sVhassox/any_view
p905
F0.012979220822698447
sVhassox/black
p906
F0.0004533142716500652
sVglassesfactory/Shimehari
p907
F0.024245912541144034
sVmoodlehq/moodle-local_hub
p908
F0.028864442271461094
sVlifo/fast_context
p909
F0.0002900169806864066
sVelbowdonkey/infiniteexcitebike
p910
F0.0011875941175777693
sVnathanmarz/midje-cascalog
p911
I0
sVhassox/conventionsapp
p912
I0
sVlifo/cramp_chat_demo
p913
F0.0021921860452831683
sVcloudwu/project-pangolin
p914
I0
sVhede/demo_app
p915
F0.0014431413587896907
sVleah/python-guide
p916
I0
sVpsi/docs.vagrantup.com
p917
F0.0006228111560443866
sVpkrumins/codinghorror-keyword-analyzer
p918
I0
sVvanpelt/contacts
p919
F0.0023952749178708863
sVakitaonrails/CoffeeScript-Demonstration
p920
F0.004343274954301874
sVtopfunky/basic_model
p921
F0.000649097432190397
sVantirez/jsrt
p922
I0
sVNZKoz/iOSPorts
p923
F0.036231413340955185
sVmiyagawa/backpan-timemachine
p924
F0.00949507088288312
sVphilsturgeon/codeigniter-oauth2
p925
F0.0025971853405193867
sVmathiasbynens/Faker.js
p926
F0.0025596580774484407
sVjwhitmire/ssl_requirement
p927
F0.0006643484320298274
sVlancecarlson/flails
p928
F0.10772604985589145
sVded/bonzo
p929
F0.0028270623726917928
sVgarybernhardt/base
p930
F0.0006074361643363428
sVmmower/embeddable-macruby
p931
I0
sVjschairb/boomtown
p932
F0.0019620473289361684
sVerica/Camera-Image-Helper
p933
F0.002875217444479139
sVmacournoyer/min
p934
F0.0017602912836954799
sVhenrik/facebox
p935
I0
sVmadrobby/creditcard_js
p936
F0.00019958906427353188
sVjsierles/driven
p937
F0.00011432050286142236
sVsebastianbergmann/money
p938
F0.0006399641644646457
sVfelixge/dotfiles
p939
F0.544984049148561
sVnathanmarz/jackknife
p940
I0
sVmacournoyer/gh-contest
p941
F0.00040061772748943125
sVdanielharan/integrity
p942
I0
sVweierophinney/Component_ZendFeed
p943
F0.03723413202632763
sVrobbevan/jekyll-skeleton
p944
F0.00012733964906581427
sVmmower/pastackedlistview
p945
F0.002028511154347389
sVdesandro/classie
p946
F1.4138127543657762e-05
sVibdknox/crate
p947
F0.017748709860638135
sVpkrumins/feedburner-graph-generator
p948
I0
sVded/domready
p949
F3.0417878511249194e-05
sVjsierles/globalize_translator
p950
F0.0013418400021326603
sVjsierles/cijoe
p951
F0.0015079891060744237
sVjoehewitt/devon-tmbundle
p952
I0
sVsoffes/fat.samsoff.es
p953
F0.00020805835553304415
sVasseym/rapidsms-xforms
p954
F0.023394596511415587
sVjdhuntington/fragrant
p955
F0.0022769866752138396
sVxhr/guard-unicorn
p956
F0.0007697415203510953
sVelbowdonkey/ember.js
p957
I0
sVcreationix/chicagowebconf2012
p958
F0.0036931322991110333
sVfelixge/fab-basic-auth
p959
F2.6800156074006652e-05
sVcreationix/brozula
p960
F0.06666702980651908
sVweierophinney/Component_ZendMail
p961
F0.025035179979168137
sVjacobian/django-googlecharts
p962
F0.005449457624948656
sVtopfunky/async_observer
p963
F0.0021575825057392737
sVautomatthew/ambition
p964
F0.002640034866513454
sVkamal/rack
p965
F0.03882991353427043
sVrbazinet/html2haml
p966
I0
sVlifo/tickle
p967
F0.00023360068046737495
sVcdcarter/chill
p968
I0
sVjoehewitt/express-logger
p969
F1.577634147750344e-05
sVguille/git-extras
p970
I0
sVcdcarter/bankers
p971
F0.00038747458941642605
sVkamal/geekcamp
p972
F0.27804492023067895
sVagentzh/appears
p973
F0.00034775642083809295
sVjacobian/djobs
p974
F0.0049777293161537076
sVvanpelt/Velocigraphtor
p975
I0
sVJakeWharton/jquery-maven-artifact
p976
F3.306599652913701e-05
sVdanielharan/scanty
p977
I0
sVdaikini/paysimple
p978
F0.0017315464451841248
sVmacournoyer/llvmruby
p979
F0.005217081863771374
sVjoehewitt/express-store
p980
F4.5776134141052436e-05
sVnathanmarz/crane
p981
F0.026812797142395147
sValexvollmer/homebrew
p982
F0.06598810050036918
sVsoffes/AFNetworking
p983
F0.2839624420801378
sVsebastianbergmann/phpqatools.org
p984
I0
sVjnunemaker/crack
p985
F0.004240149930967527
sVelbowdonkey/IsometricMap
p986
F6.627940540683975e-05
sVpkrumins/gnu-awk-youtube-downloader
p987
I0
sVasseym/android-sms-relay
p988
F0.0037456245062728786
sVphilsturgeon/dbad
p989
I0
sVded/emile
p990
F0.00028414479387983753
sVdanielharan/twitterjobbot
p991
I0
sVTeclis01/rtsGenerator
p992
F0.01135555004717607
sVJakeWharton/ActionBarSherlock
p993
F0.04010823193484109
sVcreationix/adventure
p994
F0.00012256741229006864
sVmislav/bluecloth
p995
F0.03920183298447642
sVmislav/cane
p996
F0.0029739449686889533
sVjosh/homebrew
p997
F0.1875879179843386
sVantirez/hiredis
p998
I0
sVayende/courses-new-york-aug-2012
p999
F0.0063311583435622446
sVjacobian/jellyroll
p1000
F0.012815079465350583
sVmoodlehq/moodle-local_dev
p1001
F0.00710235793613554
sVcdcarter/kavanaut
p1002
I0
sVezmobius/vcap
p1003
F0.05650706226685655
sVcloudwu/dfont
p1004
F0.0013362417384386704
sVrmurphey/flitter
p1005
F0.0006378141721465906
sVkoush/android_device_htc_inc
p1006
F0.004679016283047775
sVcloudwu/luacc
p1007
F0.059923522747080356
sValthjs/blueberryseason
p1008
I0
sVrobbyrussell/docrails
p1009
F0.6889820205590917
sVmiyagawa/Acme-Blue
p1010
F0.0006977138316814904
sVcloudwu/attrib
p1011
F0.010649076172215444
sVwaterschaats/kohana3-orm_mptt
p1012
I0
sVsoffes/dotfiles
p1013
F0.0022664539886474797
sVDmitryBaranovskiy/raphael
p1014
F0.005009803259892145
sVmoodlehq/moodle-behat-extension
p1015
F0.0010561098489424961
sVscharfie/CraftyBox2D
p1016
I0
sVdanahern/file_column
p1017
I0
sVzybl880506/acknetworks
p1018
F0.0036179358711684257
sVsoffes/iphone-library-test-app
p1019
F0.0004981679336648181
sVsstephenson/brochure
p1020
F0.001719643225797252
sVayende/managed-esent
p1021
F0.2643268921390087
sVpsi/chef-rbenv_system_pkgs
p1022
F0.000712457277051771
sVatomicpony/test_project
p1023
I0
sVdrnic/Backbone.tmbundle
p1024
I0
sVasseym/rapidsms-script
p1025
F0.01075311036361106
sVguille/insights-chrome
p1026
F0.00015188461581451526
sVouterim/rack-jsonp
p1027
I0
sVautomatthew/ripples
p1028
F0.0009015448766869868
sVcdcarter/HouseCounter
p1029
F8.060524496375066e-05
sVjosh/direnv
p1030
F0.0017315204634074971
sVglassesfactory/GFS.I.OAS3
p1031
F0.033227813605068435
sVsstephenson/disaster
p1032
F0.004766247429493575
sVphilsturgeon/fuel-ninjauth
p1033
F0.0021324970069846886
sVnecolas/eraser.css
p1034
I0
sVjdhuntington/emacs-starter-kit-customization
p1035
F0.015232903333440876
sVrmurphey/dojo-demo
p1036
F0.0006623865756320672
sVmadrobby/freckle-client
p1037
I0
sVcdcarter/Mantle
p1038
F0.0002743939081183948
sVpsi/chef-ruby
p1039
F0.00018536784357681824
sVjacobian/django-buildbots
p1040
F0.001183764670913534
sVded/Dagron
p1041
F1.3438473676077836e-05
sVglassesfactory/slimish-jinja-example
p1042
F0.0003582120045798035
sVweierophinney/Component_ZendFilter
p1043
F0.014854588267318532
sVmislav/dotfiles
p1044
F0.006390981587217611
sVhassox/acts_as_votable
p1045
F0.003095580991798558
sVjdhuntington/stresster
p1046
F0.002649086272922222
sVRailsAddict/sfget
p1047
I0
sVmiyagawa/CGI.pm
p1048
F0.4560814454341563
sVlancecarlson/devise
p1049
F0.023591684857307057
sVleegee/MooTools-PcmImage
p1050
F0.00011555380888579184
sVnecolas/suit-grid
p1051
I0
sVdrnic/cf-console
p1052
F0.027813855967325662
sVcowboy/express
p1053
I0
sVphilsturgeon/codeigniter-prowl
p1054
F0.00016598206425925337
sVrobbyrussell/flash-message-conductor
p1055
I0
sVkoush/android_device_endeavoru
p1056
I0
sVantirez/redis-timeseries
p1057
F0.0007272123094167484
sVtopfunky/ar_fixtures
p1058
F0.0010198331193440335
sVjsierles/fast_git_deploy
p1059
F0.00238399165782708
sVasseym/rapidsms-mvrs
p1060
F0.005348766750545728
sVstepbystep55/its-me-baby
p1061
F0.0015356795720496588
sVibdknox/brepl
p1062
F0.07734699956425214
sVscharfie/generate_csr
p1063
I0
sVcommonsguy/cwac-prefs
p1064
F0.012499422240123606
sVjvantuyl/sublime_diagram_plugin
p1065
F0.001189389859427664
sVcommonsguy/cwac-merge
p1066
F0.012499422240123606
sVpkrumins/busy-beaver
p1067
F0.002493721676009869
sVlifo/tramp
p1068
F0.0038767297640620734
sVMarak/node-dbox
p1069
F0.00016743911582181044
sVpsi/vagrant
p1070
F0.09937080326272203
sVmatz/mruby
p1071
I0
sVtteofili/cpt
p1072
F0.027584383280840095
sVjacobian/django-multiurl
p1073
F0.0007452249743519529
sVantirez/hping
p1074
F0.03630394157761111
sVjoehewitt/diskcache
p1075
F7.889023975175598e-05
sVhassox/handlebars_assets
p1076
F0.0006006166115626137
sVMarak/colors.js
p1077
F0.00012308788650863418
sVayende/NHibernate-Challanges
p1078
F8.906180862571028e-05
sVfelixge/cluster
p1079
F0.0006661046113930441
sVayende/IronJS
p1080
I0
sVrtomayko/camo
p1081
F0.018759666911431563
sVscharfie/gnat
p1082
F0.00678570299359768
sVsstephenson/backbone
p1083
F0.00340587748215039
sVsoffes/grater
p1084
F0.0001806561525695145
sVnzakas/play
p1085
F1.0
sVjdhuntington/rspec-mode
p1086
F0.0003626512045903154
sVjwhitmire/ruby_practice
p1087
I0
sVcanadaduane/house
p1088
I0
sVcommonsguy/cwac-cache
p1089
I0
sVdaikini/FireBooks
p1090
F0.031042761355608132
sVmacournoyer/iolounge
p1091
I0
sVmathiasbynens/alcuadrado.github.com
p1092
I0
sVxhr/ro-keylayouts
p1093
I0
sVguille/express-expose
p1094
I0
sVscharfie/faq-slate-plugin
p1095
F0.00016652107954760327
sVpkrumins/endian-toggle
p1096
F9.556247947433127e-06
sVgarybernhardt/do_not_want
p1097
F0.0006552970256210599
sVrmurphey/gith
p1098
I0
sVmislav/explain-ruby
p1099
F0.002461486575710365
sVibdknox/jayq
p1100
F0.010466562821722283
sVmmower/nebo
p1101
F0.0006715411264060812
sVhenrik/augmentations
p1102
F0.00015759366500744883
sVweierophinney/Component_ZendEventManager
p1103
F0.004625223482445035
sVscharfie/associated_save
p1104
F0.0009647807296797477
sVNZKoz/statsd.scala
p1105
I0
sVcloudwu/lua-db
p1106
F0.010425745162977165
sVjdhuntington/laizen
p1107
F0.007387187548240587
sVmadrobby/keymaster
p1108
F0.0002935047974497787
sVvim-scripts/Access-SQL-Syntax-file
p1109
F0.05923467067099499
sVhenrik/globalize3
p1110
F0.01011513264960084
sVmislav/addressable
p1111
F0.07088838313983369
sVvanpelt/merb_async_observer
p1112
F0.002138239774235606
sVNZKoz/rexml-expansion-fix
p1113
F0.00023037689188343027
sVAlexanderFlatscher/puzzlesBackEnd
p1114
F0.002178537131534914
sVjschairb/homebrew
p1115
I0
sVdesandro/make-julesmarie-cry
p1116
F6.800294298307323e-06
sVhassox/hash_path
p1117
F0.0003490371101463166
sVDmitryBaranovskiy/prefixfree
p1118
F0.00014509285388044672
sVkoush/androidmono
p1119
F1.0
sVezmobius/ey-lessql
p1120
F0.0007368836751685825
sVMarak/consolidate.js
p1121
I0
sVhenrik/fuzzy_file_finder
p1122
F0.001439049627125453
sVjacobian/django-deployment-workshop
p1123
F0.00022185743499729036
sVmmower/Freeman
p1124
F0.030842060605354677
sVcowboy/D8
p1125
F0.00012199574388607039
sVNZKoz/MailCore
p1126
F0.12129090005774626
sVerica/fringe-tv-show-code-breaking
p1127
I0
sVjosh/gem_keychain
p1128
F0.00019367529877390642
sVnzakas/professional-javascript
p1129
F0.0011531490268710599
sVadam/old-dotfiles
p1130
F0.6661887122802863
sVezmobius/bmhsearch
p1131
F0.0007733673441908493
sVginatrapani/write
p1132
I0
sVkafka399/kaggle-event
p1133
F1.0
sVMarak/css_to_json
p1134
F0.0006467446769352532
sVyinwang0/blog-en
p1135
I0
sVjschairb/paperclip
p1136
F0.021994917573305545
sVxhr/vim-nginx
p1137
F0.02324711981207903
sVkafka399/Garmin-Forerunner-610-Extractor
p1138
I0
sVhassox/emacs-starter-kit
p1139
I0
sVnzakas/combiner
p1140
F0.0007246019487970019
sVrmurphey/frontend-dev-baseline
p1141
F0.001973365201144941
sVsstephenson/hike
p1142
F0.0031805154217986386
sVjschairb/dot_vim
p1143
F0.015358146461216375
sVmoodlehq/mdlrelease
p1144
F0.0018221852926002923
sVvim-scripts/abnf
p1145
F0.0018614519013290297
sVlancecarlson/merb-core
p1146
F0.08512165772168662
sVjwhitmire/rails-diplomacy
p1147
I0
sVjacobian/cheeserater
p1148
F0.002006392239219917
sVlancecarlson/anvil
p1149
F0.00592172765310051
sVdrnic/bosh-bootstrap
p1150
F0.017699591260805118
sVsstephenson/jquery-pjax
p1151
F6.514460096308207e-05
sVhenrik/delishlist.com
p1152
F0.004718758543814697
sVcanadaduane/cinemaker.us
p1153
F0.0006084855556885656
sVnathanmarz/leiningen
p1154
F0.1261594190533534
sVcanadaduane/NewPing
p1155
F1.0
sVakitaonrails/fisl_10_demo
p1156
F0.0075358537987078806
sVmmower/dg834statsd
p1157
F0.0004121489712704641
sVcommonsguy/cwac-anddown
p1158
F0.012499422240123606
sVphilsturgeon/heroku-buildpack-wordpress
p1159
I0
sVPuneetpal/Ushahidi_Web
p1160
I0
sVhenrik/ack.vim
p1161
F0.0018606730511611096
sVpsi/puppet-traktor
p1162
F0.025860465116279072
sVhenrik/dotfiles
p1163
F0.027375804552223458
sVmadrobby/creditcard_js_underscore
p1164
F0.0005963098719198272
sVNZKoz/xss_bareback
p1165
F5.3440495372313485e-05
sVibdknox/colorize
p1166
F0.0018664463008691934
sVibdknox/chris-granger.com
p1167
F0.0012628571818260159
sVkoush/android_packages_apps_Launcher2
p1168
F0.01710441184792857
sVglassesfactory/kazitori-long-example
p1169
F0.020689143374943368
sVmathiasbynens/320andup
p1170
F0.0002976088646486317
sVweierophinney/Component_ZendJson
p1171
F0.009017949182144694
sVkamal/rufus-tokyo
p1172
F0.026896564123324793
sVvanpelt/async-observer
p1173
F0.0018817005980747783
sVginatrapani/jquery-unscroll-timeline
p1174
I0
sVnzakas/rebuild
p1175
F1.940259627898476e-05
sVhassox/futures
p1176
F0.00017470454287607818
sVibdknox/assimilator
p1177
I0
sVmiyagawa/carton
p1178
F0.04889609346283959
sVcreationix/benchmarks
p1179
I0
sVpkrumins/heatwave
p1180
F0.0001625330063845122
sVjosh/closure-compiler
p1181
F0.0010814856996295503
sVJakeWharton/ActivityCompat2
p1182
F0.0002821297836718174
sVmathiasbynens/esmangle
p1183
I0
sVNZKoz/cassandra
p1184
F0.00542675211359639
sVjschairb/alonzo
p1185
F0.001651819673665801
sVdrnic/blinksale-greasemonkey
p1186
F0.0011998693125704818
sValexvollmer/OCMock
p1187
F0.040059511356392116
sVnecolas/issue-guidelines
p1188
I0
sVfelixge/cakephp-mixpanel
p1189
F0.00015699552954461543
sVfelixge/contained
p1190
F0.004198670462500849
sVphilsturgeon/codeigniter-curl
p1191
F0.0007589397394473312
sVsoffes/async_sinatra
p1192
F0.002583494574425809
sVayende/NHibernate-Warsaw-Course-Code
p1193
F0.006718780282964015
sVcowboy/css-misc
p1194
F0.002403285438044327
sVxhr/short.li
p1195
F0.0002854292815477161
sVmattslack/radiant-mediamaid-extension
p1196
F0.001320017433256727
sVmacournoyer/eventmachine
p1197
F0.05423590320946752
sVmislav/freckle-apidocs
p1198
F0.0002948526635623236
sVcdcarter/evently
p1199
I0
sVginatrapani/todo.txt-touch-ios-webapp
p1200
I0
sVtteofili/jackrabbit-oak
p1201
F0.1951044111860405
sVscharfie/addressable
p1202
I0
sVmiyagawa/camp
p1203
F0.05625950552558541
sVlancecarlson/dm-more
p1204
F0.08459915598735035
sVmmower/lmhoneycombview
p1205
F0.005906336364601584
sVibdknox/clojure-pong
p1206
F0.005377510500283989
sVjnunemaker/fancy-zoom
p1207
F6.447054418821849e-05
sVpsi/runit-gentoo
p1208
I0
sVleah/mightylemon
p1209
F0.0067946652062177235
sVdesandro/bash-it
p1210
F0.04050833458664126
sVjwhitmire/hubot
p1211
I0
sVmmower/elysium
p1212
F0.1447298805337744
sVjoehewitt/up
p1213
F0.06416874047252312
sVyshamin/tsf
p1214
I0
sVjazzyfox/FixedColumns
p1215
F0.0003313543652130049
sVhhyou/freebsd-doc
p1216
I0
sVpsi/puppet-ruby
p1217
I0
sVvim-scripts/Acpp
p1218
F0.0020865395998579373
sVibdknox/babbage
p1219
F0.04924509275758706
sVrobbevan/quicksilver.vim
p1220
F0.01620865084458512
sVjsierles/bcx-api
p1221
I0
sVmiyagawa/contributing-test
p1222
I0
sVchovy/nodejs-stream
p1223
F5.687674001570467e-05
sVrdempsey/gPress
p1224
I0
sVDmitryBaranovskiy/rappar
p1225
F0.00023010079879140768
sVpsi/strap
p1226
F0.0015903677685465574
sValexvollmer/xcode_scripts
p1227
I0
sVsstephenson/dnsserver.js
p1228
F9.403518627558972e-05
sVJakeWharton/NineOldAndroids
p1229
F0.01482986663948513
sVrobbyrussell/builder
p1230
I0
sVchovy/boilerplates
p1231
F3.976081735271283e-06
sVantirez/gif-pure-tcl
p1232
F0.05945690194156711
sVayende/nagarot
p1233
F0.0002010395661941244
sVvanpelt/amqp
p1234
F0.016189866268570108
sVmacournoyer/libuv
p1235
I0
sVcreationix/embedder
p1236
F2.0179041424713704e-05
sVrobbyrussell/oh-my-zsh
p1237
F0.08787235245365693
sVstepbystep55/morrison
p1238
F0.0005950373619260147
sVded/sink-test
p1239
F0.00025793337093830667
sVnzakas/yui3-gallery
p1240
F0.020683363877775248
sVjoehewitt/mkdir
p1241
F7.295171424156539e-06
sVezmobius/super-nginx
p1242
F0.2589932980422125
sVpsi/chef-rbenv
p1243
I0
sVrbazinet/tracker_ipad
p1244
I0
sVpsi/puppet-quicksilver
p1245
F0.02958139534883721
sVlancecarlson/corpus
p1246
F0.07562063524302029
sVkoush/AndroidAsync
p1247
F0.014603236169269927
sVmoodlehq/moodle-enrol_groupsync
p1248
F0.0036314049125928927
sValexvollmer/pci4r
p1249
F0.01282088320647932
sVhassox/amqp
p1250
F0.023767257343263428
sVcommonsguy/cwac-locpoll
p1251
F0.012499422240123606
sVjacobian/gistio
p1252
I0
sVNZKoz/bigdecimal-segfault-fix
p1253
F0.00017755635585418308
sVtjogin/naive-search
p1254
F0.003368115119010495
sVdrnic/4th_and_king
p1255
I0
sVmacournoyer/preforker
p1256
F0.0036101472465435718
sVcommonsguy/cwac-viewswiper
p1257
F0.00011043602206602399
sVjdhuntington/attr_encrypted
p1258
I0
sVpsi/puppet-vagrant
p1259
F0.03311627906976744
sVmathiasbynens/jquery
p1260
F0.006274205784072652
sVzybl880506/Lik_note
p1261
F0.11110957040159541
sVasseym/sample
p1262
I0
sVphilsturgeon/fig-standards
p1263
I0
sVjschairb/photos
p1264
F0.010555179791309287
sVsoffes/bin
p1265
F0.0001863073352824494
sVkoush/android
p1266
I0
sVmadrobby/cijoe
p1267
I0
sVded/CalEnder
p1268
F5.8386968485968654e-05
sVibdknox/fetch
p1269
F0.003674388407718978
sVcdcarter/Effe
p1270
F0.003132760216832461
sVGreenRover/RedmineThemePixelCookers
p1271
F3.125405020664959e-05
sVibdknox/lein-cljsbuild
p1272
I0
sVrobbyrussell/vapor.js
p1273
I0
sVchovy/node-startup
p1274
F0.0006147430967621279
sVcanadaduane/Bookmarkly
p1275
I0
sVweierophinney/Component_ZendDi
p1276
F0.011426186869689641
sVmoodlehq/moodle-filter_moodledocs
p1277
F0.0007930424865695471
sVweierophinney/Component_ZendDb
p1278
F0.04199077397797562
sVdaikini/Specs
p1279
F0.3091046609163371
sVnecolas/starter-kit
p1280
F0.007188525403536033
sVnzakas/buildr
p1281
F0.006990531891375153
sVzybl880506/noteC
p1282
F0.26780680738085055
sVguille/ios6-bugs
p1283
F3.685981351152778e-06
sVup_the_irons/altered_beast
p1284
F0.015215662156875753
sVelbowdonkey/axonome
p1285
F0.0016059018704734206
sVjnunemaker/cassandra-cql
p1286
F0.011158772207718617
sVweierophinney/Component_ZendBarcode
p1287
F0.01372481955691161
sVttomczyk/ttomczyk
p1288
I0
sVasseym/rapidsms-geoserver
p1289
F0.0023827173508152192
sVJeffreyWay/PHPUnit-Wrappers
p1290
F0.0002507012761416951
sVttomczyk/devenv-latex
p1291
I0
sVcowboy/grunt-gruntfile-example
p1292
F1.2363395781991609e-05
sVweierophinney/Component_ZendConfig
p1293
F0.005292070443064581
sVouterim/fog
p1294
F0.19558204572944107
sVweierophinney/Component_ZendInputFilter
p1295
F0.0037803356032910383
sVfelixge/beachwhenever.com
p1296
I0
sVjoehewitt/scrollability
p1297
F0.0002148705286251861
sVdanielharan/canadian-postal-code-to-electoral-districts
p1298
I0
sVcanadaduane/omniauth-singly
p1299
I0
sVrmurphey/dojo
p1300
I0
sVsoffes/hands
p1301
F0.003332157477112651
sVayende/lucene.net
p1302
F1.0
sVcdcarter/commonjs-date-formatting
p1303
I0
sVpsi/homebrew
p1304
F0.28757806063078384
sVmacournoyer/rest-client
p1305
F0.0036726391483246526
sVjwhitmire/llor-nu-legacy
p1306
F0.020039069837800037
sVchovy/offline-app
p1307
F2.9914469021161202e-05
sVmoodlehq/moodle-local_chatlogs
p1308
F0.0036475345902858324
sVMarak/pdf.js
p1309
F0.00018193560266349692
sVweierophinney/Component_ZendLdap
p1310
F0.018063242008378368
sVguille/gitfollow
p1311
F5.552009410173871e-05
sVcommonsguy/cwac-wakeful
p1312
F0.012499422240123606
sVchovy/express-force-domain
p1313
F2.6109034570665505e-06
sVscharfie/acts_as_dotted_path
p1314
I0
sVmislav/diveintohtml5
p1315
F0.0010043211573127844
sVleah/django-flash
p1316
F0.00669982452786949
sVerica/sleepnow
p1317
F5.7567702752875186e-05
sVshane/youtube-g
p1318
I0
sVasseym/rapidsms
p1319
I0
sVJeffreyWay/My-Starting-Template
p1320
F0.0
sVNZKoz/dalli
p1321
I0
sValexvollmer/daemon-spawn
p1322
F0.0028249067426158194
sVsebastianbergmann/php-invoker
p1323
F0.001070933790822198
sVjnunemaker/adapter-memcached
p1324
F6.993141389787658e-05
sVjwhitmire/rubythere
p1325
I0
sVakitaonrails/demo_responds_to_parent
p1326
F0.0021507629529655447
sVjoaoleal/CppADCodeGen
p1327
F0.02996683985510129
sVgarybernhardt/webkit
p1328
F0.4388656160560915
sVjazzyfox/try_git
p1329
I0
sVup_the_irons/node-autocomplete
p1330
F8.568715229593569e-05
sVmiyagawa/CGI-PSGI
p1331
F0.026470206298793198
sVfelixge/fab
p1332
F0.00017938442575610183
sVweierophinney/Component_ZendI18n
p1333
F0.0085439670819393
sVcowboy/javascript-getclass
p1334
F0.0001110487205677162
sVfelixge/ardrone
p1335
F1.0
sVjschairb/how-many-days-since
p1336
F0.0002028506970512874
sVphilsturgeon/codeigniter-akismet
p1337
I0
sVvim-scripts/A-soft-mellow-color-scheme
p1338
F0.0008388216308499436
sVnathanmarz/serializable-fn
p1339
F0.005290566767505145
sVagentzh/makefile-graphviz-pm
p1340
F0.10990863690487981
sVphilsturgeon/fuelphp-gettingstarted
p1341
F0.009553761713506356
sVhenrik/action_mailer_tls
p1342
F0.00018313598994177963
sVMarak/asciimo
p1343
F0.004308437935383335
sVcommonsguy/cw-omnibus
p1344
F0.09732706437093
sVcanadaduane/bio-hmm
p1345
F0.0045164314908846
sVjdhuntington/synchronous_command_runner
p1346
I0
sVcreationix/corn
p1347
F1.992307049755031e-05
sVup_the_irons/jenkins-hipchat-plugin
p1348
F0.0004751032462630628
sVezmobius/ohai
p1349
I0
sVjvantuyl/requests
p1350
F0.07429062716464285
sVmmower/lmdial
p1351
F0.011248649861861438
sVezmobius/ez-where
p1352
F0.010463797784141316
sVmathiasbynens/grunt-esmangle
p1353
F4.623688180994654e-05
sVcanadaduane/mycast
p1354
F5.870266596280349e-05
sVpkrumins/http-async-retry
p1355
F0.0020832370400206014
sVezmobius/chef-deploy
p1356
F0.0019635352313595276
sVtteofili/nlp-utils
p1357
F0.0023120411667895023
sVJeffreyWay/Reminders
p1358
F0.08881968318394308
sVJeffreyWay/Backbone-Starter
p1359
F0.0005468151920883653
sVibdknox/dommy
p1360
F0.007242331684652644
sVkafka399/haxogreen.lu
p1361
F0.04753861661263519
sVhhyou/chosen
p1362
I0
sVhenrik/DeepSleepPreventerLibrary
p1363
F0.0026091097532948745
sVentryway/headwater
p1364
F0.005695070517275477
sVantirez/aspark
p1365
F0.001297127486414861
sVnorbauer/has_accent
p1366
F0.0016838095757680212
sVjosh/git
p1367
F1.0
sVjacobian/django-buildmaster
p1368
F0.011956788201864615
sVmoodlehq/moodle-behat-contexts
p1369
F0.001617269016678778
sVscharfie/gabby
p1370
F0.005304620123012333
sVlancecarlson/amfruby
p1371
F0.002731292881812811
sVtopfunky/CocoaHelpDemo
p1372
F0.0003006031326340764
sVibdknox/analyze
p1373
I0
sVdesandro/jquery-bridget
p1374
F6.164633162518245e-05
sVMarak/play.js
p1375
F5.472658422753221e-05
sVcreationix/couch-client
p1376
F0.00013220898387988954
sVhassox/dm-pagination
p1377
F0.003174935787711042
sVcanadaduane/Perspective-Calendar
p1378
F0.0007422900916811069
sVJakeWharton/davealcorn.com
p1379
F0.001251266933083095
sVjdhuntington/dieselisation
p1380
F0.010875450787937327
sVjazzyfox/ruby_koans
p1381
F0.011024736997747689
sVrmurphey/blog-octopress
p1382
F0.011489210537572948
sVagentzh/mockeagain
p1383
F0.0017013375220017667
sVJakeWharton/HanselAndGretel
p1384
F0.0010767263943416512
sVwaterschaats/A2
p1385
I0
sVwaterschaats/A1
p1386
I0
sVfelixge/fab-json
p1387
F5.085289086312629e-06
sVJeffreyWay/Capitalizr
p1388
F0.000264680330142243
sVnecolas/suit-utils-display
p1389
I0
sVmacournoyer/peg
p1390
F0.0059687642236152085
sVelbowdonkey/RubyScad
p1391
I0
sVayende/Macto
p1392
F0.015137796402601654
sVkoush/android_device_motorola_targa
p1393
F1.0
sVmislav/contacts
p1394
F0.006030344530005723
sVcreationix/Calix
p1395
F0.0016944192842262627
sVmiyagawa/AnyEvent-ReverseHTTP
p1396
F0.008182180344719054
sVezmobius/redactor
p1397
F0.00014035879527020617
sVmiyagawa/catalyst-plugin-authentication-credential-openid
p1398
F0.006775747731329553
sVibdknox/ChromaShift
p1399
F0.25137220774514274
sVtopfunky/gfxCardStatus
p1400
F0.014448214054518028
sVrmurphey/blog-jekyll
p1401
F7.191528379568868e-06
sVginatrapani/todo.txt-html5
p1402
F0.23703703703703705
sVfelixge/cakephp1x
p1403
I0
sVdanahern/app_sleuth
p1404
F0.001938612865768263
sVjvantuyl/shovel
p1405
F0.003708236772284831
sVjschairb/collaboration
p1406
F0.006398228404181254
sVgarybernhardt/dingus
p1407
F0.005642964109834731
sVJeffreyWay/Laravel-Model-Validation
p1408
F0.00010338355321284363
sVouterim/travis_reprise
p1409
F0.00038722660567919957
sVjvantuyl/erl-class
p1410
F0.035416384868569364
sVnathanmarz/cascalog-demo
p1411
F0.0015519862580148714
sVtjogin/tjogin.github.com
p1412
I0
sVcreationix/builder
p1413
F2.4658532650072978e-06
sVpkrumins/invoice
p1414
F2.1126133855218234e-05
sVguille/express
p1415
F0.0021975872009758293
sVjvantuyl/ansible
p1416
F0.04888750084237198
sVmadrobby/dom-monster
p1417
F0.00044736038940345203
sVmacournoyer/invisible
p1418
F0.0036864022457407243
sVweierophinney/bugapp
p1419
F0.005870511408329012
sVdesandro/dotvim
p1420
F0.015321540503324132
sVmacournoyer/pusher
p1421
F0.0018895120857974133
sVlifo/journey
p1422
F0.011587784073120486
sVMarak/node-raps
p1423
I0
sVantirez/Bigdis
p1424
F0.0406292772774126
sVjoehewitt/copper
p1425
F8.208134397705954e-05
sVkoush/android_device_asus_tf201
p1426
F0.006369738465860337
sVdesandro/jshint.tmbundle
p1427
F0.0009891825832944326
sVcommonsguy/cwac-parcel
p1428
F0.0001350913521347048
sVpsi/jh_presskit
p1429
I0
sVcloudwu/lua-trace
p1430
F0.01791550461913892
sVpkrumins/gnu-coreutils-cheat-sheet
p1431
I0
sVantirez/lua-cmsgpack
p1432
F0.027987188426006622
sVglassesfactory/WorldWordWeb
p1433
F0.043507266472196424
sVglassesfactory/GFWindowObserver
p1434
F0.017779202148765376
sVhornbeck/resumatoR
p1435
F0.1786035361102787
sVJakeWharton/Android-ViewPagerIndicator
p1436
F0.004648770758050462
sVrobbevan/mongodb.smf
p1437
I0
sVmislav/facebook
p1438
F0.0006079321318107958
sVayende/IntroToNHibernate
p1439
F0.0001574413364283547
sVsebastianbergmann/phploc
p1440
F0.0049167866087421784
sVantirez/redis-rb
p1441
F0.029435173641312602
sVJeffreyWay/Blog-Expenses
p1442
F0.08350188206455882
sVxhr/creamy
p1443
F0.06953536331963692
sVsstephenson/kinect
p1444
F0.0012804399161383373
sVcdcarter/gingko
p1445
F0.005889861742866902
sVjazzyfox/oh-my-zsh
p1446
I0
sVcreationix/divclock
p1447
F3.164380313003434e-05
sVerica/App-Signer
p1448
I0
sVhassox/dm-more
p1449
I0
sVkoush/android-websockets
p1450
F0.0010916850643967436
sVelbowdonkey/impsock
p1451
F0.3078059922074432
sVibdknox/fs
p1452
I0
sVakitaonrails/docrails
p1453
I0
sVjdhuntington/less-css-mode
p1454
F8.509402141750768e-05
sVagentzh/makefile-dom-pm
p1455
F0.6172082202574718
sVdaikini/ssconnection
p1456
F0.002849681857951356
sVsstephenson/bats
p1457
F0.002006003789434312
sVMarak/node-kiwf
p1458
F1.7900900172959554e-05
sVhenrik/hasmygembuiltyet
p1459
F0.0018185887369506308
sVibdknox/autodoc
p1460
I0
sVded/bowser
p1461
F7.851481572524968e-05
sVmathiasbynens/dotfiles
p1462
F0.012434342930844337
sVgarybernhardt/mote
p1463
F0.004159039379807216
sVJakeWharton/BreakoutWallpaper
p1464
F0.0033621927557014207
sVkafka399/rstudio
p1465
I0
sVup_the_irons/git-winner
p1466
F0.0008216722363315659
sVautomatthew/fyte
p1467
I0
sVjsierles/asterisk-cookbook
p1468
I0
sVerica/MPMediaItem-Properties
p1469
F0.002888209234116081
sVNZKoz/sillytestapp
p1470
F0.002385107584644599
sVcdcarter/public
p1471
I0
sVxhr/compass-rails
p1472
F0.004850933875756428
sVdesandro/html5-boilerplate
p1473
F0.001685935447033173
sVdrnic/cf-docs
p1474
F0.0005765621890516419
sVmiyagawa/AnyEvent-Redis
p1475
F0.03718242465460964
sVgarybernhardt/rouge
p1476
F0.046934766018044534
sVerica/NSArray-Utilities
p1477
F0.004146620857915068
sVjvantuyl/erl-skel
p1478
F0.005260231149585945
sVsstephenson/nodeunit
p1479
F0.00022671345018861216
sVsebastianbergmann/gap
p1480
F0.0054760255767531095
sVasseym/rapidsms-message-classifier
p1481
F0.004760372031967722
sVup_the_irons/immutable
p1482
F0.0009479178355483448
sVasseym/bootstrap
p1483
I0
sVhassox/abr_lookup
p1484
F0.0017868468185856373
sVjacobian/django-markupfield
p1485
F0.002246362781232706
sVguille/APNG
p1486
F0.0005818901763562897
sVnecolas/css3-github-buttons
p1487
I0
sVleah/solitaire-anywhere
p1488
F0.00025837705387872316
sVsstephenson/BubbleWrap
p1489
F0.022707746825963153
sVcreationix/coffeepot
p1490
F0.06564906963300889
sVfelixge/campusparty-2012-code
p1491
F7.030668132754372e-06
sVmoodlehq/moodle-behat-features
p1492
F9.224639480581365e-05
sVvim-scripts/a-hrefhttp-allthingsb2b.typepad.com
p1493
I0
sVchovy/express-template-demo
p1494
F1.9795085033968622e-05
sVkafka399/candidateFeatures
p1495
F0.23785653962459477
sVvanpelt/vanpelt.github.com
p1496
I0
sVjnunemaker/clostar
p1497
F0.006645913928954782
sVkafka399/twittrack
p1498
F7.679844355154402e-05
sVrbazinet/ruby-gpu-examples
p1499
I0
sVvim-scripts/ACScope
p1500
F0.010355591832665599
sVnzakas/nodejs-yui3
p1501
I0
sVdrnic/Bundler.tmbundle
p1502
F0.00012795960840888054
sVmdo/code-guide
p1503
I0
sVnextgen666/phpbb3
p1504
F0.5740808829600632
sVayende/NHibernate-NewYork-Course-Code-Oct-2011
p1505
F0.0063311583435622446
sVvanpelt/shortr
p1506
F0.00020979424169362975
sVlancecarlson/cheap_chronic
p1507
F0.001656655356541718
sVvim-scripts/4NT-Bundle
p1508
F0.019663630189478667
sVweierophinney/Component_ZendAuthentication
p1509
F0.007953083222454601
sVdesandro/issues-agreement
p1510
I0
sVkafka399/newsCrawl
p1511
F0.001961390731106876
sVmathiasbynens/acorn
p1512
I0
sVjdhuntington/emacs-starter-kit
p1513
F0.033542744020685196
sVcommonsguy/cw-lunchlist
p1514
F0.01530447346970654
sVhede/sample_app
p1515
F0.0014824467811400928
sVnecolas/suit-flex-embed
p1516
I0
sVtopfunky/categories
p1517
F0.013633315249359481
sVmacournoyer/mtlrb-jan12
p1518
F0.0002947286716937103
sVpkrumins/digpicz
p1519
I0
sVentryway/blind-date
p1520
I0
sVcanadaduane/casperjs
p1521
F0.001015999804096917
sVrobbyrussell/GoogleAnalyticsProxy
p1522
I0
sVfelixge/couchdb-benchmarks
p1523
F0.00031583445082556685
sVdaikini/octave-ruby
p1524
F0.005757066451582105
sVerica/iOS-6-Cookbook
p1525
F0.495014960717756
sVpkrumins/bash-vi-editing-mode-cheat-sheet
p1526
I0
sVasseym/rapidsms-httprouter-1
p1527
I0
sVrtomayko/rdiscount
p1528
F0.009734415994638788
sVnecolas/suit-utils
p1529
I0
sVakitaonrails/answers_demo
p1530
F0.007844097584080436
sVweierophinney/Component_ZendConsole
p1531
F0.010514476040093463
sVmathiasbynens/captured
p1532
F0.0035679900112150645
sVautomatthew/cassie
p1533
F0.001998996905782919
sVmerb/merb
p1534
F0.2038949565687482
sVJakeWharton/guiceymongo-generator-maven-plugin
p1535
F0.00023089964817340407
sVibdknox/clj-socketio
p1536
F0.0018233807136049066
sVdanielharan/biximo
p1537
F0.003090993292659867
sVdesandro/bootstrap
p1538
F0.0016337685720772747
sVlifesinger/backbone
p1539
F0.00340587748215039
sVkoush/android_device_dell_streak7
p1540
I0
sVvim-scripts/abolish.vim
p1541
F0.014622133052531886
sVdesandro/dotfiles
p1542
F0.015480930697582307
sVJeffreyWay/Backbone--RequireJS--and-Testem-Boilerplate-Project
p1543
F4.266580197308001e-05
sVkafka399/votingDistance
p1544
F0.02492712561636745
sVnorbauer/salty_slugs
p1545
F0.0008184703247161052
sVcreationix/creationix
p1546
F0.00015034879025153494
sVmacournoyer/node-cusec
p1547
F4.151848438590143e-05
sVdanielharan/validations
p1548
F0.0002823294848323847
sVNZKoz/ocdtv
p1549
F0.0021220461150704313
sVsstephenson/node
p1550
F1.0
sVcreationix/conductor
p1551
F0.00010025527980566004
sVJeffreyWay/RequireJS-and-Backbone-Starter
p1552
I0
sVjosh/emacs
p1553
F1.0
sVpkrumins/ed-cheat-sheet
p1554
I0
sVmiyagawa/App-PAUSE-Comaint
p1555
F0.0053880235329851365
sVantirez/iconping
p1556
F0.006149596425734674
sVezmobius/chef-101
p1557
F0.00047364893810263926
sVcanadaduane/MendelMax
p1558
I0
sVnextgen666/customisation-db
p1559
F0.26451480892591783
sVmerb/merb_cucumber
p1560
F0.0020944706446151262
sVpsi/runit-rpm
p1561
F0.00026595016563219875
sVmerb/merb-auth
p1562
F0.015329362700394108
sVdrnic/appscrolls
p1563
F0.010814074812973766
sVautomatthew/moonstone
p1564
F0.006164379739976653
sVadam/blog
p1565
I0
sVglassesfactory/webgl-example
p1566
F0.049408658427984434
sVlifo/docrails
p1567
F0.9931129956497453
sVrmurphey/jmvc-sandbox
p1568
I0
sVcdcarter/couchapp
p1569
F0.07409453309304029
sVouterim/stunnel
p1570
F0.0866762878050116
sVzybl880506/iptables-1.2.7
p1571
F0.05773731557034186
sVsebastianbergmann/phpunit-documentation
p1572
F1.0
sVdrnic/cassandra-boshrelease
p1573
F0.0028443867982053343
sVmislav/by_star
p1574
F0.0014498369196948063
sVjnunemaker/googlebase
p1575
F0.005710445508983521
sVlancecarlson/merb
p1576
F1.0
sVnzakas/props2js
p1577
F0.00040649854930685427
sVcanadaduane/MakerSlider
p1578
I0
sVcdcarter/backpacking
p1579
F0.010049843306969109
sVdrnic/carrierwave
p1580
I0
sVjosh/eve
p1581
F0.03644913837549018
sVcanadaduane/dropbox-api
p1582
F0.003969971649259242
sVdrnic/bosh-getting-started-on-aws
p1583
I0
sVvim-scripts/a.vim
p1584
F0.024474587676721105
sVDmitryBaranovskiy/prism
p1585
F0.00039934024346760055
sVscharfie/has_default
p1586
F0.00010278925908038951
sVrmurphey/Bober
p1587
F1.1015282232264435e-05
sVjosh/coffee-script
p1588
F1.0
sVAlexanderFlatscher/sbicktAndroid
p1589
F0.002670619020875618
sVautomatthew/rephraser
p1590
F4.017336543069505e-05
sVnzakas/yui3-1
p1591
F1.0
sVouterim/ghost
p1592
F0.003557078726777098
sVvim-scripts/abbott.vim
p1593
F0.004476830765204712
sVnzakas/csslint
p1594
I0
sValexvollmer/word_salad
p1595
F0.00047972453966468875
sVcowboy/gaucho-old
p1596
F0.007627731773350304
sVdesandro/imagesloaded
p1597
F0.00035661499482499376
sVsebastianbergmann/phptok
p1598
F0.00056592126305515
sVnorbauer/letterpress
p1599
F0.0005004311817231026
sVjoehewitt/looker
p1600
F2.2346261941363713e-05
sVhornbeck/arc
p1601
F1.0
sVhenrik/etsy-rss
p1602
F0.0005141942791391741
sVmattslack/warehouse
p1603
F0.006228855511655546
sVkafka399/common_crawl_types
p1604
I0
sVcanadaduane/alfred2-ruby-framework
p1605
F1.0
sVmoodlehq/moodle-local_amos
p1606
F0.04693160148727918
sVsoffes/awfulrecruiters.com
p1607
F0.00019913094099288967
sVkafka399/ARCInputFormat
p1608
I0
sVnecolas/jekyll-boilerplate
p1609
I0
sVgarybernhardt/sucks-rocks
p1610
F0.003436682622353626
sVxhr/vimfiles
p1611
F0.11031400123369867
sVmoodlehq/moodle-filter_moodlelinks
p1612
F0.0013857697377905828
sVnathanmarz/cascalog-conj
p1613
F0.005712284499395051
sVNZKoz/homebrew
p1614
I0
sVpkrumins/hacker-top
p1615
F0.004853412649991433
sVJeffreyWay/CSS3-TextMate-Bundle
p1616
I0
sVrbazinet/cheddar-mac
p1617
I0
sVginatrapani/the-inclusive-team-tests
p1618
I0
sVsharkcz/jquery-ui
p1619
F0.010659184010758969
sVmathiasbynens/fusejs
p1620
I0
sVmathiasbynens/es-spec-html
p1621
F0.011335767389904654
sVakitaonrails/heroku-buildpack-ruby
p1622
I0
sVcreationix/embedder-sync
p1623
F2.9854742471489742e-05
sVrtomayko/dotfiles
p1624
F1.0
sVrtomayko/rack
p1625
F0.037278031306706906
sVjsierles/heartbeat
p1626
I0
sVantirez/codakido
p1627
I0
sVjschairb/mineralogy
p1628
F0.0006741437896502747
sVpsi/few
p1629
F0.0003517649312558082
sVJakeWharton/domainr-java
p1630
F0.003010928764628967
sVmoodlehq/moodle-local_wstemplate
p1631
F0.0020702825358833487
sVmacournoyer/nanodb
p1632
I0
sVhassox/dm-zone-types
p1633
F0.0009249793398548924
sVjoehewitt/lookskitchen
p1634
F2.3916216961299156e-05
sVlancecarlson/account_location
p1635
F0.0002663345337812746
sVcreationix/dublin-talk
p1636
F5.592111522096135e-05
sVxhr/vim-io
p1637
F0.0037782021645803862
sVlifo/testing
p1638
I0
sVasseym/rapidsms-polls
p1639
F0.014233189489762774
sVphilsturgeon/codeigniter-encoding
p1640
F0.00031253170729796483
sVNZKoz/MagicalRecord
p1641
F0.3374285843563621
sVglassesfactory/kazitori.js
p1642
F0.24953130126392428
sVmadrobby/certified
p1643
I0
sVpsi/dmg
p1644
F0.0006370702209349112
sVginatrapani/ThinkUp
p1645
F0.4418639179033201
sVpkrumins/dnode
p1646
F0.00047018446374218746
sVrbazinet/rstat.us
p1647
I0
sVmacournoyer/node-syscalls
p1648
F0.0005457094659368388
sVJakeWharton/EffectiveOpenSource
p1649
F0.00028015164741608864
sVjwhitmire/ruby-on-rails-tmbundle
p1650
F0.012823115060114357
sVmacournoyer/rbv8
p1651
F0.15507841350539472
sVzybl880506/zybl880506.github.com
p1652
I0
sVglassesfactory/simple_bot_study
p1653
F0.0004870288215533823
sVmathiasbynens/Dynamic-Carousel
p1654
F0.00012917146221088402
sVhassox/dm-adapters
p1655
F0.002246856651140818
sVkoush/android_packages_wallpapers_Basic
p1656
F0.0038042015991877304
sVfelixge/debuggable-scraps
p1657
F0.0038492323694365956
sVezmobius/lua-nginx-module
p1658
F0.23794462749344658
sVDmitryBaranovskiy/elemental
p1659
F8.338679570559281e-05
sVouterim/coffer
p1660
F0.001571100967198571
sVdesandro/doc-ready
p1661
F8.984579543434895e-06
sVcreationix/colorspin
p1662
F3.093270643048301e-05
sVayende/Degenerated.Storage
p1663
F0.0025659502019183458
sVdrnic/bosh-gen
p1664
F0.007066668567875319
sVdaikini/event_attribute
p1665
F0.0019212540041624072
sVjsierles/exception_notification
p1666
F0.0007055137324094286
sVjschairb/holland
p1667
F0.2243051795273289
sVcreationix/conquest
p1668
F7.303703788395319e-05
sVjwhitmire/runt
p1669
F0.026625641890404828
sVdesandro/eventie
p1670
F1.3037452556855194e-05
sVguille/jshint
p1671
F0.0028377790221756996
sVasseym/django-eav
p1672
F0.00877113144254247
sVmislav/asbestos
p1673
F0.0007573423334897697
sVnorbauer/heroku-sinatra-coming-soon
p1674
F3.60816337664576e-05
sVnathanmarz/dfs-datastores
p1675
F0.0172915133952925
sVcommonsguy/cw-android
p1676
F0.008790105038324973
sVmacournoyer/confoo
p1677
F0.0026224280211703714
sVup_the_irons/tendersync
p1678
F0.0033343893307476898
sVrtomayko/adoc-themes
p1679
F0.0012147483368040726
sVouterim/goliath
p1680
I0
sVcanadaduane/grbl
p1681
F0.01916836743027752
sVdesandro/isotope
p1682
F0.0004206370246075944
sVscharfie/eztime
p1683
F0.0012054489466580781
sVrtomayko/replicate
p1684
F0.008868394410694546
sVcloudwu/windsoul
p1685
F0.0029280063783601942
sVglassesfactory/GAEStudy
p1686
I0
sVMarak/badproject
p1687
F2.4658532650072978e-06
sVantirez/mc-benchmark
p1688
F0.01343216966226212
sValexvollmer/gitjour
p1689
F0.0014208228224393043
sVantirez/redisdotphp
p1690
I0
sVjvantuyl/pelvis
p1691
F0.0069054791386780855
sVrobbyrussell/active_delegate
p1692
F0.00017743236398556984
sVjschairb/dot_foo
p1693
F0.0005150622222194668
sVkafka399/carCount
p1694
F0.03435312065818509
sVmjankowski/rails.github.com
p1695
I0
sVcloudwu/ameba
p1696
I0
sVwaterschaats/ACL
p1697
I0
sVpkrumins/bash-history-cheat-sheet
p1698
I0
sVfelixge/ec2-plugin
p1699
I0
sVautomatthew/ambitious_activerecord
p1700
F0.004293094458865387
sVogc/deploy
p1701
I0
sVMarak/geddy
p1702
F0.00428854544605963
sVchovy/Chic
p1703
F1.0827570219011284e-05
sVmathiasbynens/HTML5-custom-data-attributes-plugin-for-jQuery
p1704
F6.365143722129566e-06
sVcreationix/BrowserQuest
p1705
I0
sVmathiasbynens/grunt-yui-compressor
p1706
F1.0179110536864037e-05
sVautomatthew/ambitious_activeldap
p1707
F0.0010388038752418617
sVjacobian/djangome
p1708
F0.0012960434336555704
sVsstephenson/multi_json
p1709
F0.0009284511121760635
sVmiyagawa/Acme-MillaTutorial
p1710
F0.000849582142047493
sVtopfunky/choctop
p1711
F0.00461150557746423
sVradicaldynamic/gcmobile
p1712
I0
sVJeffreyWay/Envato-Marketplace-API--Cookbook
p1713
F0.0004590813503366763
sVguille/dom
p1714
I0
sVleah/github-services
p1715
F0.036480515607786444
sVxhr/css_parser
p1716
I0
sVrmurphey/arduino-display
p1717
F0.003784879985044472
sVJakeWharton/is_awesome
p1718
F0.002781205705156194
sVsoffes/iphone-plist
p1719
F0.0008897135937574899
sVrobbevan/emacs
p1720
F4.5566228634696045e-05
sVakitaonrails/i18n_demo_app
p1721
I0
sVjnunemaker/flipper-mongo
p1722
F0.0009777998758841396
sVayende/NHibernate-London-May
p1723
F0.006977194909231862
sVdaikini/fixture
p1724
I0
sVglassesfactory/yarinage.js
p1725
F0.013170434483728342
sVsstephenson/minihal
p1726
F0.0003681318579127581
sVdanahern/demo_app
p1727
F0.007528910254065539
sVjsierles/chef_cookbooks
p1728
F0.2511758789103339
sVrtomayko/hem
p1729
F0.008515738525476995
sVmathiasbynens/css-fork-on-github-ribbon
p1730
I0
sVjsierles/chef
p1731
F0.2516104993834504
sVpkrumins/bash-redirections-cheat-sheet
p1732
I0
sVsoffes/core-module
p1733
I0
sVnecolas/dotfiles
p1734
F0.0035679126192419606
sVpkrumins/bithacks.h
p1735
F0.0010387791762079396
sVjschairb/purikura
p1736
F0.001989821507505538
sVmmower/bones
p1737
F0.004281096692079176
sVjvantuyl/iterdict
p1738
F0.0016823813808060242
sVMarak/javascript-fu
p1739
F0.001935225532997596
sVautomatthew/bitescript
p1740
F0.01109380046856527
sVkamal/pickler
p1741
F0.004399727465872788
sVautomatthew/automatthew.github.com
p1742
I0
sVgarybernhardt/topaz
p1743
F0.120962366251299
sVjschairb/conan
p1744
F7.985076338693708e-05
sVjnunemaker/common_helpers
p1745
F0.0005552355876501619
sVsoffes/access_control
p1746
F0.00010477312897820162
sVrichhickey/slides
p1747
I0
sVibdknox/clojure-koans
p1748
F0.018085108976249736
sVDmitryBaranovskiy/web-anim-js
p1749
I0
sVnecolas/idiomatic-html
p1750
I0
sVatep/fullcalendar
p1751
I0
sVdesandro/get-size
p1752
F7.962402307629102e-05
sVnzakas/xauth
p1753
F0.00019412939897751406
sVgarybernhardt/cls
p1754
F0.00029696052532874896
sVjsierles/bluepill
p1755
F0.0062536538853781975
sVnorbauer/cj4r
p1756
F0.010094797983148265
sVdrnic/bcat
p1757
F0.0031428218937402086
sVmoodlehq/moodle-local_moodlecheck
p1758
F0.00723177939762413
sVJakeWharton/github-deploy-maven-plugin
p1759
F0.001114123069479382
sVlancecarlson/mail
p1760
I0
sVsoffes/adder
p1761
F0.0001344071855767699
sVautomatthew/activemdb
p1762
F0.003925458568427083
sVded/morpheus
p1763
F0.0006178199621657904
sVmislav/curly
p1764
F0.00036404012624852063
sVup_the_irons/mephisto
p1765
I0
sVcanadaduane/pad
p1766
I0
sVgspederson/01-CodeBreaker
p1767
F0.00023471660728489427
sVautomatthew/dotfiles
p1768
F0.00017371260792717214
sVjsierles/docrails
p1769
I0
sVouterim/homebrew
p1770
F0.14881132095357189
sVvim-scripts/285colors-with-az-menu
p1771
F0.9644049896257157
sVstepbystep55/mapreduce
p1772
F0.0003425895329784273
sVhenrik/country_select
p1773
F0.001193793711008432
sVasseym/rapidsms-unregister
p1774
F0.0005829945376044415
sVtopfunky/couchrest
p1775
F0.006224639788122695
sVerica/CFClippyRef
p1776
F0.0016226297263794705
sVdesandro/get-style-property
p1777
F8.771270437465407e-06
sVJeffreyWay/Recurring-Tweets
p1778
F0.0006555561862344876
sVvanpelt/jsawesome
p1779
F0.0011998693125704818
sVjwhitmire/integrity-campfire
p1780
F0.00035201291499303475
sVphilsturgeon/codeigniter-github
p1781
F0.0004697576608096223
sVfelixge/conflict-test
p1782
I0
sVjsierles/bundler
p1783
F0.003727567546120326
sVJakeWharton/lessres
p1784
I0
sVjsierles/flamencodb
p1785
F0.0015885838206730403
sVhassox/.pair.io
p1786
I0
sVleah/tumblr-themes
p1787
I0
sVdanielharan/semantic-menu
p1788
F0.000668440163694065
sVjosh/brew-pip
p1789
F0.0001856312209662926
sVmerb/merb_datamapper
p1790
F0.0030565235531853823
sVnecolas/necolas.github.com
p1791
F4.176592294882603e-05
sVjwhitmire/feedzirra
p1792
F0.009843590457337808
sVrobbyrussell/shorturl
p1793
F0.0024193293403818577
sVjacobian/ddt
p1794
F0.0014254227694805621
sVasseym/ctca
p1795
F0.019714260674160843
sVpkrumins/bash-emacs-editing-mode-cheat-sheet
p1796
I0
sVagentzh/memcacheq
p1797
F0.0038132422492195913
sVJakeWharton/mkvdts2ac3
p1798
F0.007852996401495152
sVlancecarlson/exception_notification
p1799
I0
sVadam/exceptionalauthentication
p1800
F0.012584678696771066
sVMarak/ohh
p1801
F0.0001061255464019404
sVmathiasbynens/FizzBuzzEnterpriseEdition
p1802
I0
sVguille/debug
p1803
I0
sVfelixge/ack
p1804
F1.0
sVmoodlehq/sample-ws-clients
p1805
F0.003928498214099044
sVdaikini/matlab-ruby
p1806
F0.016520694573758397
sVagentzh/lua-rds-parser
p1807
F0.01741863490197891
sVJeffreyWay/Laravel-4-Generators
p1808
F0.004828841461321148
sVzybl880506/project
p1809
F0.5330177951686366
sVMarak/node-mkdirp
p1810
I0
sVmoodlehq/functional-test-suite
p1811
F0.016421839790658043
sVjnunemaker/bin
p1812
F0.001007061956876868
sVrobbevan/currentcoststatus
p1813
F0.00020830633927027068
sVDmitryBaranovskiy/web-animations
p1814
I0
sVjnunemaker/google-weather
p1815
F0.0009966466399133544
sVkoush/android_device_motorola_sholes
p1816
F0.0094654081677278
sVmoodlehq/moodle-filter_skypeicons
p1817
F0.0015921528042712
sVrbazinet/s3nukem
p1818
I0
sVmjankowski/repeated_job
p1819
F0.00030638390734335645
sVrobbevan/Vagrantfile.vim
p1820
F0.000267145607596593
sVtteofili/samplett
p1821
F0.04188500017516728
sVjosh/dotfiles
p1822
F0.0029460251220999206
sVjdhuntington/codekatas
p1823
F0.00038487076017554767
sVautomatthew/fate
p1824
F0.002396762820294245
sVsstephenson/mackerel
p1825
F0.0032167210474337094
sVrobbevan/prowlr
p1826
F0.0011950336296945646
sVtteofili/tommaso_at_asf
p1827
I0
sVakitaonrails/jruby_calculator_demo
p1828
F0.0014142512534028018
sVmmower/errata_plugin
p1829
F0.0009105962830957546
sVrbazinet/simplelog
p1830
F0.046589448663956624
sVjdhuntington/pomodori
p1831
F0.022978173091408666
sVjoehewitt/fool
p1832
F6.817359026784882e-06
sVphilsturgeon/codeigniter-dwoo
p1833
F0.0006378135407722537
sVkamal/juggernaut
p1834
F0.001074292916576259
sVxhr/matcher
p1835
F0.0006743014508032327
sVpsi/psi.github.com
p1836
I0
sVmiyagawa/CGI-Compile
p1837
F0.011276772292177021
sVcowboy/grunt-jquery-example
p1838
F0.00040899887978589907
sValexvollmer/emacs-starter-kit
p1839
F0.1422444815678092
sVrmurphey/bvjs
p1840
F0.038006460876848884
sVjnunemaker/adapter-cassanity
p1841
F0.0015930475279431174
sVzybl880506/wamlog
p1842
F0.0019065328305871685
sVlifo/sidekick
p1843
F0.0017135676242352026
sVleah/python-oauth-old
p1844
F0.003472991388623911
sVfloydprice/numbers.js
p1845
I0
sVasseym/rapidsms-ureport
p1846
F0.03496234667564297
sVjsierles/intercom-rails
p1847
F0.006060350562210131
sVlifesinger/lifesinger.github.com
p1848
F0.006971709495864405
sVagentzh/jemplate
p1849
F0.31493965985900463
sVdesandro/jtetypes
p1850
F0.00020452077080354648
sVdanielharan/miniblog
p1851
F0.001896579622308369
sVJeffreyWay/jeffreyway.github.com
p1852
F0.00023595400065921042
sVJakeWharton/Android-MapForgeFragment
p1853
F0.021395597583976217
sVjosh/css-explain
p1854
F0.00013935057274774807
sVautomatthew/rupez
p1855
F0.0005181620189347982
sVguille/expresso
p1856
F6.345519284380373e-05
sVJakeWharton/jakewharton.com
p1857
F3.2209675001392904e-05
sVrichhickey/edn
p1858
I0
sVmadrobby/box2d-js
p1859
F0.0038005368734226317
sVakitaonrails/fedena
p1860
I0
sVzybl880506/authorization
p1861
F0.0006420741325443379
sVnecolas/custom-tweet-button-for-wordpress
p1862
F0.0005123860947123921
sVmacournoyer/mor7
p1863
F0.00018028417696367474
sVsoffes/binary_plist
p1864
F0.0013476676199574834
sVnecolas/css3-social-signin-buttons
p1865
I0
sVrdempsey/bp-reply-by-email
p1866
I0
sVnathanmarz/clj-disruptor
p1867
F0.009147780781534777
sVrobbevan/coffee-script-vim-snippets
p1868
I0
sVhenrik/file_transfer_sender_subdirectories_plugin
p1869
F0.0016159098351879485
sVtopfunky/cappuccino
p1870
F0.18436233151632114
sVkafka399/twsapi
p1871
I0
sVMarak/Faker.js
p1872
F0.0025810487145950614
sVjschairb/doughboy
p1873
F0.0009175398277380969
sVnextgen666/todc-bootstrap
p1874
I0
sVsstephenson/coffee-mode
p1875
F0.0108855281453591
sVdesandro/editorconfig-textmate
p1876
F0.005636196738702407
sVleegee/mootools-core
p1877
F0.0035777568431480974
sVasseym/bamboo
p1878
I0
sVjdhuntington/codename-chicane
p1879
F0.00045033846680334706
sVmerb/book
p1880
I0
sVentryway/feature-finish
p1881
I0
sVdaikini/kato
p1882
F0.006212488584998597
sVNZKoz/paperclip
p1883
I0
sVcdcarter/loudmouth-web
p1884
F0.00042753970727676705
sVstepbystep55/f2j
p1885
F0.00011646677185934125
sVmislav/euruko-golf
p1886
F2.8022162306595935e-05
sVlancecarlson/heroku-buildpack-go
p1887
I0
sVgarybernhardt/raptor
p1888
F0.006656503466502667
sVfloydprice/smoothie
p1889
I0
sVkoush/android_system_core
p1890
F0.16278972028012162
sVmislav/anemone
p1891
F0.004590922927274429
sVnecolas/delegate
p1892
F7.226912510246302e-06
sVded/qwery
p1893
F0.0008508558942553383
sVmiyagawa/App-FatPacker
p1894
F0.018957126915686677
sVkoush/android_external_busybox
p1895
F0.5384057366392381
sVmmower/coreplus
p1896
F0.0006762516514167001
sVcowboy/battlelog-hacks
p1897
F0.0002342133983544994
sVjvantuyl/vertebra-py
p1898
F0.010248643457663876
sVglassesfactory/iOSSafariExample
p1899
F0.033492430515412376
sVsstephenson/ndns
p1900
F0.0005224110652477573
sVmiyagawa/AnyEvent-FriendFeed-Realtime
p1901
F0.0048399770216643444
sVweierophinney/Component_ZendHttp
p1902
F0.02660774674624077
sVkoush/android_device_samsung_epic4g
p1903
F0.00025817172216166724
sVmathiasbynens/grunt-zopfli
p1904
F0.0007676226811060436
sVfloydprice/Rails-Startup-App
p1905
F0.002702774752031762
sVnecolas/normalize.css
p1906
I0
sVleah/tinytinyurl
p1907
I0
sVsebastianbergmann/PHPUnit-CodeSniffer
p1908
F0.0012959811986332172
sVautomatthew/shred
p1909
F0.058763104035496116
sVrebra/tmjs
p1910
I0
sVjosh/cook
p1911
F0.0002039666238688067
sVrobbyrussell/less
p1912
F0.0013646545059574995
sVelbowdonkey/MCAD
p1913
I0
sVvanpelt/stat
p1914
I0
sVlifo/enlighten-websockets
p1915
F0.0005884654084385146
sVded/ender-tipsy
p1916
F0.0004144169310775241
sVphilsturgeon/codeigniter-maxcdn
p1917
F0.0020139054719470724
sVdesandro/CSS3.tmbundle
p1918
I0
sVweierophinney/Component_ZendCaptcha
p1919
F0.0031809260570257844
sVvim-scripts/Abc-Menu
p1920
I0
sVmathiasbynens/brnfckr
p1921
F8.537483657322846e-05
sVibdknox/cljs-watch
p1922
F0.0026716915268863335
sVstepbystep55/joplin
p1923
F0.0031881161970957013
sVDmitryBaranovskiy/brackets
p1924
F0.05111509894854822
sVjnunemaker/adapter-mongo
p1925
F0.001382881310643648
sVsstephenson/dtclsh
p1926
I0
sVantirez/redis
p1927
F0.9561871609861606
sVsharkcz/gettext-extractor
p1928
F0.0028113260138904177
sVJakeWharton/Android-DirectionalViewPager
p1929
F0.0014711785810377677
sVJeffreyWay/grunt-init-gruntfile
p1930
I0
sVcdcarter/artnetr
p1931
F8.47622617220248e-06
sVhenrik/git-tmbundle
p1932
F0.02190651137098429
sVibdknox/fipp
p1933
I0
sVdesandro/css3please
p1934
F0.006093546291330377
sVjwhitmire/ruby-units
p1935
F0.01059944488840422
sValexvollmer/httparty
p1936
F0.008677446933030132
sVpkrumins/bitly
p1937
F0.008526635280549191
sVjosh/gem-template
p1938
F6.509573102195959e-05
sVrobbyrussell/bigtuna
p1939
I0
sVjwhitmire/hubot-scripts
p1940
I0
sVhornbeck/fuzed
p1941
F1.0
sVakitaonrails/active_merchant
p1942
F0.13941124941026367
sVezmobius/merbivore
p1943
F0.0063034986165607255
sVantirez/Jim
p1944
I0
sVsoffes/apple_push_notification
p1945
F0.0004710451088617609
sVkamal/database_cleaner
p1946
F0.004449200221449478
sVmathiasbynens/CSSCSS
p1947
I0
sVcloudwu/skynet
p1948
F0.26855281506013595
sVnorbauer/submarine
p1949
F0.0006768716107597664
sVadam/my_blog
p1950
I0
sVautomatthew/rakegen
p1951
F0.001096088118541186
sVayende/Kalahari.Resort
p1952
F0.0069125912526649
sVcdcarter/blog
p1953
I0
sVkafka399/Levenshtein-distance
p1954
F0.0092080529599259
sVmathiasbynens/html5demos
p1955
I0
sVscharfie/hcl
p1956
F0.002239541130892636
sVrbazinet/Launching-Soon
p1957
I0
sVlancecarlson/JSONP
p1958
I0
sVrtomayko/rack-cache
p1959
F0.010345385549615655
sVmacournoyer/rack-sandbox
p1960
F0.00038152297972298977
sVvim-scripts/0scan
p1961
F0.09997164985388769
sVilazebny/ci_test
p1962
F4.745737358186347e-05
sVjschairb/foortran
p1963
F0.10766961651917405
sVdrnic/blue-ridge-tmbundle
p1964
F0.00044612274327049633
sVglassesfactory/messagepack
p1965
F0.06961249841938424
sVjacobian/django-git-authors
p1966
I0
sVjacobian/invoke
p1967
I0
sVjdhuntington/rinari
p1968
F0.0030481640787560025
sVdanahern/deployinator
p1969
I0
sVscharfie/fabrication
p1970
I0
sVhassox/formz
p1971
I0
sVvanpelt/dm-imap-adapter
p1972
F0.0012409106210814697
sVjosh/ejs
p1973
F0.00012522950993256785
sVjschairb/notify-me
p1974
I0
sVjsierles/heroku-buildpack-ruby
p1975
F0.005519374039450494
sVsebastianbergmann/php-test-helpers
p1976
F0.0019963278515989385
sVjacobian/chucks
p1977
F0.003213557694352232
sVerica/datatube
p1978
F0.0010066397004899698
sVcloudwu/pbc
p1979
F0.1321683806867701
sVded/reqwest
p1980
F0.0007572473261916875
sVphilsturgeon/codeigniter-cli
p1981
F0.0006749886074550296
sVautomatthew/minfinite
p1982
F0.0007994140808658466
sVnextgen666/ProIce
p1983
I0
sVtopfunky/barista
p1984
F0.004753724250763635
sVagentzh/lua-resty-redis
p1985
F0.045488713613386786
sVup_the_irons/powerdns-models
p1986
F0.0022720270004693093
sVjschairb/kickstart
p1987
F0.00024017224950387755
sVcdcarter/ticketrequests
p1988
F4.1356369465364615e-05
sVasseym/rapidsms-uganda-ussd
p1989
F0.007912615171515936
sVcloudwu/aoi
p1990
F0.0014749516479858587
sVNZKoz/formtastic
p1991
I0
sVgarybernhardt/turbolinks_test
p1992
F0.0022459887080605256
sVphilsturgeon/ee2-widgets
p1993
F0.004555097788475253
sVyinwang0/lightsabers
p1994
F1.0
sVscharfie/bam
p1995
F4.999965443924833e-06
sVmmower/objc-stomp
p1996
I0
sVlifo/cramp-pub-sub-chat-demo
p1997
F0.00037519939442371374
sVkamal/RubyMine-colors
p1998
I0
sVkamal/detached_counter_cache
p1999
F0.0003164272487010302
sVleah/python-oauth
p2000
F0.004275368278279425
sVjoehewitt/express-rewrite
p2001
F7.013603404276813e-06
sVagentzh/lua-resty-dns
p2002
F0.09122254662715705
sVelbowdonkey/printables
p2003
I0
sVibdknox/ibdknox.github.com
p2004
F0.004649472985724245
sVnorbauer/kindle-nom-nom
p2005
F0.0010831929642054073
sVkamal/contacts
p2006
F0.006571941012108426
sVmislav/big_sitemap
p2007
F0.00226024777295105
sVjschairb/patron
p2008
I0
sVhassox/jetski
p2009
F1.0179110536864037e-05
sVJeffreyWay/MessageBox
p2010
F0.0004552698910528007
sVgspederson/Reporting-before
p2011
I0
sVrobbevan/migrate_test_db
p2012
F0.00020471057508048623
sVphilsturgeon/codeigniter-template
p2013
F0.0015558226254675782
sVayende/Alexandria
p2014
F0.004287834291679714
sVmiyagawa/AnyEvent-Twitter-Stream
p2015
F0.027765488916914827
sVJeffreyWay/framework
p2016
F0.11144624143562121
sVerica/NSObject-Utility-Categories
p2017
F0.008022206104438757
sVsgperez/project
p2018
F2.3810476594339912e-06
sVsoffes/blending-benchmarks
p2019
F0.005850337271338902
sVjosh/elpa
p2020
F0.020244862599417816
sVagentzh/cookiexs
p2021
F0.23539918255231204
sVphilsturgeon/codeigniter-restserver
p2022
F0.09696063874752592
sVakitaonrails/globalize3
p2023
F0.011359639034872093
sVjazzyfox/discourse
p2024
F0.14983722967447796
sVouterim/ripple
p2025
F0.04811454864789968
sVayende/Example.MapReduce
p2026
F0.00046720396582397935
sVcreationix/cell
p2027
F3.182571861064783e-06
sVezmobius/tlabs-mendelmax
p2028
I0
sVrtomayko/pkgsrc
p2029
I0
sVdanielharan/cijoe
p2030
F0.000996894623650581
sVakitaonrails/acts_as_solr_reloaded
p2031
F0.025255531742228346
sVgarybernhardt/the-march-of-progress
p2032
F0.0004958434825844121
sVcowboy/benalman.com-content-OLD
p2033
F0.0037820964154199866
sVcdcarter/io
p2034
F1.0
sVginatrapani/greasemonkey-multi-script-compiler
p2035
F0.008450863095570756
sVjsierles/homebrew-alt
p2036
I0
sVayende/dotnet-protobufs
p2037
F0.15750028429715007
sVcowboy/javascript-debug
p2038
F0.0018878623791081307
sVleegee/MilkChart
p2039
F0.0004940153570610988
sVnzakas/jstools
p2040
F7.508480530126029e-05
sVsoffes/acts_as_list
p2041
F0.006702380457889572
sVcowboy/grunt
p2042
F0.0007164222467265775
sVnathanmarz/cascalog-workshop-starter
p2043
F0.001532484860008402
sVjsierles/amatsung
p2044
I0
sVlancecarlson/instiki
p2045
I0
sVdesandro/close-pixelate
p2046
F3.617722437242541e-05
sVpsi/chef-cookbook-template
p2047
F0.00046137374310992684
sVasseym/rapidsms-training
p2048
I0
sVjwhitmire/dial-a-script
p2049
F0.01881526312177851
sVJakeWharton/butterknife
p2050
F0.0007471723314907472
sVmiyagawa/AnyEvent-mDNS
p2051
F0.00575118688386036
sVezmobius/nginx-ey-balancer
p2052
I0
sVentryway/hitch
p2053
F0.0019972610196223334
sVcowboy/bash-misc
p2054
F0.0008821154557934292
sVdaikini/chunky_bacon
p2055
F0.0038866491135511336
sVcowboy/grunt-node-example
p2056
F1.598111821923415e-05
sVMarak/node-stats
p2057
F5.075050249226093e-05
sVrobbyrussell/textilizefu
p2058
F0.00015201403091985228
sVjoehewitt/hascan
p2059
F0.00021223402807540322
sVcowboy/benalman.com-idea
p2060
F9.53832998253169e-05
sVsoffes/ActiveSupportInflector
p2061
F0.003994751316986675
sVmathiasbynens/escodegen
p2062
F0.020204655582158518
sVlancecarlson/managespec
p2063
I0
sVhenrik/cloudinary_gem
p2064
F0.011456476684259047
sVakitaonrails/brazilian-rails
p2065
F0.016089556846861985
sVsebastianbergmann/php-timer
p2066
F0.0011436709564184558
sVrmurphey/cufon
p2067
I0
sVrobbyrussell/faker
p2068
F0.010826102024229251
sVerica/uidevice-extension
p2069
F0.020640369791132342
sVleah/django-pagination
p2070
F0.0026107624931780526
sVchovy/tabbed-navigation
p2071
F0.00013013069601789404
sVmiyagawa/ark-perl
p2072
F0.17870718249068432
sVrmurphey/dotfiles
p2073
F0.6167535344220619
sVJeffreyWay/Phing-Build-Script-for-Web-Designers
p2074
I0
sVagentzh/memc-nginx-module
p2075
F0.08042417479382227
sVsoffes/bully
p2076
F0.007784321956258884
sVlifesinger/dew
p2077
F0.0005717195981836644
sVrdempsey/CouchLog
p2078
F0.00038586269512445377
sVkoush/android_vendor_acer_salsa
p2079
I0
sVcreationix/canvasclock
p2080
F2.66977677031413e-05
sVup_the_irons/ip_allocator
p2081
F0.0009511416241322895
sVlifo/cramp
p2082
F0.007278074703860921
sVmattslack/annual-aggregator
p2083
F0.004453167961245102
sVwaterschaats/core
p2084
I0
sVsstephenson/execjs
p2085
F0.0033516242004849326
sVglassesfactory/njango
p2086
I0
sVded/jquery.rtl.js
p2087
F2.127971641151627e-05
sVrtomayko/MiniProfiler
p2088
F1.0
sVcreationix/creationix.com
p2089
I0
sVdrnic/8cpj
p2090
F0.0011998693125704818
sVhenrik/gchartrb
p2091
F0.010075703235381823
sVcloudwu/SharpLua
p2092
I0
sVdesandro/draggabilly
p2093
F0.00010180817009711792
sVweierophinney/Component_ZendLoader
p2094
F0.003777416899708506
sVlukestar/cekt
p2095
F9.696660013588562e-06
sVfelixge/async
p2096
I0
sVstepbystep55/procs
p2097
F0.0010455183725231736
sVphilsturgeon/chef-php-fpm
p2098
F0.0006292587332122759
sVvim-scripts/ABAP.vim
p2099
F0.004183204251898836
sVscharfie/guard
p2100
I0
sVxhr/minifactory
p2101
F0.0005986327416648017
sVagentzh/encrypted-session-nginx-module
p2102
F0.0041631725950332455
sVmathiasbynens/cdnjs
p2103
F0.009807423685894321
sVcommonsguy/cwac-richedit
p2104
F0.012499422240123606
sVdrnic/associated_with
p2105
F0.0010552947937674249
sVnzakas/cssembed
p2106
F0.004566961394386329
sVdrnic/.dotfiles
p2107
F0.0035757497536938808
sVkamal/gitx
p2108
F0.19589154812405277
sVmoodlehq/moodle-mod_newmodule
p2109
F0.003054192875152685
sVvim-scripts/acsb
p2110
F0.022232278043279145
sVezmobius/redis
p2111
I0
sVsebastianbergmann/dbunit
p2112
F0.04113905018779938
sVrmurphey/berlinjs.org
p2113
I0
sVMarak/data-behaviors
p2114
F0.009923796601747034
sVpsi/octokit
p2115
F0.036546727265625925
sVrobbevan/Specs
p2116
F0.12617685332195916
sVsstephenson/dimensions
p2117
F0.001771223843140367
sVsebastianbergmann/exporter
p2118
F0.0020796531105430564
sVAlexanderFlatscher/puzzlesFrontEndAIR
p2119
F0.019274791685743066
sVjdhuntington/dotfiles
p2120
F0.4536122758765799
sVded/klass
p2121
F0.00012615953763459484
sVnzakas/oocss
p2122
F0.0024169372208263746
sVibdknox/Korma
p2123
I0
sVweierophinney/Component_ZendCrypt
p2124
F0.008719319720858262
sVdanielharan/mp-ca-scraper
p2125
F0.0023584493328927493
sVnextgen666/ProsilverME
p2126
F2.076777455718949e-05
sVhornbeck/blerb-core
p2127
F0.012760871142070503
sVmattslack/rounder
p2128
I0
sVrobbyrussell/delayed_job
p2129
I0
sVibdknox/clojail
p2130
F0.016631442266517478
sVcowboy/javascript-emotify
p2131
F0.0027016963449314046
sVmattslack/radiant
p2132
F0.08614359870279707
sVrbazinet/render_mate
p2133
F0.0001714807542921335
sVayende/nhibernate-blog-model
p2134
F0.0006353569721248666
sVasseym/rapidsms-auth
p2135
F0.0008555911729991851
sVded/R2
p2136
F0.00014315600719824376
sVcowboy/grunt-gruntplugin-example
p2137
F2.2713153603631236e-05
sVrtomayko/lesscode.org
p2138
F4.674882366427331e-05
sVcowboy/javascript-linkify
p2139
F0.002722037501276655
sVcowboy/grunt-commonjs-example
p2140
F2.7798442689943866e-05
sVcloudwu/lua-int64
p2141
F0.0019173784207774096
sVded/sqwish
p2142
F6.420604089681632e-05
sVcommonsguy/cwac-touchlist
p2143
F0.0005882861037595572
sVsebastianbergmann/phpcpd
p2144
F0.005436699886377942
sVmoodlehq/moodle-block_unanswered_discussions
p2145
F0.000827068425702749
sVAlexanderFlatscher/alexanderflatscher.github.com
p2146
F0.004846894829481127
sVmerb/old-wiki
p2147
I0
sVimgf/unwrite
p2148
I0
sVtopfunky/cappuccino-couchdb
p2149
F1.0
sVcreationix/detectindent
p2150
F6.501661549950038e-06
sVrtomayko/gitscm
p2151
F0.0004090491745551327
sVlifo/misfit_client
p2152
F0.000572718441124631
sVsoffes/enmatz.com
p2153
F0.001855786297534608
sVsstephenson/node-coffee-project
p2154
F0.005147874451231897
sVcommonsguy/cwac-updater
p2155
F0.012499422240123606
sVDmitryBaranovskiy/g.raphael
p2156
F0.0006540057189024546
sVdaikini/cocoa-extensions
p2157
I0
sVmattslack/radiant-sitemap_search-extension
p2158
F0.0025570843064111858
sVezmobius/vcap-tests
p2159
F0.06016201511940724
sVrobbevan/facebooker
p2160
F0.062561213235636
sVwaterschaats/A2ACLdemo
p2161
I0
sVnathanmarz/pallet-crates
p2162
I0
sVvanpelt/guestlist
p2163
I0
sVginatrapani/todo-cli-plugins
p2164
I0
sVJeffreyWay/Quiz-Preparer
p2165
F0.07566531656143845
sVrobbevan/authlogic_facebook_connect
p2166
F0.0011166707687309866
sVjsierles/js_named_routes
p2167
F0.0002474877697520597
sVdanielharan/scraper
p2168
I0
sVmmower/mailtrap
p2169
F0.0015567179104394335
sVmdo/feedback
p2170
I0
sVnecolas/idiomatic-css
p2171
I0
sValexvollmer/clip
p2172
F0.0035407118001201483
sVlancecarlson/couchgo
p2173
F0.5465821638750565
sVjnunemaker/feedzirra
p2174
F0.010255863420476886
sVscharfie/facebox
p2175
F0.00011128663347978369
sVyinwang0/ydiff
p2176
F1.0
sVlancecarlson/lancecarlson.github.com
p2177
I0
sVchovy/wineapp_1
p2178
F0.000465090586348275
sVdesandro/demo
p2179
F0.0011535791870012618
sVdrnic/chef-repo
p2180
F0.0005351489049348144
sVnorbauer/openssh-for-git
p2181
F0.00021029020916808275
sVgspederson/practice_game_of_life
p2182
I0
sVtopfunky/ember.js
p2183
F0.008214917627275784
sVmiyagawa/asana_digest
p2184
F0.0006748877408619542
sVnecolas/suit-button-group
p2185
I0
sVerica/ibrowser
p2186
F0.03584031567360861
sVvim-scripts/A-Silly-Girl
p2187
I0
sVcommonsguy/cwac-loaderex
p2188
F0.012499422240123606
sVnathanmarz/nanny
p2189
F0.0019933418018671352
sVrtomayko/discount
p2190
F0.034431187147979166
sVvanpelt/jekyll
p2191
F0.002153490774075036
sVibdknox/cljs-template
p2192
I0
sVcommonsguy/cwac-layouts
p2193
F0.012499422240123606
sVdanielharan/github_resys
p2194
F0.0005327930594311625
sVphilsturgeon/codeigniter-payments
p2195
F0.01600885872622092
sVglassesfactory/GFGAETweet
p2196
F0.054623900654483935
sVogc/rails_skeleton
p2197
F0.004865688908121405
sVjosh/bundler
p2198
F0.024764275958782625
sVyinwang0/blog-cn
p2199
F6.49739536783065e-05
sVdanahern/ruby_game
p2200
F0.000415000784248569
sVelbowdonkey/gitignore
p2201
I0
sValthjs/xx
p2202
I0
sVcanadaduane/osx-space-id
p2203
F0.0015347267013044116
sVlancecarlson/Gajure
p2204
I0
sVjsierles/clickatell
p2205
F0.004251805166617173
sVkamal/will_paginate
p2206
F0.011118846826025151
sVhenrik/exception_logger
p2207
F0.001352379310964787
sVjacobian/django-sitetree
p2208
I0
sVvanpelt/delayed_job
p2209
F0.003665447619945084
sVMarak/ANSIdom
p2210
F5.110886179028967e-05
sVjacobian/metrology
p2211
F0.007349646305021797
sVmadrobby/fancy-zoom
p2212
I0
sVjdhuntington/magit
p2213
F0.002012716102440013
sVkamal/geekcamp-hub
p2214
F0.00011733707301169675
sVdanielharan/hansard_scraper
p2215
F0.0019064989717974296
sVrichhickey/clojure-clr
p2216
F1.0
sVmdo/mdo-df-css
p2217
I0
sVcloudwu/lua-serialize
p2218
F0.003970934286212306
sVpkrumins/endtable
p2219
F0.0010083889351959257
sVtopfunky/emacs-starter-kit
p2220
F0.011017059118031428
sVrtomayko/rbtrace
p2221
I0
sVmadrobby/emile
p2222
F0.0002758342711112662
sVjosh/components-jquery
p2223
F7.679127814901621e-08
sVlifo/lifo.github.com
p2224
I0
sVvim-scripts/accentuate.vim
p2225
F0.0021659823169857873
sVmathiasbynens/html5shiv
p2226
F0.0019091506278838856
sVjosh/brew-gem
p2227
F0.00019441924998558595
sVguille/chrome-spdy-indicator
p2228
F1.0153513444147697e-06
sVjoehewitt/nerve
p2229
F0.0006097398132316661
sVrichhickey/clojure-contrib
p2230
F0.7266781562403255
sVlancecarlson/aasm
p2231
I0
sVayende/courses-ravendb-fleet-street-nov-2012
p2232
F0.006460365656696169
sVhenrik/albino
p2233
I0
sVjacobian/djangobook.com
p2234
F0.0017749719837486056
sVcdcarter/cdcarter.github.com
p2235
I0
sVdesandro/lists
p2236
I0
sVkoush/android_device_generic
p2237
F0.0020764105301217264
sVdanielharan/people_you_may_know
p2238
F0.0008467404707599277
sVcanadaduane/merb_active_admin
p2239
F0.0017210071363519981
sVmacournoyer/cache_digests
p2240
F0.0014130113347166694
sVjschairb/enrollment_service
p2241
F0.00348937916651426
sVJia-Liu/CCIndex
p2242
I0
sVantirez/linenoise
p2243
F0.002833973244262323
sVjnunemaker/flipper
p2244
F0.01601602966877432
sVginatrapani/Social-Timeline
p2245
I0
sVvim-scripts/3DGlasses.vim
p2246
F0.0033085555133245685
sVmacournoyer/macournoyer.github.com
p2247
I0
sVjdhuntington/bus-scheme
p2248
F0.024695661746493344
sVagentzh/headers-more-nginx-module
p2249
F0.06840897035486562
sVcommonsguy/cwac-task
p2250
F0.0006015569592730351
sVjoehewitt/ajax
p2251
F2.6015178564038932e-05
sVlancecarlson/kissgen
p2252
F0.0015149326507167661
sVtopfunky/castanaut
p2253
F0.004457755660383793
sValexvollmer/github-gem
p2254
F0.008355192066504279
sVJakeWharton/gms-mvn-install
p2255
F0.0008223833330311172
sVdaikini/fityk-ruby
p2256
F0.0093271997344467
sVDoogiemuc/Dokuwiki-Plugin-Doodle2
p2257
F0.002405626215918471
sVantirez/iPhoneTracker
p2258
I0
sVmadrobby/logo.js
p2259
I0
sVscharfie/backbone-deep-model
p2260
I0
sVmoodlehq/mymoodle
p2261
F0.16859535010409113
sVrtomayko/astrotrain
p2262
F0.004874740314530173
sVsoffes/iphone-library-test-library
p2263
F0.00015634946838940782
sVmislav/cook
p2264
F0.00019156743700748106
sVrdempsey/Coupon-Tracker-Test-App
p2265
F0.002591058078411218
sVagentzh/linguist
p2266
F0.010228089241907516
sVrbazinet/poi
p2267
I0
sVsebastianbergmann/phpunit-mock-objects
p2268
F0.021959711291058576
sVleah/django-elsewhere
p2269
F0.0024858833081643646
sVmiyagawa/App-perlbrew
p2270
F0.018921911075601806
sVAlexanderFlatscher/portfolio
p2271
F0.07334354055025231
sVMarak/node_hash
p2272
F2.6586846968037164e-05
sVmacournoyer/is_taggable
p2273
F0.001066082086336778
sVmerb/merb.github.com
p2274
I0
sVmadrobby/bitarray.js
p2275
F1.7252440490812307e-05
sVautomatthew/desire
p2276
F0.005486392202399367
sVakitaonrails/gitstats-ruby
p2277
I0
sVNZKoz/dropwizard
p2278
F0.046999884890070016
sVmjankowski/sms-fu
p2279
F0.001053434915738226
sVrtomayko/redcarpet
p2280
F0.007932367979117007
sVginatrapani/why_i_love_github
p2281
I0
sVantirez/load81
p2282
F0.2582196705595259
sVayende/courses-stockholm-oct-2012
p2283
F0.007041798565798823
sVhassox/hashie
p2284
F0.0028458613684114596
sVerica/ABContactHelper
p2285
F0.020833006671955968
sVakitaonrails/factory_girl
p2286
F0.010919963868769486
sVvim-scripts/A-better-tcl-indent
p2287
F0.0015413444823138703
sVguille/connect
p2288
F0.0017432729347177719
sVhenrik/atomica
p2289
F0.0006138837415042321
sVsstephenson/coffee-script
p2290
F0.9479861577639945
sValexvollmer/tuneup_js
p2291
F0.002138487757972832
sVAlexanderFlatscher/puzzlesFrontEnd
p2292
F0.022248529482299287
s.