ccollections
defaultdict
p0
(tRp1
Vnecolas/suit-utils-dimension
p2
I0
sVezmobius/nanite
p3
F0.411933381662498
sVnorbauer/sprocket_express
p4
F0.11804524976183338
sVezmobius/redis-rb
p5
F0.35483791385010116
sVguille/emitter
p6
F0.07424278630742577
sVvanpelt/merb-core
p7
F1.0
sVvim-scripts/256-jungle
p8
F1.0
sVjschairb/glowstone
p9
I0
sVMarak/natman
p10
F0.09672023418364299
sVdesandro/dropshado.ws
p11
F1.0
sVmerb/merb_activerecord
p12
F0.05444811762964425
s.