ccollections
defaultdict
p0
(c__builtin__
set
p1
tp2
Rp3
VXML
p4
g1
((lp5
Vsebastianbergmann/phpunit-documentation
p6
aVmoodlehq/moodle-local_ci
p7
aVNZKoz/MailCore
p8
atp9
Rp10
sVJava
p11
g1
((lp12
Vtteofili/btl
p13
aVnathanmarz/elephantdb
p14
aVnzakas/combiner
p15
aVibdknox/aichallenge
p16
aVtteofili/m2s
p17
aVcommonsguy/cwac-viewswiper
p18
aVasseym/android-sms-relay
p19
aVcommonsguy/cw-advandroid
p20
ag6
aVTeclis01/rtsGenerator
p21
aVJakeWharton/ActionBarSherlock
p22
aVlancecarlson/merb
p23
aVnzakas/props2js
p24
aVcommonsguy/cwac-parcel
p25
aVkoush/android_system_core
p26
aVJakeWharton/heroku-java
p27
aVAlexanderFlatscher/sbicktAndroid
p28
aVJakeWharton/Android-MapForgeFragment
p29
aVrichhickey/clojure
p30
aVnathanmarz/cascalog
p31
aVnathanmarz/cascading-batch-query
p32
aVnzakas/buildr
p33
aVcommonsguy/cwac-endless
p34
aVnathanmarz/cascalog-contrib
p35
aVcommonsguy/cwac-layouts
p36
aVJakeWharton/Android-DirectionalViewPager
p37
aVjdhuntington/Learnr
p38
aVJakeWharton/adjacent-fragment-pager-sample
p39
aVautomatthew/ruby2java
p40
aVkoush/android_build
p41
aVJakeWharton/butterknife
p42
aVcanadaduane/NewPing
p43
aVcommonsguy/cwac-colormixer
p44
aVcanadaduane/alfred2-ruby-framework
p45
aVcommonsguy/cwac-anddown
p46
aVcommonsguy/cwac-mmcursor
p47
aVcanadaduane/node-serialport
p48
aVkoush/android-websockets
p49
aVkamal/cucumber
p50
aVnathanmarz/kestrel
p51
aVginatrapani/todo.txt-touch
p52
aVnathanmarz/dfs-datastores-cascading
p53
aVkoush/android_vendor_cyanogen
p54
aVkoush/android_packages_apps_Launcher2
p55
aVJakeWharton/Android-ViewPagerIndicator
p56
aVkoush/android_packages_apps_Superuser
p57
aVstepbystep55/joplin
p58
aVcommonsguy/cwac-strictmodeex
p59
aVrichhickey/clojure-clr
p60
aVcommonsguy/cwac-loaderex
p61
aVJakeWharton/BreakoutWallpaper
p62
aVJakeWharton/github-deploy-maven-plugin
p63
aVcommonsguy/cwac-wakeful
p64
aVJakeWharton/ActionBarSherlock-Plugin-Maps
p65
aVJakeWharton/ActivityCompat2
p66
aVJakeWharton/domainr-java
p67
aVstepbystep55/procs
p68
aVnathanmarz/leiningen
p69
aVnathanmarz/jzmq
p70
aVkafka399/Java
p71
aVstepbystep55/its-me-baby
p72
aVcommonsguy/cwac-prefs
p73
aVcommonsguy/cw-andtutorials
p74
aVmislav/eventmachine
p75
aVcommonsguy/cwac-merge
p76
aVjosh/ace
p77
aVcommonsguy/cwac-thumbnail
p78
aVcanadaduane/Adafruit-ST7735-Library
p79
aVtteofili/cpt
p80
aVlukestar/cekt
p81
aVJakeWharton/DocBrown
p82
aVmacournoyer/eventmachine
p83
aVdanahern/java_game
p84
aVmoodlehq/sample-ws-clients
p85
aVnathanmarz/serializable-fn
p86
aVmacournoyer/min
p87
aVtteofili/jackrabbit-oak
p88
aVcommonsguy/cwac-sacklist
p89
aVcommonsguy/cw-omnibus
p90
aVcommonsguy/cwac-richedit
p91
aVmoodlehq/functional-test-suite
p92
aVnathanmarz/elephantdb-cascalog
p93
aVnzakas/cssembed
p94
aVcommonsguy/cwac-task
p95
aVkoush/android_packages_wallpapers_Basic
p96
aVcommonsguy/cwac-custmenu
p97
aVnathanmarz/storm
p98
aVup_the_irons/jenkins-hipchat-plugin
p99
aVrmurphey/ffconf-mulberry-demo
p100
aVtteofili/samplett
p101
aVkoush/android_frameworks_base
p102
aVcommonsguy/cw-lunchlist
p103
aVnzakas/play
p104
aVcommonsguy/cwac-bus
p105
aVakitaonrails/jruby_calculator_demo
p106
aVtteofili/nlp-utils
p107
aVilazebny/ci_test
p108
aVelbowdonkey/flightcontrol
p109
aVnathanmarz/dfs-datastores
p110
aVcommonsguy/cw-android
p111
aVhassox/bcrypt-ruby
p112
aVcommonsguy/cw-andtuning
p113
aVJakeWharton/NineOldAndroids
p114
aVnathanmarz/elephantdb-cascading
p115
aVJakeWharton/apibuilder
p116
aVnzakas/yuitest
p117
aVcommonsguy/cwac-touchlist
p118
aVtteofili/sedtum
p119
aVNZKoz/dropwizard
p120
aVcanadaduane/alfred2-dropbox
p121
aVJakeWharton/guiceymongo-generator-maven-plugin
p122
aVstepbystep55/morrison
p123
aVcommonsguy/cwac-updater
p124
aVroland/ShowTracker
p125
aVnathanmarz/carbonite
p126
aVtteofili/le11-nls
p127
aVkoush/androidmono
p128
aVcommonsguy/cwac-adapter
p129
aVkoush/AndroidAsync
p130
aVJakeWharton/HanselAndGretel
p131
aVDoogiemuc/gwt-comp-tagging
p132
aVjosh/emacs
p133
aVfloydprice/helloworld
p134
aVcommonsguy/cwac-locpoll
p135
aVnzakas/professional-javascript
p136
atp137
Rp138
sVScala
p139
g1
((lp140
g77
ag51
ag16
aVrtomayko/dotfiles
p141
ag101
ag120
aValthjs/bs
p142
ag104
ag110
atp143
Rp144
sVEmacs Lisp
p145
g1
((lp146
Vtopfunky/cappuccino
p147
aVrobbevan/emacs
p148
aVsstephenson/coffee-mode
p149
aVjdhuntington/rinari
p150
aVjosh/git
p151
aValexvollmer/emacs-starter-kit
p152
aVjosh/elpa
p153
aVpsi/vagrant
p154
aVjdhuntington/less-css-mode
p155
aVjdhuntington/emacs-starter-kit-customization
p156
aVyinwang0/ydiff
p157
aVjdhuntington/magit
p158
aVrobbevan/aquamacs-emacs-starter-kit
p159
aVjosh/emacs-color-theme-solarized
p160
aVjosh/emacs.d
p161
aVcdcarter/io
p162
aVhassox/haml
p163
aVtopfunky/emacs-starter-kit
p164
aVgarybernhardt/dotfiles
p165
aVrobbevan/omnifocus.el
p166
aVjdhuntington/emacs-starter-kit
p167
aVjdhuntington/rspec-mode
p168
ag133
aVjdhuntington/dotfiles
p169
ag69
aVgarybernhardt/pycomplexity
p170
atp171
Rp172
sVDelphi
p173
g1
((lp174
g133
aVrobbevan/ruby-ole
p175
atp176
Rp177
sVJavaScript
p178
g1
((lp179
Vjosh/backbone
p180
aVrmurphey/arduino-display
p181
ag16
aVguille/emitter
p182
aVvanpelt/merb-core
p183
aVMarak/natman
p184
aVglassesfactory/yarinage.js
p185
aVdanahern/demo_app
p186
aVdesandro/close-pixelate
p187
aVkamal/gitx
p188
aVjnunemaker/flipper-ui
p189
aVrmurphey/frontend-dev-baseline
p190
aVautomatthew/patchboard
p191
aVchovy/offline-app
p192
aVrmurphey/dojo-transformers
p193
aVmmower/alonetone
p194
aVMarak/javascript-fu
p195
aVjazzyfox/FixedColumns
p196
aVsstephenson/eve
p197
aVjschairb/jschairb.github.com
p198
aVMarak/css_to_json
p199
aVjdhuntington/game-checker
p200
aVdesandro/3dtransforms
p201
aVjacobian/django-debug-toolbar
p202
aVfelixge/felixge.de
p203
aVelbowdonkey/axonome
p204
aVsstephenson/jquery-pjax
p205
aVtopfunky/cache.js
p206
aVhenrik/delishlist.com
p207
aVsharkcz/jquery-ui
p208
aVtopfunky/backbone-couchdb
p209
aVayende/NHibernate-London-May
p210
aVdesandro/get-size
p211
aVakitaonrails/fisl_10_demo
p212
aVantirez/redis-io
p213
aVrobbevan/jquery-select-autocomplete
p214
aVvanpelt/instimage
p215
ag48
aVjdhuntington/learning
p216
aVmislav/developer.dnsimple.com
p217
aVmadrobby/creditcard_js_underscore
p218
aVded/morpheus
p219
aVmmower/homebrew
p220
aVasseym/rapidsms-contact
p221
aVNZKoz/rails
p222
aVibdknox/chris-granger.com
p223
aVglassesfactory/kazitori-long-example
p224
ag169
aVglassesfactory/Tween24
p225
aVmathiasbynens/320andup
p226
aVguille/express-trace
p227
aVguille/jade
p228
aVjoehewitt/copper
p229
aVglassesfactory/WorldWordWeb
p230
aVnzakas/rebuild
p231
aVouterim/homebrew
p232
aVpkrumins/defined
p233
aVtopfunky/couchrest
p234
aVautomatthew/ascribe
p235
aVjoehewitt/api.js
p236
aVmacournoyer/faye
p237
aVelbowdonkey/js_state
p238
aVjosh/closure-compiler
p239
aVmadrobby/jsnes
p240
aValthjs/althjs.github.com
p241
aVdesandro/get-style-property
p242
aVMarak/node-backbone-request
p243
aVakitaonrails/depot
p244
aVjoehewitt/datetime
p245
aVcanadaduane/Hipchat
p246
aVsstephenson/bats
p247
aVnecolas/grunt-release
p248
aVdrnic/blinksale-greasemonkey
p249
aVrmurphey/dojo-scaffold
p250
aVtopfunky/demo-vows-callbacks
p251
ag77
aVrtomayko/node-bertrpc
p252
aVmadrobby/js-animation-course
p253
aVdanielharan/our-parliament
p254
aVayende/NHibernate-Warsaw-Course-Code
p255
aVcreationix/embedder
p256
aVguille/kibi
p257
aVnecolas/grunt-usemin
p258
aValexvollmer/alexvollmer.com
p259
aVcowboy/css-misc
p260
aVmattslack/radiant-mediamaid-extension
p261
aVadam/exceptionalauthentication
p262
aVMarak/ohh
p263
aVJeffreyWay/jeffreyway.github.com
p264
aVfelixge/ack
p265
aVmislav/freckle-apidocs
p266
aVkamal/webrat
p267
aVdanielharan/presenter_test
p268
aVjdhuntington/swagger-ui
p269
ag88
aVasseym/ureport-project
p270
aVentryway/pebbles
p271
aVlancecarlson/dm-more
p272
aVjacobian/django
p273
aVguille/mocha
p274
aVjnunemaker/fancy-zoom
p275
aVleah/mightylemon
p276
aVmmower/elysium
p277
aVjschairb/purikura
p278
aVleegee/Mootools-Knob
p279
aVnzakas/jshint
p280
aVrmurphey/ffco
p281
aVNZKoz/MiniProfiler
p282
aVrbazinet/simplelog
p283
aVchovy/nodejs-stream
p284
aVjoehewitt/fool
p285
aVded/Kizzy
p286
aVDmitryBaranovskiy/rappar
p287
aVkamal/juggernaut
p288
aVmadrobby/enterprise-css
p289
aVdanielharan/bort
p290
aVvanpelt/vandev
p291
aVmjankowski/polepin
p292
aVcowboy/grunt-jquery-example
p293
aVsstephenson/dnsserver.js
p294
aVnecolas/newsriver-ui
p295
aVhenrik/henrik.nyh.se
p296
aVrtomayko/gitscm
p297
ag152
aVkamal/celerity
p298
aVelbowdonkey/screw-unit
p299
aVrmurphey/bvjs
p300
aVfelixge/commander.js
p301
aVDoogiemuc/Dokuwiki-Plugin-InlineEdit
p302
aVtopfunky/datamapper.github.com
p303
aVchovy/boilerplates
p304
aVDmitryBaranovskiy/raphaeljs.com
p305
aVvanpelt/evercookie
p306
aVayende/nagarot
p307
aVginatrapani/greasemonkey-multi-script-compiler
p308
aVjschairb/project_w
p309
aVhede/first_app
p310
aVagentzh/jemplate
p311
aVjwhitmire/excelinator
p312
aVdesandro/jtetypes
p313
aVmacournoyer/meshu
p314
aVdanielharan/miniblog
p315
aVdesandro/make-julesmarie-cry
p316
aVcowboy/javascript-linkify
p317
aVlancecarlson/merb-core
p318
aVjosh/css-explain
p319
aVjoehewitt/ore
p320
aVmoodlehq/block-spam_deletion
p321
aVnzakas/yui3-gallery
p322
aVjoehewitt/mkdir
p323
aVtopfunky/cascadiajs.github.com
p324
aVlifo/journey_demo
p325
aVAlexanderFlatscher/bakk1todo
p326
aVlancecarlson/corpus
p327
aVmacournoyer/pusher
p328
aVcreationix/corn
p329
aVtopfunky/geddy
p330
aVjacobian/chucks
p331
aVkamal/phantomjs-driver
p332
aVjdhuntington/showdown
p333
aVded/sqwish
p334
ag147
aVtjogin/naive-search
p335
aVnextgen666/nxgsrtg
p336
aVjsierles/chef
p337
aVleegee/mootools-core
p338
aVscharfie/backbone.bootstrap-modal
p339
aVguille/latency-io
p340
aVjdhuntington/codename-chicane
p341
aVnzakas/jstools
p342
aVibdknox/gambit
p343
aVmathiasbynens/jquery
p344
aVakitaonrails/cramp_chat_demo
p345
aVjschairb/photos
p346
aVcdcarter/loudmouth-web
p347
aVstepbystep55/f2j
p348
aVglassesfactory/GFTweet
p349
aVded/jquery.rtl.js
p350
aVded/CalEnder
p351
aVjschairb/boomtown
p352
aVasseym/rapidsms-ureport
p353
aVGreenRover/RedmineThemePixelCookers
p354
aVMarak/ospriet
p355
aVnecolas/delegate
p356
aVded/qwery
p357
aVsoffes/geminabox
p358
aVlifesinger/lifesinger.github.com
p359
aVnecolas/starter-kit
p360
aVginatrapani/Smarterware
p361
ag33
aVguille/ios6-bugs
p362
aVup_the_irons/altered_beast
p363
aVded/valentine
p364
aVadam/taxnstuff
p365
aVglassesfactory/GFS.I.OAS3
p366
aVrobbyrussell/faker
p367
aVguille/jsconf-todo-demo
p368
aVcdcarter/bootstrap
p369
aVmathiasbynens/grunt-zopfli
p370
aVleegee/MooTools-PcmImage
p371
aVmoodlehq/moodle-local_codechecker
p372
aVginatrapani/narrowthegapp
p373
aVantirez/lamernews
p374
aVcowboy/grunt-gruntfile-example
p375
aVnecolas/project-euler
p376
aVguille/expresso
p377
aVjoehewitt/scrollability
p378
aVlifo/enlighten-websockets
p379
aVded/ender-tipsy
p380
aVayende/lucene.net
p381
aVpsi/homebrew
p382
aVmacournoyer/macournoyer.com
p383
aVmathiasbynens/brnfckr
p384
aVAlexanderFlatscher/puzzlesFrontEnd
p385
aVkamal/chosen
p386
aVfelixge/cakephp
p387
aVjwhitmire/llor-nu-legacy
p388
ag58
aVDmitryBaranovskiy/brackets
p389
aVjschairb/enrollment_service
p390
aVmoodlehq/moodlemobile
p391
aVMarak/pdf.js
p392
aVcanadaduane/cinemaker.us
p393
aVguille/gitfollow
p394
aVglassesfactory/techlab3-py
p395
aVelbowdonkey/gcode_to_canvas
p396
aVhenrik/git-tmbundle
p397
aVmislav/diveintohtml5
p398
aVdesandro/css3please
p399
aVcanadaduane/limescripts
p400
aVhornbeck/fuzed
p401
aVcowboy/benalman.com-OLD
p402
aVglassesfactory/gae-spreadsheet-example
p403
aVpkrumins/geom-vec
p404
aVmadrobby/downtime
p405
aVezmobius/merbivore
p406
aVautomatthew/djinn
p407
aVakitaonrails/demo_responds_to_parent
p408
ag117
aVlifo/docrails
p409
aVcowboy/javascript-library-boilerplate
p410
aVup_the_irons/node-autocomplete
p411
aVJakeWharton/jakewharton.com
p412
aVayende/Kalahari.Resort
p413
aVfelixge/fab
p414
aVnathanmarz/clojars-web
p415
aVcowboy/javascript-getclass
p416
aVjnunemaker/aaws
p417
aVjoehewitt/dandy
p418
aVphilsturgeon/fuelphp-gettingstarted
p419
aVkamal/rails
p420
aVlancecarlson/fog
p421
aVMarak/nconf
p422
aVMarak/node_mailer
p423
aVmoodlehq/moodle-local_phppgadmin
p424
ag90
aVmislav/bats
p425
aVMarak/asciimo
p426
aVjacobian/django-shorturls
p427
ag98
aVMarak/play.js
p428
aVmathiasbynens/grunt-esmangle
p429
aVcreationix/bench-suite
p430
aVjsierles/kayak
p431
aVcanadaduane/mycast
p432
aVjosh/ejs
p433
aVGreenRover/jquery-ui
p434
aVjoehewitt/nerve
p435
aVglassesfactory/study-modan-dev
p436
aVJeffreyWay/Reminders
p437
aVjosh/dotjs
p438
aVweierophinney/avalanche
p439
aVsebastianbergmann/phpunit
p440
aVded/reqwest
p441
aVakitaonrails/enki
p442
aVmathiasbynens/GetCountries
p443
aVcowboy/comment.aculo.us
p444
aVcowboy/javascript-hooker
p445
ag151
aVcdcarter/ticketrequests
p446
aVmerb/merb-core
p447
aVmadrobby/Evidence
p448
aVhassox/chain
p449
aVvanpelt/sigmod
p450
aVscharfie/gabby
p451
aVtopfunky/geddy-coffee-script-demo
p452
aVphilsturgeon/ee2-widgets
p453
aVjosh/connect
p454
aVrmurphey/johnny-five
p455
aVMarak/npmtop
p456
aVmattslack/radiant
p457
aVJeffreyWay/jquery.styleWords
p458
aVdesandro/jquery-bridget
p459
aVtopfunky/castanaut
p460
aVcreationix/couch-client
p461
aVmadrobby/acornkittens
p462
aVcreationix/eventemitter-browser
p463
aVibdknox/ibdknox.github.com
p464
aVmerb/merb-gen
p465
aVmathiasbynens/escodegen
p466
aVjdhuntington/dieselisation
p467
aVdanielharan/postal_code_to_edid_webservice
p468
aVrmurphey/blog-octopress
p469
aVtopfunky/demo-mocha-watch-bug
p470
aVfelixge/fab-json
p471
aVhassox/jetski
p472
aVmacournoyer/confoo
p473
aVded/script.js
p474
aVJeffreyWay/MessageBox
p475
aVayende/Macto
p476
aVphilsturgeon/codeigniter-template
p477
aVmathiasbynens/grunt-yui-compressor
p478
aVdrnic/blue-ridge
p479
aVrobbyrussell/rubyurl
p480
aVjacobian/djangobench
p481
aVibdknox/ChromaShift
p482
aVginatrapani/todo.txt-html5
p483
aVMarak/machine.js
p484
aVrmurphey/github-viewer
p485
aVdanahern/app_sleuth
p486
aVleah/suggestorama
p487
aVnzakas/xauth
p488
aVjazzyfox/discourse
p489
aVcreationix/cell
p490
aVjschairb/collaboration
p491
aVMarak/Faker.js
p492
aVcowboy/javascript-packify
p493
aVtopfunky/cappuccino-couchdb
p494
aValthjs/node
p495
aVcreationix/builder
p496
aVpkrumins/invoice
p497
aVguille/express
p498
aVasseym/rapidsms-generic
p499
aVdesandro/infinite-scroll
p500
aVjvantuyl/ansible
p501
aVmadrobby/dom-monster
p502
aVmmower/jscocoa
p503
aVlifo/journey
p504
aVcowboy/javascript-debug
p505
aVleegee/MilkChart
p506
ag142
aVdesandro/jshint.tmbundle
p507
aVcowboy/grunt
p508
aVmathiasbynens/browser-diet
p509
aVrmurphey/bloody-jquery-plugins
p510
aVsstephenson/everyjs.com
p511
aVmadrobby/microjs.com
p512
aVglassesfactory/GFWindowObserver
p513
aVrobbevan/chanko_sample
p514
aVnecolas/event
p515
aVayende/course-jul-25
p516
aVMarak/badjitsu
p517
aVhenrik/bookmarks_bar_keyboard_shortcuts
p518
aVJeffreyWay/Blog-Expenses
p519
aVxhr/creamy
p520
aVsstephenson/kinect
p521
aVcdcarter/gingko
p522
aVcreationix/divclock
p523
aVjoehewitt/devon
p524
aVdaikini/chunky_bacon
p525
ag150
aVcowboy/grunt-node-example
p526
aVMarak/node-stats
p527
aVjosh/bower
p528
aVelbowdonkey/impsock
p529
ag50
aVjoehewitt/hascan
p530
aVtopfunky/demo-simplest-socket-io
p531
ag52
aVdaikini/kato
p532
aVMarak/node-kiwf
p533
aVhenrik/hasmygembuiltyet
p534
aVded/bowser
p535
aVMarak/JSLINQ
p536
aVvanpelt/fancy-zoom
p537
aVchovy/tabbed-navigation
p538
aVrmurphey/dojo-sandbox
p539
aVdrnic/cf-release
p540
aVelbowdonkey/infiniteexcitebike
p541
aVstepbystep55/nardove
p542
aVrdempsey/Coupon-Tracker-Test-App
p543
aVmdo/inca
p544
aVpkrumins/heatwave
p545
aVdesandro/html5-boilerplate
p546
aVNZKoz/sillytestapp
p547
aVdrnic/cf-docs
p548
aVlifesinger/dew
p549
aVscharfie/facebox
p550
aVpsi/docs.vagrantup.com
p551
aVmathiasbynens/istanbul
p552
aVsstephenson/nodeunit
p553
aVentryway/entryway.github.com
p554
aVlifo/cramp
p555
aVmattslack/annual-aggregator
p556
aVakitaonrails/CoffeeScript-Demonstration
p557
aVguille/APNG
p558
aVnzakas/nui
p559
aVleah/solitaire-anywhere
p560
aVrtomayko/MiniProfiler
p561
aVautomatthew/shred
p562
aVcreationix/coffeepot
p563
aVfelixge/campusparty-2012-code
p564
aVdrnic/8cpj
p565
aVJakeWharton/abs.io
p566
aVchovy/express-template-demo
p567
aVguille/jshint
p568
aVmathiasbynens/Faker.js
p569
aVcdcarter/statister
p570
aVglassesfactory/GFGAETweet
p571
aVguille/define.js
p572
aVjosh/eve
p573
aVlancecarlson/flails
p574
aVlifo/cramp_chat_demo
p575
aVrichhickey/clojure-contrib
p576
aVvanpelt/jsawesome
p577
aVNZKoz/sprockets
p578
aVnextgen666/phpbb3
p579
aVmadrobby/creditcard_js
p580
aVentryway/headwater
p581
aVmathiasbynens/cdnjs
p582
aVchovy/express-force-domain
p583
aVcreationix/continuable
p584
aVkafka399/newsCrawl
p585
aVjazzyfox/DataTables
p586
aVcowboy/D8
p587
aVdesandro/classie
p588
ag102
aVhede/sample_app
p589
aVmdo/ratchet
p590
aVdesandro/dropshado.ws
p591
aVded/domready
p592
aVjsierles/globalize_translator
p593
aVMarak/data-behaviors
p594
aVcanadaduane/casperjs
p595
aVasseym/rapidsms-xforms
p596
aVded/klass
p597
aVnzakas/oocss
p598
aVdanielharan/mp-ca-scraper
p599
aVnextgen666/ProsilverME
p600
aVnzakas/fireunit
p601
aVhornbeck/blerb-core
p602
aVcreationix/chicagowebconf2012
p603
aVfelixge/fab-basic-auth
p604
aVcreationix/brozula
p605
aVcowboy/javascript-emotify
p606
aVakitaonrails/answers_demo
p607
aVtopfunky/bigapp
p608
aVmislav/async-upload
p609
aVMarak/JSONloops
p610
aVded/R2
p611
aVcowboy/grunt-gruntplugin-example
p612
aVdesandro/bootstrap
p613
aVrtomayko/lesscode.org
p614
aVded/sink-test
p615
aVsebastianbergmann/phpOpenTracker
p616
aVup_the_irons/ram
p617
aVautomatthew/ambition
p618
aVdesandro/FitText.js
p619
aVmerb/merb
p620
aVautomatthew/rephraser
p621
aVpkrumins/browser-badge-cached
p622
aVdanielharan/biximo
p623
aVAlexanderFlatscher/alexanderflatscher.github.com
p624
aVjoehewitt/express-logger
p625
aVlifesinger/backbone
p626
aVjoehewitt/transformjs
p627
aVcreationix/detectindent
p628
aVkamal/geekcamp
p629
aVguille/chromekit
p630
aVcowboy/battlelog-hacks
p631
aVjacobian/djobs
p632
aVsstephenson/node-coffee-project
p633
aVJeffreyWay/Backbone--RequireJS--and-Testem-Boilerplate-Project
p634
ag127
aVup_the_irons/cacheable-flash
p635
aVlifesinger/requirejs
p636
aVezmobius/vcap-tests
p637
aVrobbevan/facebooker
p638
aVsstephenson/execjs
p639
aVjoehewitt/express-store
p640
aVcreationix/creationix
p641
aVmacournoyer/node-cusec
p642
aVjoehewitt/markdom
p643
aVsstephenson/node
p644
aVcreationix/conductor
p645
aVakitaonrails/call4paperz
p646
aVlancecarlson/amfruby
p647
aVnextgen666/customisation-db
p648
aVjoehewitt/express-rewrite
p649
aVJakeWharton/davealcorn.com
p650
aVJeffreyWay/Quiz-Preparer
p651
aVcreationix/candor.js
p652
aVmerb/merb-auth
p653
aVhenrik/annotate_models
p654
aVelbowdonkey/IsometricMap
p655
aVcdcarter/couchapp
p656
aVded/emile
p657
ag6
ag22
aVMarak/badproject
p658
aVcreationix/adventure
p659
ag23
aVfelixge/buster-docs
p660
aVnzakas/computer-science-in-javascript
p661
aVnzakas/parser-lib
p662
aVtopfunky/ember-tunes-noodling
p663
ag157
aVjosh/homebrew
p664
aVayende/NHibernate-NewYork-Course-Code-Oct-2011
p665
aVayende/courses-new-york-aug-2012
p666
aVjacobian/jellyroll
p667
aVDmitryBaranovskiy/prism
p668
aVjosh/dom-prof
p669
aVrmurphey/Bober
p670
aVtopfunky/ember.js
p671
aVjosh/coffee-script
p672
ag119
aVsstephenson/ndns
p673
aVakitaonrails/cells_demo
p674
aVrobbyrussell/docrails
p675
aVjoehewitt/lookskitchen
p676
aVdesandro/imagesloaded
p677
aVnzakas/yui3-1
p678
aVdesandro/draggabilly
p679
aVDmitryBaranovskiy/raphael
p680
aVjoehewitt/app.js
p681
aVjoehewitt/looker
p682
aVmathiasbynens/BrowserQuest
p683
aVyinwang0/blog-cn
p684
aVmattslack/warehouse
p685
aVAlexanderFlatscher/portfolio
p686
aVJeffreyWay/Backbone-Starter
p687
aVayende/courses-ravendb-stockholm-march-2013
p688
aVjsierles/clickatell
p689
aVcreationix/dombuilder
p690
ag100
aVguille/insights-chrome
p691
aVJeffreyWay/CodeCanyon-Comp-Landing-Page
p692
aVMarak/ANSIdom
p693
aVcdcarter/HouseCounter
p694
aVgarybernhardt/sucks-rocks
p695
aVpkrumins/browserify-website
p696
aVpkrumins/catonmat.net
p697
aVmathiasbynens/HTML5-custom-data-attributes-plugin-for-jQuery
p698
aVcanadaduane/Perspective-Calendar
p699
aVrmurphey/dojo-demo
p700
aVmdo/Redditate
p701
aVkamal/geekcamp-hub
p702
aVmadrobby/box2d-js
p703
aVded/Dagron
p704
aVpkrumins/endtable
p705
aVmislav/dotfiles
p706
aVmadrobby/emile
p707
aVjdhuntington/stresster
p708
aVjosh/components-jquery
p709
aVcreationix/embedder-sync
p710
ag141
aVdrnic/cf-console
p711
aVogc/rails_skeleton
p712
aVmathiasbynens/html5shiv
p713
aVguille/chrome-spdy-indicator
p714
aVayende/NewYork-Course-RavenDB-Nov-2011
p715
aVmmower/bones
p716
ag72
aVibdknox/brepl
p717
aVayende/courses-ravendb-fleet-street-nov-2012
p718
aVdrnic/celerity
p719
aVcreationix/dublin-talk
p720
aVasseym/rapidsms-polls
p721
aVfelixge/chrome-bookmark-bar-shortcuts
p722
aVcanadaduane/merb_active_admin
p723
aVMarak/node-dbox
p724
aVnecolas/necolas.github.com
p725
aVglassesfactory/kazitori.js
p726
aVjoehewitt/diskcache
p727
aVginatrapani/ThinkUp
p728
aVsstephenson/eco
p729
aVMarak/colors.js
p730
aVpkrumins/dnode
p731
aVfelixge/cluster
p732
aVmacournoyer/node-syscalls
p733
aVJakeWharton/EffectiveOpenSource
p734
aVjwhitmire/ruby-on-rails-tmbundle
p735
aVmacournoyer/rbv8
p736
aVmathiasbynens/Dynamic-Carousel
p737
aVfelixge/debuggable-scraps
p738
aVjoehewitt/ajax
p739
aVgarybernhardt/turbolinks_test
p740
aVscharfie/bam
p741
aVcowboy/grunt-commonjs-example
p742
aVDmitryBaranovskiy/elemental
p743
ag165
aVDoogiemuc/Dokuwiki-Plugin-Doodle2
p744
aVouterim/coffer
p745
aVrtomayko/camo
p746
aVscharfie/gnat
p747
aVsstephenson/backbone
p748
aVdesandro/doc-ready
p749
ag104
aVcreationix/colorspin
p750
aVmoodlehq/moodle-local_phpmyadmin
p751
aVcowboy/benalman.com-idea
p752
aVcowboy/javascript-htmlslice
p753
aVfelixge/faster-than-c
p754
aVAlexanderFlatscher/sbicktRails
p755
aVcreationix/conquest
p756
aVhede/demo_app
p757
aVhassox/gabber-client
p758
aVdesandro/eventie
p759
aVpkrumins/endian-toggle
p760
aVjacobian/django-dev-dashboard
p761
aVmathiasbynens/homebrew
p762
aVcreationix/boxcode
p763
ag111
aVcreationix/do
p764
aVded/bonzo
p765
aVdesandro/isotope
p766
aVMarak/node_hash
p767
aVDmitryBaranovskiy/g.raphael
p768
aVdesandro/demo
p769
aVmadrobby/bitarray.js
p770
aVjdhuntington/laizen
p771
aVmadrobby/keymaster
p772
aVrmurphey/grunt-mocha
p773
ag121
aVAlexanderFlatscher/puzzlesBackEnd
p774
aVmmower/Hexdump
p775
aVantirez/load81
p776
aVDmitryBaranovskiy/prefixfree
p777
aVayende/CourseSampleApp
p778
aVMarak/geddy
p779
aVchovy/Chic
p780
aVguille/connect
p781
aVfelixge/codesurgeon
p782
aVMarak/hellonode
p783
aVrobbevan/jekyll-skeleton
p784
aVakitaonrails/dynamic_liquid_templates
p785
aVcreationix/canvasclock
p786
aVsstephenson/coffee-script
p787
aValexvollmer/tuneup_js
p788
aVJeffreyWay/Envato-Marketplace-API--Cookbook
p789
ag136
atp790
Rp791
sVVimL
p792
g1
((lp793
g147
aVrobbevan/vim-twilight
p794
aVxhr/vim-io
p795
aVxhr/vim-nginx
p796
aVvim-scripts/accurev
p797
aVdesandro/dotvim
p798
aVvim-scripts/acsb
p799
aVgarybernhardt/destroy-all-software-extras
p800
aVjschairb/dot_vim
p801
aVfelixge/dotfiles
p802
aVakitaonrails/Command-T
p803
ag154
aVhenrik/git-grep-vim
p804
aVxhr/vimfiles
p805
aVhenrik/dotfiles
p806
aVvim-scripts/a.vim
p807
aVvim-scripts/ACScope
p808
aVvim-scripts/accentuate.vim
p809
aVvim-scripts/A-soft-mellow-color-scheme
p810
aVvim-scripts/A-better-tcl-indent
p811
aVvim-scripts/256-grayvim
p812
aVweierophinney/argumentrewrap
p813
aVzybl880506/project
p814
aVvim-scripts/3DGlasses.vim
p815
aVvim-scripts/256-jungle
p816
aVmathiasbynens/dotfiles
p817
aVvim-scripts/Access-SQL-Syntax-file
p818
aVnecolas/dotfiles
p819
aVvim-scripts/2tex.vim
p820
aVvim-scripts/ack.vim
p821
aVvim-scripts/a-new-txt2tags-syntax
p822
aVsoffes/dotfiles
p823
aVhenrik/CamelCaseMotion
p824
aVvim-scripts/4NT-Bundle
p825
aVvim-scripts/285colors-with-az-menu
p826
aVcowboy/benalman.com-content-OLD
p827
aVvim-scripts/abolish.vim
p828
aVscharfie/janus
p829
ag162
aVvim-scripts/abnf
p830
aVrmurphey/dotfiles
p831
ag165
ag141
aVvim-scripts/2htmlj
p832
aVrobbevan/Vagrantfile.vim
p833
aVvim-scripts/abc-vim
p834
aVgarybernhardt/vim-ruby
p835
aVjosh/dotfiles
p836
aVjazzyfox/vimfiles
p837
aVvim-scripts/accelerated-jk
p838
aVhassox/dotfiles
p839
aVmadrobby/dotvim
p840
aVJeffreyWay/My-Vim-Repo
p841
aVvim-scripts/Acpp
p842
aVup_the_irons/dotfiles
p843
aVvim-scripts/0scan
p844
aVvim-scripts/abap.vim--Piedallu-van-Wyk
p845
aVvim-scripts/ABAP.vim
p846
aVrobbevan/quicksilver.vim
p847
aVhenrik/ack.vim
p848
aVadam/old-dotfiles
p849
aVvim-scripts/abbott.vim
p850
aVvim-scripts/acomment
p851
ag170
atp852
Rp853
sVPerl
p854
g1
((lp855
Vmiyagawa/catalyst-plugin-authentication-credential-openid
p856
aVmiyagawa/AnyEvent-Twitter-Stream
p857
aVmiyagawa/Acme-Dzil-Test
p858
ag16
aVouterim/stunnel
p859
aVagentzh/appears
p860
aVagentzh/cookiexs
p861
ag6
aVmiyagawa/catalyst-view-json
p862
aVagentzh/makefile-dom-pm
p863
ag345
ag61
aVjsierles/chef_cookbooks
p864
aVmiyagawa/carton
p865
aVmislav/bluecloth
p866
ag337
aVmiyagawa/Corona
p867
aVmiyagawa/AnyEvent-Atom-Stream
p868
aVerica/iphone-3.0-cookbook-
p869
aVmiyagawa/AnyEvent-DBI-Abstract
p870
aVkoush/android_external_busybox
p871
aVmiyagawa/blib-portable
p872
aVagentzh/lua-resty-redis
p873
aVagentzh/lua-resty-memcached
p874
aVakitaonrails/cookbooks
p875
aVmiyagawa/Acme-Blue
p876
ag142
ag508
aVup_the_irons/Ruby-Radius
p877
ag34
aVmiyagawa/AnyEvent-FriendFeed-Realtime
p878
ag36
aVmiyagawa/AnyEvent-mDNS
p879
ag44
aVayende/managed-esent
p880
aVmiyagawa/CGI-Compile
p881
aVagentzh/cheater
p882
aVagentzh/lua-resty-string
p883
aVjsierles/heroku-buildpack-ruby
p884
ag529
aVscharfie/dotfiles
p885
aVjvantuyl/erlbench
p886
ag806
ag134
aVagentzh/lua-resty-dns
p887
ag220
aVagentzh/lua-php-utils
p888
ag382
ag59
ag706
ag64
aVmiyagawa/CGI.pm
p889
aVagentzh/memc-nginx-module
p890
aVmiyagawa/Catalyst-Engine-PSGI
p891
ag240
ag141
aVrtomayko/discount
p892
ag575
aVagentzh/echo-nginx-module
p893
aVmiyagawa/AnyEvent-Redis
p894
aVmiyagawa/ark-perl
p895
aVagentzh/lua-redis-parser
p896
aVrtomayko/rocco
p897
ag73
aVgarybernhardt/webkit
p898
ag76
ag77
aVpkrumins/busy-beaver
p899
aVmiyagawa/backpan-timemachine
p900
aVmiyagawa/CGI-PSGI
p901
aVagentzh/makefile-parser-pm
p902
aVagentzh/memcacheq
p903
ag728
ag265
ag85
aVpkrumins/bitly
p904
aVagentzh/makefile-graphviz-pm
p905
ag46
ag579
aVagentzh/lua-rds-parser
p906
aVmiyagawa/camp
p907
aVcanadaduane/grbl
p908
ag426
ag89
ag90
aVcanadaduane/bio-hmm
p909
ag91
aVagentzh/headers-more-nginx-module
p910
aVezmobius/lua-nginx-module
p911
ag165
aVagentzh/array-var-nginx-module
p912
aVmiyagawa/App-BundleDeps
p913
ag836
aVcowboy/dotfiles
p914
aVagentzh/lua-resty-upload
p915
aVagentzh/dns-nginx-module
p916
aVpkrumins/http-async-retry
p917
aVdrnic/bosh-solo
p918
ag169
aVmiyagawa/App-perlbrew
p919
aVagentzh/lua-resty-mysql
p920
ag440
aVmislav/gorgeous
p921
aVrtomayko/rdiscount
p922
ag762
aVmiyagawa/Acme-YakiniQ
p923
ag151
aVagentzh/chunkin-nginx-module
p924
ag152
ag620
aVrtomayko/replicate
p925
aVmiyagawa/App-FatPacker
p926
ag121
ag311
aVagentzh/dodo
p927
aVrtomayko/redcarpet
p928
ag124
ag636
aVezmobius/super-nginx
p929
ag129
aVagentzh/advent.perlchina.org
p930
ag644
aVagentzh/encrypted-session-nginx-module
p931
ag133
aVmiyagawa/Acme-MillaTutorial
p932
aVmiyagawa/App-PAUSE-Comaint
p933
ag135
ag651
aVmiyagawa/AnyEvent-ReverseHTTP
p934
atp935
Rp936
sVLua
p937
g1
((lp938
g77
ag603
ag605
ag16
aVcloudwu/lua-serialize
p939
ag113
ag216
ag887
ag888
aVcloudwu/lua-int64
p940
aVcloudwu/lua-snapshot
p941
aVcloudwu/lua-db
p942
aVkamal/rufus-tokyo
p943
aVcloudwu/atomdict
p944
aVezmobius/vcap
p945
aVagentzh/jitdemo
p946
ag134
aVjazzyfox/trinketmenu_buttonfacade
p947
ag776
ag873
aVcloudwu/luacc
p948
ag430
ag915
aVcloudwu/skynet
p949
aVcloudwu/attrib
p950
ag883
aVcloudwu/pbc
p951
ag874
aVcloudwu/lua-trace
p952
aVantirez/lua-cmsgpack
p953
aVcloudwu/guess-word
p954
ag920
aVcloudwu/lua-stable
p955
aVgarybernhardt/LuaSpec
p956
atp957
Rp958
sVObjective-J
p959
g1
((lp960
g147
ag494
atp961
Rp962
sVRebol
p963
g1
((lp964
Vkafka399/kaggle-event
p965
atp966
Rp967
sVVerilog
p968
g1
((lp969
g6
atp970
Rp971
sVHaxe
p972
g1
((lp973
g77
atp974
Rp975
sVScheme
p976
g1
((lp977
Vjdhuntington/bus-scheme
p978
ag644
aVezmobius/ez-scheme
p979
ag157
aVyinwang0/lightsabers
p980
ag216
aVhornbeck/arc
p981
atp982
Rp983
sVDOT
p984
g1
((lp985
g6
atp986
Rp987
sVShell
p988
g1
((lp989
Vpsi/puppet-chef
p990
ag14
ag16
ag31
ag338
ag656
aVdrnic/bosh
p991
aVpsi/puppet-vagrant
p992
ag20
aVkoush/android_device_asus_tf201
p993
aVdrnic/bosh-sample-release
p994
aVdrnic/cassandra-boshrelease
p995
ag863
aValexvollmer/janus
p996
ag345
aVzybl880506/rsa
p997
aVjvantuyl/minecraft_stuff
p998
ag660
aVsoffes/bin
p999
ag41
aVjoaoleal/CppADCodeGen
p1000
ag550
ag817
ag33
aVsstephenson/gosh
p1001
aVgarybernhardt/raptor
p1002
ag664
ag819
aVgarybernhardt/blocks
p1003
ag943
ag800
ag193
ag827
aVmoodlehq/mdlrelease
p1004
aVchovy/node-startup
p1005
ag829
aVmmower/mulchworks
p1006
aVgarybernhardt/topaz
p1007
aVdrnic/bootstrap-cf-plugin
p1008
ag308
ag501
ag631
aVkoush/android_device_htc_inc
p1009
ag678
aVNZKoz/cassandra_object
p1010
aVayende/dotnet-protobufs
p1011
aVpsi/runit-rpm
p1012
ag875
ag859
aVjacobian/django-tastypie
p1013
ag87
ag839
ag677
aVzybl880506/noteC
p1014
aVlukas/mailfactory
p1015
aVdrnic/bosh-bootstrap
p1016
ag918
aVasseym/rapidsms-geoserver
p1017
aVjnunemaker/cassandra-cql
p1018
aVerica/NSDate-Extensions
p1019
aVrtomayko/bcat
p1020
aVantirez/redis
p1021
aVzybl880506/acknetworks
p1022
ag372
ag69
ag42
ag803
aVkafka399/githubdata
p1023
aVkafka399/carCount
p1024
ag45
aVkafka399/Rproject
p1025
ag523
ag6
aVgarybernhardt/cls
p1026
aVmoodlehq/moodle-local_amos
p1027
aVpsi/my-boxen
p1028
aVsebastianbergmann/dbunit
p1029
aVerica/datatube
p1030
ag885
ag706
aVjosh/direnv
p1031
ag806
aVup_the_irons/git-winner
p1032
ag52
ag220
ag697
aVgarybernhardt/python-mock-comparison
p1033
ag382
aVfelixge/depmake
p1034
ag700
aVzybl880506/Lik_note
p1035
ag387
aVNZKoz/janus
p1036
ag158
ag389
ag703
aVJakeWharton/mkvdts2ac3
p1037
ag208
ag232
ag538
ag864
ag539
ag540
ag51
aVrtomayko/hem
p1038
ag831
ag981
ag931
ag237
aVJakeWharton/jquery-maven-artifact
p1039
aVmmower/diffly
p1040
ag141
ag400
ag892
ag575
aVmislav/git-deploy
p1041
aVantirez/Gitan
p1042
ag728
aVkoush/android_device_htc_ace
p1043
ag552
ag70
aVJeffreyWay/framework
p1044
ag554
aVNZKoz/cassandra
p1045
aVsebastianbergmann/phpcpd
p1046
ag322
ag717
aVdesandro/dotfiles
p1047
ag266
ag142
ag250
aVsebastianbergmann/phploc
p1048
ag117
ag898
ag77
aVNZKoz/iOSPorts
p1049
ag128
ag568
aVjacobian/ddt
p1050
aVjacobian/django-markupfield
p1051
aVweierophinney/2013-04-04-RestfulZf2-Webinar
p1052
ag154
ag488
aVjacobian/djangobook.com
p1053
ag903
aVantirez/hping
p1054
ag529
aVfelixge/contained
p1055
aVgarybernhardt/base
p1056
aVrtomayko/git-sh
p1057
ag265
ag893
aVpsi/svdir-camper_van
p1058
ag579
ag732
ag88
ag908
ag411
aVfelixge/couchdb-benchmarks
p1059
ag90
ag273
ag92
ag425
ag910
aVdrnic/bosh-getting-started
p1060
ag802
ag276
ag188
ag98
aVkoush/android_device_motorola_sholes
p1061
ag911
aVdesandro/bash-it
p1062
ag165
ag586
aVJakeWharton/gms-mvn-install
p1063
ag744
ag912
ag102
ag836
ag914
ag104
aVkoush/android_device_elocity_a7
p1064
ag591
aVsebastianbergmann/bytekit-cli
p1065
ag280
ag113
ag916
ag750
ag751
ag151
aVjnunemaker/dotfiles
p1066
aVmislav/coral
p1067
aVpsi/dotfiles
p1068
ag596
ag884
aVdrnic/bosh-gen
p1069
aVerica/uicolor-utilities
p1070
aVjschairb/holland
p1071
ag756
aVibdknox/cljs-watch
p1072
ag440
aVerica/iOS-6-Cookbook
p1073
aVpsi/puppet-traktor
p1074
aVkafka399/haxogreen.lu
p1075
aVpsi/strap
p1076
ag26
ag762
aVdrnic/.dotfiles
p1077
ag457
ag296
aVsebastianbergmann/php-project-wizard
p1078
ag924
aVibdknox/.scripts
p1079
ag695
ag766
ag300
ag301
ag450
aVerica/iOS-6-Advanced-Cookbook
p1080
aVginatrapani/todo.txt-cli
p1081
ag674
ag769
ag454
ag353
aVautomatthew/pez
p1082
ag871
ag169
ag121
ag823
ag683
ag927
aVmislav/cane
p1083
aVrobbyrussell/oh-my-zsh
p1084
aVjvantuyl/gunicorn-init
p1085
ag381
ag247
ag634
ag776
ag164
ag7
aVcowboy/gaucho
p1086
aVcowboy/bash-misc
p1087
aVkoush/android_vendor_google_passion
p1088
ag636
ag637
ag929
aVcanadaduane/BraveZealot
p1089
aVkoush/android_external_yaffs2
p1090
aVjwhitmire/dial-a-script
p1091
aVpsi/puppet-quicksilver
p1092
aVantirez/redis-tools
p1093
ag781
ag134
aVkafka399/twittrack
p1094
aVcanadaduane/kopimi-vector
p1095
ag644
aVscharfie/bones
p1096
aVerica/iOS-5-Cookbook
p1097
ag133
aValexvollmer/homebrew
p1098
ag8
ag890
aVkoush/android_device_motorola_targa
p1099
aVerica/Auto-Layout-Demystified
p1100
ag651
ag849
atp1101
Rp1102
sVAssembly
p1103
g1
((lp1104
g151
ag529
atp1105
Rp1106
sVC#
p1107
g1
((lp1108
g77
ag561
ag880
ag688
aVroland/HttpBuildQuery
p1109
ag413
ag16
ag255
ag570
ag210
aVayende/courses-nhibernate-fleet-street-nov-2012
p1110
ag50
aVayende/courses-trondheim-sep-2012
p1111
aVroland/TestServiceStackService
p1112
aVayende/courses-lucerne-oct-2012
p1113
ag381
ag665
aVayende/courses-stockholm-oct-2012
p1114
aVayende/Example.MapReduce
p1115
aVayende/NHibernate-Challanges
p1116
ag306
aVayende/Alexandria
p1117
aVcdcarter/Mantle
p1118
ag666
ag60
aVayende/Effectus
p1119
ag134
ag778
ag128
aVayende/NHibernate-Course
p1120
ag1011
ag594
ag715
aVayende/Degenerated.Storage
p1121
aVayende/Advanced.NHibernate
p1122
aVayende/nhibernate-blog-model
p1123
ag282
ag476
ag516
ag133
ag717
ag718
aVayende/HibernatingRhinos.PhoneBook
p1124
aVayende/IntroToNHibernate
p1125
atp1126
Rp1127
sVAppleScript
p1128
g1
((lp1129
g165
atp1130
Rp1131
sVProcessing
p1132
g1
((lp1133
g542
atp1134
Rp1135
sVCommon Lisp
p1136
g1
((lp1137
g16
atp1138
Rp1139
sVArduino
p1140
g1
((lp1141
g43
atp1142
Rp1143
sVCoffeeScript
p1144
g1
((lp1145
g77
ag180
ag386
ag520
ag787
aVglassesfactory/webgl-example
p1146
ag16
ag409
aVglassesfactory/techlab3-template
p1147
ag669
ag269
ag562
ag686
aVtopfunky/barista
p1148
ag563
ag573
ag185
ag186
ag726
aVautomatthew/ax
p1149
ag300
ag729
ag452
ag578
aVsstephenson/node-matrices
p1150
ag224
ag189
ag454
ag390
ag309
ag121
ag781
ag274
ag149
ag197
ag802
ag395
ag672
ag708
ag235
ag200
ag191
ag740
ag746
ag748
ag400
aVglassesfactory/iOSSafariExample
p1151
ag327
ag509
ag633
aVtjogin/static-skeleton
p1152
ag514
ag626
aVJeffreyWay/My-Starting-Template
p1153
ag436
ag407
ag687
ag557
aVglassesfactory/hagedown
p1154
ag251
atp1155
Rp1156
sVXQuery
p1157
g1
((lp1158
g77
atp1159
Rp1160
sVArc
p1161
g1
((lp1162
g981
atp1163
Rp1164
sVRuby
p1165
g1
((lp1166
Vezmobius/bmhsearch
p1167
aVleah/github-services
p1168
aVscharfie/format_fallback
p1169
ag16
ag183
aVjschairb/paperclip
p1170
aVjwhitmire/heroku-rails
p1171
aVmerb/merb_activerecord
p1172
ag186
ag864
aVjsierles/broach
p1173
aVezmobius/nanite
p1174
aVnorbauer/sprocket_express
p1175
aVrtomayko/mongrel_proctitle
p1176
aVjdhuntington/codekatas
p1177
aVezmobius/redis-rb
p1178
ag189
aVjnunemaker/adapter-memcached
p1179
aVhenrik/blocket_se_feeds
p1180
aVsstephenson/hike
p1181
ag278
ag194
aVpsi/mongrel_proctitle
p1182
aVkamal/ancestry
p1183
aVautomatthew/bitescript
p1184
aVkamal/pickler
p1185
aVrmurphey/blog-jekyll
p1186
ag829
ag1007
ag1008
aVjnunemaker/common_helpers
p1187
aVakitaonrails/disqus
p1188
ag200
aVsoffes/access_control
p1189
ag1010
aVdanielharan/hansard_scraper
p1190
ag1069
aVjnunemaker/flipper
p1191
ag839
aVlancecarlson/anvil
p1192
ag1016
aVmacournoyer/orange
p1193
aVup_the_irons/credit_card_tools
p1194
ag207
ag40
ag1028
aVrobbevan/Specs
p1195
aVsstephenson/minihal
p1196
ag212
aVmmower/dg834statsd
p1197
aVtopfunky/good_form_builder
p1198
ag213
ag106
ag215
aVjsierles/bluepill
p1199
aVnorbauer/cj4r
p1200
ag216
aVdrnic/bcat
p1201
ag1074
ag885
aVautomatthew/filebase
p1202
aVmmower/errata_plugin
p1203
ag217
aVsoffes/adder
p1204
aVautomatthew/activemdb
p1205
ag220
aVmislav/curly
p1206
aVNZKoz/xss_bareback
p1207
ag222
ag223
aVsoffes/hue
p1208
ag943
aVakitaonrails/globalize3
p1209
aVvanpelt/async-observer
p1210
aVantirez/redis-sampler
p1211
aVautomatthew/dotfiles
p1212
ag232
aVhassox/db2fog
p1213
aVhassox/futures
p1214
aVstepbystep55/mapreduce
p1215
aVhenrik/country_select
p1216
ag235
ag237
ag239
ag835
aVhenrik/attachment_fu
p1217
ag577
aVdaikini/octave-ruby
p1218
aVjwhitmire/integrity-campfire
p1219
ag841
aVjsierles/bundler
p1220
aVjvantuyl/pelvis
p1221
ag244
aVjschairb/cfb
p1222
ag1045
aVlancecarlson/live-search
p1223
ag897
ag249
aVdanielharan/timestamped_boolean
p1224
aValexvollmer/OCMock
p1225
ag491
aVmerb/merb_datamapper
p1226
ag77
ag979
aVjwhitmire/feedzirra
p1227
aVrobbyrussell/shorturl
p1228
aVdanielharan/restful-authentication
p1229
ag254
aVmerb/merb_parts
p1230
ag543
aVdaikini/event_attribute
p1231
ag259
aVxhr/short.li
p1232
ag290
ag261
aVnorbauer/dns-tools
p1233
ag83
ag265
ag266
ag267
ag268
aVmislav/faraday-stack
p1234
aVkamal/fireeagle
p1235
ag271
ag272
aVtopfunky/gruff
p1236
ag599
aVjnunemaker/bin
p1237
aVrobbevan/currentcoststatus
p1238
ag1060
aVrtomayko/adoc-themes
p1239
aVjnunemaker/google-weather
p1240
aVjazzyfox/rbot-plugins
p1241
aVmattslack/AVA_home_page_layout
p1242
ag191
aVmjankowski/repeated_job
p1243
ag836
ag457
aVjnunemaker/adapter
p1244
aVautomatthew/fate
p1245
aVsstephenson/mackerel
p1246
aVrobbevan/prowlr
p1247
aVphilsturgeon/chef-logstash
p1248
aVjdhuntington/i18n
p1249
aVrobbevan/annotate_models
p1250
ag918
aVjnunemaker/columbus
p1251
ag281
ag282
ag1068
aVjdhuntington/pomodori
p1252
ag234
aVjdhuntington/fieldmarshal
p1253
ag288
ag1076
aVrtomayko/date-performance
p1254
aValexvollmer/daemon-spawn
p1255
aVrobbevan/ruby-spreadsheet
p1256
ag112
aVjnunemaker/flipper-redis
p1257
ag296
ag152
ag298
aVjnunemaker/adapter-cassanity
p1258
aVrobbyrussell/year_after_year
p1259
aVjnunemaker/adapter-riak
p1260
ag325
ag283
aVdrnic/bosh-cloudfoundry
p1261
aVvanpelt/amqp
p1262
aVjsierles/intercom-rails
p1263
ag188
ag309
ag310
ag312
ag314
ag1084
aVsoffes/apple_push_notification
p1264
aVjschairb/libretsy
p1265
ag674
ag318
aVantirez/redis-doc
p1266
aVtopfunky/bong
p1267
ag929
ag326
aVNZKoz/delayed_job
p1268
ag327
ag134
aVautomatthew/cassie
p1269
aVrobbevan/rails-templates
p1270
aVmacournoyer/mor7
p1271
aVsoffes/binary_plist
p1272
aValexvollmer/pci4r
p1273
aVhassox/amqp
p1274
aVpsi/hubot
p1275
aVsoffes/hands
p1276
ag990
ag335
aVlancecarlson/acts-as-taggable-on
p1277
aVjschairb/doughboy
p1278
aVmacournoyer/preforker
p1279
ag337
aVlifo/cramp-pub-sub-chat-demo
p1280
ag991
ag992
ag341
aVsoffes/findi
p1281
aVrobbyrussell/active_merchant
p1282
ag532
ag345
aVmerb/merb_sequel
p1283
ag346
ag347
aVscharfie/jbuilder
p1284
aVmislav/euruko-golf
p1285
aVmjankowski/sms-fu
p1286
ag1001
ag1002
ag352
aVmislav/fakefs
p1287
aVmjankowski/money
p1288
aVsstephenson/mdtoc
p1289
aVakitaonrails/capistrano
p1290
ag367
aVmislav/anemone
p1291
aVnorbauer/mlb-gameday-api
p1292
ag1006
ag358
aVmmower/coreplus
p1293
aVentryway/pebbles_audio_files
p1294
aVdaikini/Specs
p1295
ag875
aVrobbevan/electro
p1296
aValexvollmer/freedomrock
p1297
ag877
ag363
aVrtomayko/posix-spawn
p1298
ag1018
aVkamal/will_paginate
p1299
ag1020
ag626
aVsstephenson/disaster
p1300
aVmattslack/radiant-sitemap_search-extension
p1301
aVscharfie/has_default
p1302
aVmmower/Gen
p1303
ag374
aVjsierles/faraday
p1304
aVjwhitmire/sinatra-helpers
p1305
aVouterim/fog
p1306
aVhenrik/go_to_param
p1307
aVrobbyrussell/less
p1308
aVjnunemaker/cassanity
p1309
ag315
aVjnunemaker/adapter-redis
p1310
aVjsierles/dropbox-api
p1311
ag379
aVmmower/bishop
p1312
aVdanahern/ruby_game
p1313
aVantirez/redis-rb-cluster
p1314
ag382
ag383
ag385
aVmacournoyer/rest-client
p1315
ag388
ag389
aVjnunemaker/adapter-mongo
p1316
aVkamal/friendly_id
p1317
ag1091
aVcdcarter/artnetr
p1318
ag397
ag398
aVlancecarlson/dm-mongo-adapter
p1319
aVjwhitmire/ruby-units
p1320
aVmislav/albino
p1321
aValexvollmer/httparty
p1322
aVscharfie/article-slate-plugin
p1323
ag1041
aVmislav/facebook
p1324
aValexvollmer/itunes-connect
p1325
aVvanpelt/merb_paginate
p1326
ag401
aVdaikini/paysimple
p1327
aVakitaonrails/active_merchant
p1328
aVhassox/handlebars_assets
p1329
ag292
aVmislav/bundler
p1330
ag175
aVdaikini/rubicus
p1331
ag407
aVkamal/database_cleaner
p1332
aVdanielharan/prisoners_dilemma
p1333
aVnorbauer/submarine
p1334
aVautomatthew/rakegen
p1335
aVdanahern/goose
p1336
aVakitaonrails/dry_scaffold
p1337
aVautomatthew/autocode
p1338
aVrobbevan/scout-plugins
p1339
aVtjogin/local-copy
p1340
ag417
ag421
aVcanadaduane/getdoc
p1341
aVjschairb/how-many-days-since
p1342
aVrtomayko/rinku
p1343
ag420
aVdanielharan/addressbookimporter
p1344
aVrtomayko/rack-cache
p1345
aVhenrik/action_mailer_tls
p1346
aVmacournoyer/rack-sandbox
p1347
aVpsi/peeler
p1348
aVjschairb/foortran
p1349
aVdrnic/blue-ridge-tmbundle
p1350
aVjsierles/memcache-client
p1351
ag98
ag163
ag1026
aVezmobius/ez-where
p1352
ag431
aVvanpelt/dm-imap-adapter
p1353
aVjosh/bundler
p1354
aVezmobius/chef-deploy
p1355
ag1152
aVkamal/tender_multipass
p1356
aVjosh/albino
p1357
aVsoffes/any
p1358
aVjdhuntington/memory-address-218
p1359
ag921
aVsstephenson/37signalsMenu
p1360
aVjwhitmire/ruby-tmbundle
p1361
ag978
ag646
ag442
ag581
ag1148
aVhassox/foreman
p1362
aVup_the_irons/powerdns-models
p1363
aValexvollmer/chikken_in_a_bukket
p1364
aVjosh/datomic-free
p1365
ag447
aVadam/dm-exampleapp
p1366
ag449
ag451
aVjsierles/bits_on_the_run
p1367
aVsoffes/houston
p1368
ag647
ag454
aVkamal/detached_counter_cache
p1369
aVhassox/dm-pagination
p1370
ag1086
ag465
aVmerb/merb_cucumber
p1371
ag1089
ag467
aVkamal/contacts
p1372
aVjazzyfox/ruby_koans
p1373
ag468
ag469
aVtopfunky/calendar_helper
p1374
ag1067
ag1096
aVpsi/chef-xcode-command-line-tools
p1375
aVezmobius/nats
p1376
ag473
aVjosh/gem_stub
p1377
aVrobbevan/migrate_test_db
p1378
aVscharfie/blog-slate-plugin
p1379
aVmislav/contacts
p1380
aVup_the_irons/billing-system-models
p1381
aVezmobius/vmc
p1382
ag479
aVezmobius/redactor
p1383
ag480
aVrtomayko/kidgloves
p1384
ag147
aVakitaonrails/locarails
p1385
aVdrnic/build-change-trigger-plugin
p1386
aVakitaonrails/brazilian-rails
p1387
ag486
aVrobbevan/authlogic_facebook_connect
p1388
ag487
aVgarybernhardt/explicit_import
p1389
aVmmower/godo
p1390
aVsstephenson/hork
p1391
ag489
aVouterim/ripple
p1392
aVpsi/doorman
p1393
aVscharfie/jira
p1394
aVautomatthew/functor
p1395
aVvanpelt/merb_facebooker
p1396
aVdanielharan/cijoe
p1397
aVakitaonrails/acts_as_solr_reloaded
p1398
aVouterim/travis_reprise
p1399
ag800
aVgarybernhardt/the-march-of-progress
p1400
ag827
ag162
ag501
ag502
aVmacournoyer/invisible
p1401
aVjnunemaker/flipper-cassanity
p1402
ag328
ag504
aVjschairb/distribunaut
p1403
aVgspederson/01-CodeBreaker
p1404
aVsoffes/acts_as_list
p1405
aVdrnic/bosh-client
p1406
ag843
aVfloydprice/Rails-Startup-App
p1407
aVhassox/dm-polymorphic
p1408
ag514
aVpsi/chef-cookbook-template
p1409
aVjosh/gem-template
p1410
ag1021
aVjosh/gobert
p1411
ag1042
aVantirez/redis-rb
p1412
ag519
aVscharfie/hcl
p1413
ag522
aVentryway/hitch
p1414
ag525
ag150
aVjosh/brew-gem
p1415
ag528
ag884
aVrobbyrussell/textilizefu
p1416
ag50
ag540
aVdanielharan/danielharan.com
p1417
aVdanielharan/support
p1418
aVhenrik/draper
p1419
ag534
aVhenrik/cloudinary_gem
p1420
aVezmobius/acl_system2
p1421
aVscharfie/form_assistant
p1422
aVhassox/google-spreadsheet-ruby
p1423
aVrtomayko/rip
p1424
aVhassox/any_view
p1425
aVantirez/nolate
p1426
aVhassox/black
p1427
aVlifo/fast_context
p1428
ag831
ag541
ag547
aVjsierles/exception_notification
p1429
aVjnunemaker/feedzirra
p1430
aVjdhuntington/pindah
p1431
ag575
ag548
aVsoffes/bully
p1432
aVgarybernhardt/rouge
p1433
aVNZKoz/rails_xss
p1434
ag757
ag551
ag554
aVvanpelt/contacts
p1435
aVmislav/choices
p1436
aVup_the_irons/ip_allocator
p1437
aVup_the_irons/immutable
p1438
ag556
ag557
aVhassox/abr_lookup
p1439
aVdanielharan/isochrones
p1440
aVtopfunky/basic_model
p1441
aVsstephenson/BubbleWrap
p1442
ag561
aVmmower/mailtrap
p1443
aVxhr/compass-rails
p1444
ag565
aVhenrik/gchartrb
p1445
ag570
aVrobbyrussell/masochism
p1446
aVjwhitmire/ssl_requirement
p1447
ag574
ag1056
aVtopfunky/ar_fixtures
p1448
aVdrnic/Bundler.tmbundle
p1449
aVphilsturgeon/chef-php-fpm
p1450
ag578
aVcdcarter/Effe
p1451
aVdanielharan/pc_scraper
p1452
aVxhr/minifactory
p1453
aVvanpelt/shortr
p1454
aVlancecarlson/cheap_chronic
p1455
ag1083
aVjsierles/driven
p1456
aVNZKoz/thinking-sphinx
p1457
aVdanahern/vimeo
p1458
ag802
aVmislav/addressable
p1459
aVmacournoyer/gh-contest
p1460
ag784
aVvanpelt/merb-more
p1461
aVtopfunky/google-checkout
p1462
ag406
ag589
aVnorbauer/has_accent
p1463
aVmislav/fakeweb
p1464
ag593
aVjsierles/cijoe
p1465
aVmacournoyer/mtlrb-jan12
p1466
aVpsi/octokit
p1467
aVsoffes/fat.samsoff.es
p1468
aVsstephenson/dimensions
p1469
ag169
aVjschairb/kickstart
p1470
aVjdhuntington/fragrant
p1471
aVxhr/guard-unicorn
p1472
aVjsierles/flamencodb
p1473
ag602
ag922
aVmmower/passport_control
p1474
aVrdempsey/CouchLog
p1475
ag607
ag608
aVjdhuntington/rack-client
p1476
aVrbazinet/render_mate
p1477
aVjnunemaker/flipper-mongo
p1478
aVsoffes/discover
p1479
aVmathiasbynens/captured
p1480
aVtopfunky/async_observer
p1481
aVpsi/chef-percona
p1482
ag671
ag617
ag618
aVhenrik/delpin
p1483
ag620
aVNZKoz/bigdecimal-segfault-fix
p1484
aVkamal/rack
p1485
aVlifo/tickle
p1486
aVjdhuntington/ruby-function-overloading
p1487
ag623
ag555
aVcdcarter/bankers
p1488
ag297
aVdanahern/google_weather_api_test
p1489
aVlifo/misfit_client
p1490
aVsoffes/enmatz.com
p1491
aVscharfie/acts_as_lookup
p1492
aVjschairb/alonzo
p1493
aVmacournoyer/is_taggable
p1494
ag635
aVNZKoz/rake
p1495
aVnorbauer/salty_slugs
p1496
ag637
ag638
ag639
aVmacournoyer/llvmruby
p1497
aVpsi/runit
p1498
aVdanielharan/validations
p1499
aVdanielharan/semantic-menu
p1500
ag644
aVup_the_irons/ebay4r
p1501
ag1092
ag133
ag1098
ag75
aVezmobius/chef-101
p1502
aVlifo/snoop
p1503
aVsoffes/AFNetworking
p1504
aValexvollmer/yajl-rails
p1505
ag653
aVdrnic/appscrolls
p1506
aVautomatthew/moonstone
p1507
ag654
aVjsierles/js_named_routes
p1508
aVjnunemaker/crack
p1509
ag409
aVjschairb/build_tester
p1510
aVmmower/LRResty
p1511
ag803
ag6
ag995
aVmislav/by_star
p1512
aValexvollmer/clip
p1513
aVjnunemaker/googlebase
p1514
ag23
aVmacournoyer/mysql_s3_backup
p1515
ag866
ag663
ag664
aVcanadaduane/dropbox-api
p1516
aVjsierles/integrity
p1517
aVdrnic/chef-repo
p1518
aVnorbauer/openssh-for-git
p1519
ag945
aVphilsturgeon/gulliver
p1520
aVmiyagawa/asana_digest
p1521
aVsoffes/async_sinatra
p1522
ag621
aVrmurphey/flitter
p1523
aVouterim/ghost
p1524
ag675
aValexvollmer/word_salad
p1525
aVcowboy/gaucho-old
p1526
aVautomatthew/harp
p1527
aVvanpelt/jekyll
p1528
ag1015
aVnorbauer/letterpress
p1529
aVrobbyrussell/active_delegate
p1530
aVdanielharan/github_resys
p1531
aVjnunemaker/github-twitter
p1532
ag712
aVhenrik/etsy-rss
p1533
ag685
aVsstephenson/brochure
p1534
ag390
aVhassox/babushka-deps
p1535
ag45
aVpsi/chef-rbenv_system_pkgs
p1536
ag689
aVhenrik/exception_logger
p1537
aVsoffes/awfulrecruiters.com
p1538
ag681
aVautomatthew/ripples
p1539
ag695
aVakitaonrails/chef-debian
p1540
aVmislav/asbestos
p1541
aVsstephenson/multi_json
p1542
ag156
aVjnunemaker/crdts
p1543
aVpsi/chef-ruby
p1544
aVscharfie/easy_search
p1545
ag706
aVhassox/acts_as_votable
p1546
ag708
ag262
ag141
ag711
aVrtomayko/rack
p1547
aVjschairb/mineralogy
p1548
aVpsi/few
p1549
aVjnunemaker/canable
p1550
aVjnunemaker/gemwhois
p1551
aVnorbauer/kindle-nom-nom
p1552
aVantirez/redis-timeseries
p1553
aVhassox/dm-zone-types
p1554
ag716
aVjsierles/fast_git_deploy
p1555
aVlifo/sidekick
p1556
aVlancecarlson/machinist
p1557
ag87
ag719
aVjschairb/conan
p1558
aVlancecarlson/account_location
p1559
aVdaikini/matlab-ruby
p1560
aVlifo/tramp
p1561
aVdanielharan/people_you_may_know
p1562
aVautomatthew/flipper
p1563
ag686
ag723
aVantirez/book-examples
p1564
ag154
aVNZKoz/MagicalRecord
p1565
aVmacournoyer/cache_digests
p1566
aVjsierles/bitsontherun
p1567
aVpsi/dmg
p1568
ag729
aVjwhitmire/rspec_validation_expectations
p1569
aVsoffes/hire.samsoff.es
p1570
ag736
aVjosh/cook
p1571
aVhassox/dm-adapters
p1572
aVmadrobby/freckle-cmd
p1573
ag740
aVlancecarlson/kissgen
p1574
ag460
aValexvollmer/github-gem
p1575
ag165
aVmislav/big_sitemap
p1576
aVdaikini/fityk-ruby
p1577
ag745
ag746
ag747
aVsoffes/grater
p1578
aVcommonsguy/andglobe
p1579
aVrtomayko/astrotrain
p1580
aVsstephenson/hector
p1581
aVmacournoyer/rack
p1582
aVdrnic/associated_with
p1583
aVdanielharan/confidence
p1584
ag735
aVmislav/cook
p1585
ag755
aVjwhitmire/runt
p1586
aVscharfie/faq-slate-plugin
p1587
aVvanpelt/delayed_job
p1588
ag762
aVnorbauer/heroku-sinatra-coming-soon
p1589
aVmislav/explain-ruby
p1590
aVagentzh/linguist
p1591
aVup_the_irons/tendersync
p1592
aVhenrik/atomica
p1593
aVhenrik/augmentations
p1594
ag908
aVdanielharan/ruby-aaws
p1595
aVscharfie/associated_save
p1596
aVscharfie/eztime
p1597
ag925
ag787
aVautomatthew/rupez
p1598
ag771
aVautomatthew/desire
p1599
aValexvollmer/gitjour
p1600
aVmislav/faraday
p1601
aVhenrik/globalize3
p1602
aVvanpelt/merb_async_observer
p1603
ag121
aVNZKoz/rexml-expansion-fix
p1604
ag774
aVjschairb/dot_foo
p1605
ag928
aVmacournoyer/em-spec
p1606
aVhassox/hash_path
p1607
aVvanpelt/merb-plugins
p1608
aVlancecarlson/devise
p1609
aVhassox/hashie
p1610
aVrobbyrussell/rbot-svnwatch
p1611
aVautomatthew/ambitious_activerecord
p1612
aVakitaonrails/factory_girl
p1613
aVezmobius/ey-lessql
p1614
ag781
aVhenrik/fuzzy_file_finder
p1615
ag277
aVjacobian/django-deployment-workshop
p1616
aVautomatthew/ambitious_activeldap
p1617
ag408
aVgarybernhardt/do_not_want
p1618
ag785
ag806
aVtopfunky/choctop
p1619
aVjosh/gem_keychain
p1620
ag788
aVjsierles/marginalia
p1621
ag849
atp1622
Rp1623
sVGroovy
p1624
g1
((lp1625
g77
ag483
atp1626
Rp1627
sVC
p1628
g1
((lp1629
g1167
aVtopfunky/gfxCardStatus
p1630
aVcloudwu/windsoul
p1631
ag16
ag939
aVdesandro/editorconfig-textmate
p1632
ag656
aVzybl880506/iptables-1.2.7
p1633
ag803
aVzybl880506/email
p1634
ag1035
ag997
ag864
ag1038
ag941
ag1451
aVpkrumins/bithacks.h
p1635
ag26
aVkafka399/TwsMongo
p1636
ag869
ag162
aVcloudwu/dfont
p1637
ag871
ag1009
ag948
ag503
aVkoush/android_bionic
p1638
ag875
ag859
ag993
ag950
aVginatrapani/todo.txt-touch-ios
p1639
ag1298
ag953
aVkoush/android_device_samsung_epic4g
p1640
ag1021
ag1022
ag931
ag955
ag41
ag861
aVcanadaduane/osx-space-id
p1641
aVantirez/otree
p1642
ag521
ag46
aVcloudwu/coroutine
p1643
ag524
ag529
aVcloudwu/buddy
p1644
aVantirez/dump1090
p1645
aVdaikini/ssconnection
p1646
ag896
ag57
ag23
aVerica/uidevice-extension
p1647
ag944
ag134
ag831
ag1318
ag890
ag1040
ag1014
ag893
ag841
ag1043
aVantirez/linenoise
p1648
ag1495
aVzybl880506/libnids-1.24
p1649
ag1225
ag75
ag949
ag1511
ag1049
ag128
aVkoush/android_device_generic
p1650
aVxhr/matcher
p1651
ag906
ag892
aVdaikini/sstoolkit
p1652
ag1565
ag903
ag1054
ag83
ag265
aVerica/Camera-Image-Helper
p1653
aVerica/sleepnow
p1654
ag898
ag1560
aVcreationix/candor.io
p1655
ag814
ag1343
ag79
ag45
ag908
ag90
aVagentzh/mockeagain
p1656
ag910
aVnathanmarz/formula-inverse
p1657
aVjoehewitt/up
p1658
ag912
ag430
ag102
aVkoush/android_device_motorola_backflip
p1659
aVzybl880506/authorization
p1660
ag104
ag916
ag736
ag1218
ag109
ag1073
aVsebastianbergmann/php-test-helpers
p1661
ag951
ag922
ag1254
aVhenrik/DeepSleepPreventerLibrary
p1662
aVautomatthew/minfinite
p1663
aVantirez/aspark
p1664
ag112
ag113
ag151
ag924
aVzybl880506/wamlog
p1665
ag1080
ag928
aVcloudwu/aoi
p1666
ag940
ag942
aVantirez/mc-benchmark
p1667
aVsoffes/blending-benchmarks
p1668
ag1082
ag188
ag121
ag911
ag927
ag860
ag946
ag776
ag1088
ag929
ag1089
ag1090
ag1497
ag1093
aVsoffes/cloudapp.uploader
p1669
aVmmower/MAFuture
p1670
ag643
aVmmower/Freeman
p1671
ag644
ag1097
ag133
ag8
aVmacournoyer/peg
p1672
ag1099
ag1504
aVAlexanderFlatscher/FileServer
p1673
aVcloudwu/mread
p1674
ag849
atp1675
Rp1676
sVD
p1677
g1
((lp1678
g16
ag113
ag991
ag175
ag529
ag90
atp1679
Rp1680
sVC++
p1681
g1
((lp1682
g77
ag899
ag880
ag521
ag1663
ag157
ag16
ag524
ag113
ag48
aVkafka399/Levenshtein-distance
p1683
ag529
ag733
ag381
ag133
ag83
ag898
ag1655
aVtopfunky/CocoaHelpDemo
p1684
ag79
ag57
ag776
ag26
ag1636
ag860
ag134
ag162
ag871
ag1657
ag1577
ag1638
ag929
ag102
ag1497
ag993
ag104
ag644
ag1014
ag643
ag1043
ag1658
aVpkrumins/hwnd-finder
p1685
ag1000
ag70
ag736
ag1021
ag1218
ag43
ag41
ag75
ag1673
atp1686
Rp1687
sVRacket
p1688
g1
((lp1689
g980
ag157
ag1058
ag1067
ag141
atp1690
Rp1691
sVObjective-C
p1692
g1
((lp1693
g77
ag951
ag1400
ag1511
ag1049
ag1619
ag1630
ag869
aVsoffes/iphone-plist
p1694
ag100
ag1432
ag1030
ag1652
ag1565
ag1646
ag1080
ag1070
aVantirez/iconping
p1695
ag1653
ag1662
ag1684
ag1668
aVNZKoz/UnwindSegues
p1696
ag908
aVmmower/lmhoneycombview
p1697
aVhenrik/file_transfer_sender_subdirectories_plugin
p1698
aVerica/ibrowser
p1699
aVsoffes/ActiveSupportInflector
p1700
aVerica/NSObject-Utility-Categories
p1701
ag1238
aVvanpelt/CardMaven
p1702
ag188
ag162
ag776
aVerica/CFClippyRef
p1703
aVerica/MPMediaItem-Properties
p1704
ag1632
ag503
ag1040
aVmmower/lmdial
p1705
aVmmower/pastackedlistview
p1706
aVerica/ABContactHelper
p1707
aVdaikini/FireBooks
p1708
aVtopfunky/categories
p1709
ag381
aVorencohen1/TrackDir
p1710
ag1669
ag1670
aVmmower/lmswitch
p1711
ag1671
ag1639
ag1658
ag1225
ag133
aVerica/NSArray-Utilities
p1712
ag1019
ag8
ag1647
ag277
ag476
aVmoodlehq/mymoodle
p1713
ag1504
ag1021
aVsoffes/iphone-library-test-library
p1714
ag1303
aVsoffes/iphone-library-test-app
p1715
aVleah/PullToRefresh
p1716
ag43
ag1097
ag1073
ag1360
aVmmower/nebo
p1717
atp1718
Rp1719
sVR
p1720
g1
((lp1721
g1023
ag1075
ag1024
ag1025
aVkafka399/fitparse
p1722
aVhornbeck/zendeskR
p1723
ag965
aVkafka399/votingDistance
p1724
aVkafka399/candidateFeatures
p1725
aVhornbeck/resumatoR
p1726
ag1683
ag754
aVkafka399/compfinance
p1727
atp1728
Rp1729
sVClojure
p1730
g1
((lp1731
g77
ag14
ag482
aVnathanmarz/cascalog-workshop
p1732
aVibdknox/clojail
p1733
ag415
aVibdknox/clj-record
p1734
aVnathanmarz/cascalog-workshop-starter
p1735
ag216
aVrichhickey/sdb
p1736
ag343
aVnathanmarz/cascalog-conj
p1737
ag115
aVrichhickey/rdfm
p1738
aVibdknox/blind
p1739
ag53
aVibdknox/colorize
p1740
aVibdknox/clj-socketio
p1741
ag1072
aVibdknox/fetch
p1742
aVnathanmarz/kafka-deploy
p1743
ag60
aVibdknox/clojure-pong
p1744
ag16
ag93
aVnathanmarz/cascalog-demo
p1745
ag51
ag98
ag126
ag30
aVjdhuntington/boardgame-tracker
p1746
ag31
aVibdknox/crate
p1747
aVnathanmarz/crane
p1748
aVibdknox/clojure-koans
p1749
ag35
aVibdknox/jayq
p1750
aVibdknox/babbage
p1751
ag576
aVnathanmarz/clj-disruptor
p1752
ag717
ag86
aVibdknox/dommy
p1753
ag69
aVjnunemaker/clostar
p1754
atp1755
Rp1756
sVErlang
p1757
g1
((lp1758
g802
ag886
ag401
aVjvantuyl/erlctl
p1759
aVhornbeck/Little-Erlanger
p1760
ag169
ag216
aVjvantuyl/erl-class
p1761
ag637
aVjvantuyl/erl-skel
p1762
ag801
atp1763
Rp1764
sVRust
p1765
g1
((lp1766
g1099
ag1043
atp1767
Rp1768
sVProlog
p1769
g1
((lp1770
g133
atp1771
Rp1772
sVRagel in Ruby Host
p1773
g1
((lp1774
g924
ag45
atp1775
Rp1776
sVFORTRAN
p1777
g1
((lp1778
g1349
ag265
atp1779
Rp1780
sVColdFusion
p1781
g1
((lp1782
g77
atp1783
Rp1784
sVOCaml
p1785
g1
((lp1786
g77
ag16
atp1787
Rp1788
sVFancy
p1789
g1
((lp1790
g98
atp1791
Rp1792
sVPython
p1793
g1
((lp1794
g14
aVJakeWharton/is_awesome
p1795
ag16
ag1147
ag656
aVgarybernhardt/expecter
p1796
ag991
ag481
ag993
ag185
ag345
ag998
aVgarybernhardt/dingus
p1797
aVjacobian/django-pjax
p1798
ag664
aVNZKoz/ocdtv
p1799
ag1003
ag667
ag827
ag162
ag499
aVjvantuyl/exim_ses_transport
p1800
ag501
ag169
aVjvantuyl/vertebra-py
p1801
aVleah/django-flash-status
p1802
ag1638
ag875
ag1013
ag1151
ag202
aVjacobian/cheeserater
p1803
ag678
aVnathanmarz/nanny
p1804
aVjvantuyl/shovel
p1805
ag1017
aVasseym/rapidsms-uganda-common
p1806
ag41
aVglassesfactory/slimish-jinja-example
p1807
ag880
aVjacobian/django-multiurl
p1808
aVmathiasbynens/es-spec-html
p1809
ag524
aVasseym/rapidsms-script
p1810
ag529
aVjacobian/fumblerooski
p1811
aVjacobian/metrology
p1812
ag1085
aVglassesfactory/skypit
p1813
ag134
ag52
ag220
ag697
ag221
ag1033
ag382
aVpkrumins/hacker-top
p1814
ag436
aVjvantuyl/iterdict
p1815
aVjacobian/django-buildbots
p1816
ag230
aVleah/django-pagination
p1817
aVjvantuyl/pyrowl
p1818
aVglassesfactory/Shimehari
p1819
ag395
ag831
aVasseym/rapidsms-unregister
p1820
ag427
ag398
aVleah/django-flash
p1821
ag575
ag728
ag841
ag403
aVasseym/rapidsms-mvrs
p1822
aVasseym/rapidsms-message-classifier
p1823
aVjacobian/chishop
p1824
aVcanadaduane/Printrun
p1825
aVkafka399/rinkimai
p1826
aVjosh/brew-pip
p1827
ag170
ag77
ag899
ag1089
ag157
ag1050
ag337
ag721
ag571
aVasseym/ctca
p1828
ag1652
ag1053
ag1037
aVglassesfactory/deploytest
p1829
aVchovy/wineapp_1
p1830
aVgarybernhardt/prest
p1831
aVjvantuyl/sublime_diagram_plugin
p1832
ag579
aVasseym/django-eav
p1833
ag270
ag908
ag90
ag273
ag802
ag276
aVjacobian/django-buildmaster
p1834
ag98
ag1722
ag585
ag165
ag643
ag1658
ag736
ag914
ag104
aVjacobian/geocoders
p1835
ag1248
aVleah/python-oauth
p1836
ag6
aVglassesfactory/simple_bot_study
p1837
ag596
aVgarybernhardt/mote
p1838
ag1071
ag331
ag1051
ag761
ag762
ag151
aVleah/django-elsewhere
p1839
aVasseym/rapidsms-auth
p1840
aVjacobian/django-googlecharts
p1841
ag300
aVjvantuyl/pystache
p1842
aVasseym/rapidsms-uganda-ussd
p1843
aVleah/python-oauth-old
p1844
ag1007
aVglassesfactory/oyakata
p1845
ag353
aVJakeWharton/myp2p-boxee-app
p1846
ag632
ag1724
aVjvantuyl/requests
p1847
aVjnunemaker/chinwag
p1848
aVjacobian/django-storymarket
p1849
ag1616
ag1095
ag644
aVjacobian/djangome
p1850
ag133
aVasseym/rapidsms-httprouter
p1851
ag8
ag1099
ag650
aVcreationix/Calix
p1852
ag1154
atp1853
Rp1854
sVTcl
p1855
g1
((lp1856
g77
aVantirez/Bigdis
p1857
aVantirez/recidiv
p1858
aVantirez/gif-pure-tcl
p1859
ag151
ag1021
ag134
atp1860
Rp1861
sVHaskell
p1862
g1
((lp1863
g169
ag216
aVcanadaduane/ImplicitCAD
p1864
ag167
atp1865
Rp1866
sVPuppet
p1867
g1
((lp1868
g990
ag561
ag282
ag992
ag1074
ag1092
ag1028
atp1869
Rp1870
sVIo
p1871
g1
((lp1872
Vcdcarter/backpacking
p1873
ag87
ag162
ag1466
atp1874
Rp1875
sVActionScript
p1876
g1
((lp1877
g678
aVglassesfactory/messagepack
p1878
ag349
ag571
ag230
aVglassesfactory/glassesfactory
p1879
ag513
ag225
ag366
ag647
aVglassesfactory/GFSimpleSoundVisualizer
p1880
ag399
aVAlexanderFlatscher/puzzlesFrontEndAIR
p1881
ag574
ag385
atp1882
Rp1883
sVGo
p1884
g1
((lp1885
g77
aVlancecarlson/couchgo
p1886
ag203
ag16
aVfelixge/ardrone
p1887
ag1411
atp1888
Rp1889
sVASP
p1890
g1
((lp1891
g561
ag688
ag413
ag715
ag1114
ag282
ag255
ag476
ag516
ag665
ag666
ag718
ag1110
ag210
ag778
ag1111
ag1112
ag1113
atp1892
Rp1893
sVVisual Basic
p1894
g1
((lp1895
g134
ag16
ag1672
ag516
ag210
ag1110
ag839
ag381
atp1896
Rp1897
sVPHP
p1898
g1
((lp1899
Vsebastianbergmann/phpunit-mock-objects
p1900
ag336
ag16
aVsebastianbergmann/finder-facade
p1901
ag338
ag306
aVfelixge/cakephp-authsome
p1902
ag6
ag344
ag23
aVmoodlehq/moodle-theme_mooch
p1903
aVsebastianbergmann/php-timer
p1904
aVsebastianbergmann/php-text-template
p1905
aVweierophinney/Component_ZendForm
p1906
aVphilsturgeon/codeigniter-oauth
p1907
aVJeffreyWay/Laravel-Model-Validation
p1908
ag819
ag192
aVmoodlehq/moodle-local_dev
p1909
ag1004
ag359
aVweierophinney/Component_ZendDi
p1910
ag308
aVmoodlehq/moodle-filter_moodledocs
p1911
aVweierophinney/Component_ZendCode
p1912
aVweierophinney/Component_ZendDb
p1913
aVweierophinney/Component_ZendLog
p1914
aVweierophinney/bugapp
p1915
aVginatrapani/isosceles
p1916
aVfelixge/cakephp-browscap
p1917
ag505
ag361
aVphilsturgeon/fuel-oauth-provider
p1918
ag769
ag678
aVmoodlehq/moodle-filter_geshi
p1919
aVweierophinney/Component_ZendBarcode
p1920
aVweierophinney/Component_ZendHttp
p1921
aVJeffreyWay/Easy-WordPress-Custom-Post-Types
p1922
aVmoodlehq/moodle-behat-extension
p1923
aVphilsturgeon/codeigniter-payments
p1924
ag372
aVphilsturgeon/ee2-rest
p1925
ag373
ag1048
ag519
aVsebastianbergmann/PHPUnit-CodeSniffer
p1926
aVweierophinney/Component_ZendConfig
p1927
aVweierophinney/Component_ZendInputFilter
p1928
ag1027
aVmoodlehq/moodle-local_moodlecheck
p1929
aVmoodlehq/moodle-filter_moodlelinks
p1930
aVweierophinney/Component_ZendDebug
p1931
aVweierophinney/Component_ZendCaptcha
p1932
aVphilsturgeon/fuel-ninjauth
p1933
ag383
aVsebastianbergmann/diff
p1934
aVweierophinney/Component_ZendDom
p1935
ag387
ag817
aVweierophinney/Component_ZendJson
p1936
ag389
aVmoodlehq/moodle-local_chatlogs
p1937
aVsebastianbergmann/hphpa
p1938
ag208
aVweierophinney/Component_ZendLdap
p1939
ag538
aVmoodlehq/moodle-local_hub
p1940
aVsharkcz/gettext-extractor
p1941
aVweierophinney/Component_ZendCrypt
p1942
aVphilsturgeon/codeigniter-prowl
p1943
aVJeffreyWay/Recurring-Tweets
p1944
aVphilsturgeon/codeigniter-github
p1945
aVmoodlehq/moodle-local_wstemplate
p1946
aVsuperphly/cmb-genesis-base
p1947
ag1044
aVsebastianbergmann/gap
p1948
aVJeffreyWay/PHPUnit-Wrappers
p1949
ag1046
ag322
ag556
aVJeffreyWay/ardent
p1950
aVJeffreyWay/Laravel-Generator
p1951
ag77
aVphilsturgeon/codeigniter-maxcdn
p1952
aVfelixge/cakephp-mixpanel
p1953
aVmoodlehq/moodle-behat-features
p1954
aVphilsturgeon/codeigniter-curl
p1955
aVweierophinney/Component_ZendI18n
p1956
aVphilsturgeon/codeigniter-encoding
p1957
aVweierophinney/Component_ZendFile
p1958
aVweierophinney/Component_ZendLoader
p1959
ag260
ag903
aVscharfie/harvest-wordpress-theme
p1960
aVweierophinney/Component_ZendFilter
p1961
aVsebastianbergmann/php-object-freezer
p1962
ag728
ag265
ag85
ag579
aVsgperez/project
p1963
aVJeffreyWay/Laravel-4-Generators
p1964
ag419
aVphilsturgeon/codeigniter-restclient
p1965
aVsebastianbergmann/php-file-iterator
p1966
aVphilsturgeon/codeigniter-oauth2
p1967
ag437
ag424
aVsebastianbergmann/money
p1968
aVweierophinney/Component_ZendAuthentication
p1969
ag738
aVJeffreyWay/Envato-Marketplace-API-Wrapper-in-PHP
p1970
aVmoodlehq/moodle-mod_newmodule
p1971
aVmoodlehq/moodle-filter_skypeicons
p1972
aVJeffreyWay/Compress-and-Concatenate-Stylesheets-with-PHP
p1973
ag586
aVweierophinney/Component_ZendFeed
p1974
ag744
aVginatrapani/GitHub-Pull-Request-Email-Bot
p1975
ag1029
aVphilsturgeon/codeigniter-restserver
p1976
ag1065
aVsebastianbergmann/phpcov
p1977
aVsebastianbergmann/php-code-coverage
p1978
ag751
ag434
aVsebastianbergmann/exporter
p1979
ag169
aVJeffreyWay/Capitalizr
p1980
ag1071
ag440
aVphilsturgeon/codeigniter-dwoo
p1981
ag1661
ag602
aVphilsturgeon/codeigniter-cli
p1982
aVweierophinney/Component_ZendEscaper
p1983
aVweierophinney/Component_ZendMail
p1984
ag606
ag609
ag1078
ag152
aVweierophinney/Component_ZendEventManager
p1985
aVsebastianbergmann/php-token-stream
p1986
aVsebastianbergmann/php-invoker
p1987
aVweierophinney/Component_ZendConsole
p1988
ag302
aVmoodlehq/moodle-behat-contexts
p1989
ag317
aVphilsturgeon/codeigniter-unzip
p1990
ag616
aVphilsturgeon/codeigniter-cache
p1991
ag453
aVmoodlehq/moodle-block_unanswered_discussions
p1992
ag500
ag629
ag648
aVweierophinney/Component_ZendCache
p1993
ag7
ag321
aVphilsturgeon/mojo-inputs
p1994
ag636
ag1090
aVsebastianbergmann/phptok
p1995
ag1059
aVnecolas/custom-tweet-button-for-wordpress
p1996
aVmoodlehq/moodle-enrol_groupsync
p1997
aVJeffreyWay/Laravel-Guard
p1998
ag477
ag789
ag136
ag651
atp1999
Rp2000
sVPowerShell
p2001
g1
((lp2002
g77
ag561
ag381
ag282
atp2003
Rp2004
s.