ccollections
defaultdict
p0
(tRp1
Vmojombo/erlenmeyer
p2
(dp3
VScheme
p4
I668
ssVremy/hang
p5
(dp6
VJavaScript
p7
I2928
ssVmojombo/homebrew
p8
(dp9
VPython
p10
I7810
sVShell
p11
I4262
sVRuby
p12
I1392986
sVJavaScript
p13
I18
ssVjashkenas/quakespotter
p14
(dp15
VRuby
p16
I105063
ssVtpope/heroku-buildpack-ruby-tpope
p17
(dp18
VShell
p19
I6089
sVRuby
p20
I48551
sVPerl
p21
I2091
ssVpaulirish/allthethings
p22
(dp23
VShell
p24
I5776
ssVchriscoyier/Google-Maps-Mobile-Demo
p25
(dp26
VJavaScript
p27
I10034
ssVigrigorik/async-rails
p28
(dp29
VJavaScript
p30
I464
sVRuby
p31
I15042
ssVchriscoyier/CSS-Tricks-v10
p32
(dp33
sVtekkub/addonaddoff
p34
(dp35
VLua
p36
I96727
ssVfabpot/Pirum
p37
(dp38
VShell
p39
I399
ssVtechnoweenie/activesupport_notifications_backport
p40
(dp41
VRuby
p42
I33231
ssVaddyosmani/backbone-tastypie-amd
p43
(dp44
sVschacon/article
p45
(dp46
VC
p47
I180
ssVremy/HTML5-Reverse-Ordered-Lists
p48
(dp49
VJavaScript
p50
I1469
ssVsubstack/buffer-browserify
p51
(dp52
VJavaScript
p53
I37212
ssVmaccman/dreamail
p54
(dp55
VJavaScript
p56
I312221
sVRuby
p57
I22546
ssVfat/twitter-text-rb
p58
(dp59
VRuby
p60
I146989
ssVLeaVerou/css3test
p61
(dp62
VJavaScript
p63
I36776
ssVtekkub/cmd-enter
p64
(dp65
sVfat/jquery-ui
p66
(dp67
VShell
p68
I7097
sVPHP
p69
I25856
sVJavaScript
p70
I1298553
ssVmojombo/chronic
p71
(dp72
VRuby
p73
I176516
ssVmitsuhiko/flask-sphinx-themes
p74
(dp75
VPython
p76
I4875
ssVjosevalim/inherited_resources
p77
(dp78
VRuby
p79
I188497
ssVraspberrypi/firmware
p80
(dp81
VC
p82
I4415738
sVShell
p83
I1248
sVObjective-C
p84
I28230
sVC++
p85
I280712
ssVtechnoweenie/coffee-resque
p86
(dp87
VCoffeeScript
p88
I14421
ssVsubstack/codebux
p89
(dp90
VJavaScript
p91
I4081
ssVvisionmedia/callsite
p92
(dp93
VJavaScript
p94
I2035
ssVmrdoob/logger.js
p95
(dp96
VJavaScript
p97
I925
ssVraspberrypi/linux
p98
(dp99
VXML
p100
I445
sVC
p101
I411977921
sVShell
p102
I115346
sVAssembly
p103
I8867379
sVPython
p104
I56682
sVJavaScript
p105
I1797
sVVimL
p106
I1355
sVC++
p107
I2957654
sVPerl
p108
I474046
sVSuperCollider
p109
I12158
sVObjective-C
p110
I1856592
sVASP
p111
I4528
sVAwk
p112
I18747
sVScilab
p113
I21433
sVRuby
p114
I3642
sVDOT
p115
I4873
ssVtechnoweenie/dealer.js
p116
(dp117
VJavaScript
p118
I85348
ssVhakimel/Hypnos
p119
(dp120
sVdefunkt/exception_logger
p121
(dp122
VJavaScript
p123
I1531
sVRuby
p124
I10936
ssVcloudhead/node-crawler
p125
(dp126
VJavaScript
p127
I5904
ssVjosevalim/rails-footnotes
p128
(dp129
VRuby
p130
I54567
ssVvisionmedia/bytes.js
p131
(dp132
VJavaScript
p133
I2129
ssVcyanogen/cm-kernel-exp
p134
(dp135
VC
p136
I378270359
sVASP
p137
I4528
sVAssembly
p138
I3998
sVPython
p139
I60981
sVVimL
p140
I1355
sVC++
p141
I222863
sVPerl
p142
I365324
sVSuperCollider
p143
I12158
sVObjective-C
p144
I10879
sVShell
p145
I51408
ssVLeaVerou/cubic-bezier
p146
(dp147
VJavaScript
p148
I21227
ssVholman/jruby-transaction
p149
(dp150
VRuby
p151
I16186
ssVandroid/platform_development
p152
(dp153
VC
p154
I4628696
sVShell
p155
I29592
sVJava
p156
I640896
sVPython
p157
I268313
sVEmacs Lisp
p158
I18251
sVJavaScript
p159
I7475
sVC++
p160
I496732
sVPerl
p161
I11357
sVObjective-C
p162
I26991
sVTypeScript
p163
I12540164
sVAssembly
p164
I55584
sVPHP
p165
I6157
sVRuby
p166
I2643
ssVfat/space-tweet
p167
(dp168
VJavaScript
p169
I111229
ssVandroid/platform_external_jpeg
p170
(dp171
VC
p172
I1287581
sVShell
p173
I119660
sVAssembly
p174
I36952
sVSmalltalk
p175
I10530
ssVpaulirish/deCSS3
p176
(dp177
VJavaScript
p178
I5416
ssVandroid/platform_build
p179
(dp180
VPython
p181
I2799
sVC
p182
I79195
sVShell
p183
I34238
sVJava
p184
I1023
sVC++
p185
I3837
ssVjosevalim/defm
p186
(dp187
VRuby
p188
I5309
ssVmojombo/git-bzr
p189
(dp190
sVryanb/private_pub
p191
(dp192
VJavaScript
p193
I9007
sVRuby
p194
I16239
ssVjosevalim/ex_unit_ansi
p195
(dp196
VElixir
p197
I4060
ssVkennethreitz/git-legit.org
p198
(dp199
VJavaScript
p200
I3926
ssVtpope/rbenv-readline
p201
(dp202
VShell
p203
I304
ssVaddyosmani/clientside-sample-buildfile
p204
(dp205
sVwycats/abbot-ng
p206
(dp207
VRuby
p208
I18696
ssVmaccman/aristo
p209
(dp210
sVjeresig/jquery.hotkeys
p211
(dp212
VJavaScript
p213
I3317
ssVcloudhead/more
p214
(dp215
VRuby
p216
I17183
ssVmaccman/dtwitter
p217
(dp218
sVfabpot/assetic
p219
(dp220
VPHP
p221
I346724
sVJavaScript
p222
I851
ssVwycats/guides
p223
(dp224
VJavaScript
p225
I74502
sVRuby
p226
I44776
ssVtekkub/elasticsearch-client
p227
(dp228
VRuby
p229
I8655
ssVisaacs/computer-science-in-javascript
p230
(dp231
VJavaScript
p232
I24101
ssVschacon/docurium
p233
(dp234
sVmbostock/vows
p235
(dp236
VJavaScript
p237
I86231
ssVLeaVerou/dabblet
p238
(dp239
VJavaScript
p240
I92647
sVPHP
p241
I10103
ssVmitsuhiko/flask-extended-logging
p242
(dp243
VPython
p244
I16865
ssVcloudhead/melon
p245
(dp246
VJavaScript
p247
I4286
sVRuby
p248
I6778
ssVmrdoob/blinkftw
p249
(dp250
VJavaScript
p251
I843
ssVsubstack/catch-links
p252
(dp253
VJavaScript
p254
I941
ssVkennethreitz/envoy
p255
(dp256
VPython
p257
I9018
ssVmrdoob/htmleditor
p258
(dp259
VJavaScript
p260
I458274
ssVjeresig/narcissus
p261
(dp262
VPython
p263
I4604
sVShell
p264
I3586
sVJavaScript
p265
I277869
ssVremy/forbind
p266
(dp267
VJavaScript
p268
I148198
ssVigrigorik/gmetric
p269
(dp270
VRuby
p271
I9366
ssVchriscoyier/Grooveshark-Streaming-API-Tutorial
p272
(dp273
VPHP
p274
I64688
sVJavaScript
p275
I26652
sVActionScript
p276
I2500
ssVaddyosmani/backbone-fundamentals
p277
(dp278
VShell
p279
I292
sVJavaScript
p280
I1762465
sVRuby
p281
I1180
ssVmattt/heroku-buildpack-jekyll
p282
(dp283
VShell
p284
I790
ssVdouglascrockford/JSON-java
p285
(dp286
VJava
p287
I283513
sVPerl
p288
I2395
ssVcyanogen/galaxy-2636
p289
(dp290
VC
p291
I380931581
sVShell
p292
I154704
sVAssembly
p293
I8330841
sVPython
p294
I20668
sVVimL
p295
I1355
sVC++
p296
I51920
sVPerl
p297
I402622
sVSuperCollider
p298
I12158
sVObjective-C
p299
I10879
sVASP
p300
I4528
ssVpjhyett/vjot
p301
(dp302
VJavaScript
p303
I24822
sVRuby
p304
I8498
ssVfat/package-bootstrap
p305
(dp306
VJavaScript
p307
I17
ssVtpope/rbenv-ctags
p308
(dp309
VShell
p310
I1321
ssVfat/slides
p311
(dp312
sVisaacs/cluster-callresp
p313
(dp314
sVmattt/CocoaPods
p315
(dp316
VObjective-C
p317
I113819
sVRuby
p318
I470034
ssVpaulirish/gradient-editor
p319
(dp320
VJavaScript
p321
I247266
ssVfabpot/gplus-quickstart-php
p322
(dp323
VPHP
p324
I1996047
ssVcloudhead/cloudhead.io
p325
(dp326
VJavaScript
p327
I42440
sVRuby
p328
I747
ssVjosevalim/homebrew
p329
(dp330
VPython
p331
I7810
sVShell
p332
I23382
sVJavaScript
p333
I18
sVRuby
p334
I2432700
sVPerl
p335
I1838
ssVchriscoyier/Wufoo-Shortcode-WordPress-Plugin
p336
(dp337
VPHP
p338
I1983
ssVmojombo/fakegem
p339
(dp340
VRuby
p341
I635
ssVjosevalim/erlbench
p342
(dp343
sVicodeforlove/js-base64
p344
(dp345
sVtenderlove/chicken-yaml
p346
(dp347
VScheme
p348
I20905
ssVvisionmedia/axon-rpc
p349
(dp350
VJavaScript
p351
I6967
ssVmaccman/backbone
p352
(dp353
VCoffeeScript
p354
I872
sVJavaScript
p355
I133231
sVRuby
p356
I1193
ssVschacon/cucumber
p357
(dp358
sVisaacs/cluster-master
p359
(dp360
VJavaScript
p361
I10952
ssVremy/inlinerapp
p362
(dp363
VJavaScript
p364
I4937
ssVicodeforlove/node-promise-object
p365
(dp366
VJavaScript
p367
I17910
ssVjosevalim/hackney
p368
(dp369
VErlang
p370
I86496
sVElixir
p371
I2742
ssVdhh/will_paginate
p372
(dp373
VRuby
p374
I90853
ssVhakimel/DOM-Tree
p375
(dp376
VJavaScript
p377
I4627
ssVcloudhead/a-file-uploader
p378
(dp379
VJavaScript
p380
I12596
ssVjeresig/pulley
p381
(dp382
VJavaScript
p383
I8576
ssVfabpot/framework-benchs
p384
(dp385
VShell
p386
I1507
sVJavaScript
p387
I6493086
sVPHP
p388
I36742930
sVActionScript
p389
I4720
ssVtenderlove/dot_vim
p390
(dp391
VRuby
p392
I11369
sVVimL
p393
I415251
ssVmattt/GroundControl
p394
(dp395
VObjective-C
p396
I15254
sVRuby
p397
I795
ssVigrigorik/language_detector
p398
(dp399
VRuby
p400
I11971
ssVryanb/dotfiles
p401
(dp402
VVimL
p403
I605201
sVShell
p404
I680
sVRuby
p405
I3664
sVPerl
p406
I5475
ssVcloudhead/dorothy
p407
(dp408
VRuby
p409
I1872
ssVtechnoweenie/beautiful-docs
p410
(dp411
sVisaacs/authentipede
p412
(dp413
VPHP
p414
I201277
ssVdefunkt/emacs
p415
(dp416
VEmacs Lisp
p417
I35981
sVRuby
p418
I698
ssVsubstack/baudio
p419
(dp420
VJavaScript
p421
I6891
ssVigrigorik/em-jack
p422
(dp423
VRuby
p424
I43719
ssVholman/jrails_auto_complete
p425
(dp426
VJavaScript
p427
I17932
sVRuby
p428
I6195
ssVtechnoweenie/chat_gram
p429
(dp430
VRuby
p431
I26671
ssVLeaVerou/animatable
p432
(dp433
VJavaScript
p434
I2706
ssVisaacs/awesm
p435
(dp436
VShell
p437
I832
ssVaddyosmani/backbonejs-gallery
p438
(dp439
VPHP
p440
I4665
sVJavaScript
p441
I50168
ssVisaacs/ahyane
p442
(dp443
VPHP
p444
I98685
ssVmbostock/polymaps
p445
(dp446
VJavaScript
p447
I402494
ssVkennethreitz/dynamo
p448
(dp449
VPython
p450
I4662
ssVfabpot/FacebookBundle
p451
(dp452
VPHP
p453
I9252
ssVtechnoweenie/allofthestars
p454
(dp455
VErlang
p456
I2438
sVRuby
p457
I13074
ssVmitsuhiko/cocos2d-iphone
p458
(dp459
sVfabpot/composer
p460
(dp461
VPHP
p462
I3499814
ssVmitsuhiko/badideas
p463
(dp464
VPython
p465
I13705
ssVcyanogen/android_external_fuse
p466
(dp467
sVschacon/cocoagit
p468
(dp469
VC
p470
I557251
sVObjective-C
p471
I262957
sVRuby
p472
I12447
sVNu
p473
I3717
ssVtekkub/controlfreak
p474
(dp475
VLua
p476
I106075
ssVhakimel/CSS-3D-Slideshow
p477
(dp478
sVvisionmedia/bind
p479
(dp480
VRuby
p481
I8327
ssVdefunkt/ambition
p482
(dp483
VJavaScript
p484
I2032
sVRuby
p485
I21237
ssVjosevalim/windows_protocol_handlers
p486
(dp487
VRuby
p488
I1726
ssVmojombo/gollum-demo
p489
(dp490
VPerl
p491
I1552
ssVjashkenas/coffee-script
p492
(dp493
VCoffeeScript
p494
I389424
sVJavaScript
p495
I393
sVRuby
p496
I2284
ssVfat/slow-flying-pizza
p497
(dp498
sVLeaVerou/border-corner-shape
p499
(dp500
VJavaScript
p501
I6840
ssVmbostock/jsdom
p502
(dp503
VJavaScript
p504
I4496735
sVPHP
p505
I911
ssVmattt/api-docs
p506
(dp507
sVmattt/PostgresApp
p508
(dp509
VObjective-C
p510
I61069
ssVcloudhead/github-recommend
p511
(dp512
VC
p513
I18242
ssVtpope/heroku-remote
p514
(dp515
VRuby
p516
I4609
ssVmaccman/bowline-twitter
p517
(dp518
VJavaScript
p519
I81842
sVRuby
p520
I1807
ssVmojombo/bertrpc
p521
(dp522
VRuby
p523
I20690
ssVisaacs/arg-parse-js
p524
(dp525
VJavaScript
p526
I8733
ssVpjhyett/ThoughtStream
p527
(dp528
VRuby
p529
I15190
ssVtpope/rbenv-sentience
p530
(dp531
VShell
p532
I136
ssVschacon/eeepub
p533
(dp534
VRuby
p535
I39720
ssVholman/homebrew
p536
(dp537
VPython
p538
I7810
sVShell
p539
I16138
sVRuby
p540
I2456322
sVJavaScript
p541
I18
sVPerl
p542
I1838
ssVryanb/populator
p543
(dp544
VShell
p545
I717
sVRuby
p546
I23928
ssVdefunkt/burn
p547
(dp548
sVjeresig/gittip-code
p549
(dp550
VJavaScript
p551
I6264
ssVfabpot/JMSDiExtraBundle
p552
(dp553
VPHP
p554
I135179
sVPerl
p555
I16081
ssVkennethreitz/dirsnap
p556
(dp557
sVfat/html5-boilerplate
p558
(dp559
sVandroid/platform_external_expat
p560
(dp561
VC
p562
I627002
sVShell
p563
I604082
sVC++
p564
I11687
ssVjosevalim/dotfiles
p565
(dp566
sVmrdoob/xplsv_wlz
p567
(dp568
VJavaScript
p569
I98315
ssVmaccman/blather
p570
(dp571
VRuby
p572
I385201
ssVtpope/rumember
p573
(dp574
VRuby
p575
I12358
ssVdefunkt/ambitious_activerecord
p576
(dp577
VRuby
p578
I34315
ssVaddyosmani/backpack
p579
(dp580
VJavaScript
p581
I983550
sVRuby
p582
I436
ssVdefunkt/currency_converter
p583
(dp584
VObjective-C
p585
I1982
ssVisaacs/cmd-shim
p586
(dp587
VJavaScript
p588
I11293
ssVtekkub/addontemplate
p589
(dp590
VLua
p591
I7511
ssVtenderlove/execjs
p592
(dp593
VShell
p594
I175
sVRuby
p595
I25206
sVJavaScript
p596
I19409
ssVhakimel/Core
p597
(dp598
VJavaScript
p599
I22157
ssVremy/cssprefix
p600
(dp601
VJavaScript
p602
I13610
ssVaddyosmani/backbone.validation
p603
(dp604
VJavaScript
p605
I145627
ssVandroid/kernel_msm
p606
(dp607
sVjeresig/retweet
p608
(dp609
VJavaScript
p610
I4879
ssVandroid/platform_external_freetype
p611
(dp612
VC
p613
I4018040
sVC++
p614
I485511
ssVjosevalim/sparta
p615
(dp616
VRuby
p617
I42564
ssVigrigorik/bugspots
p618
(dp619
VRuby
p620
I4568
ssVdefunkt/djangode
p621
(dp622
VPython
p623
I1072
sVJavaScript
p624
I146203
ssVjosevalim/luascript
p625
(dp626
VJavaScript
p627
I29529
ssVholman/noted
p628
(dp629
sVsubstack/browser-launcher
p630
(dp631
VJavaScript
p632
I24972
ssVigrigorik/em-handlersocket
p633
(dp634
VRuby
p635
I7338
ssVchriscoyier/cdnjs
p636
(dp637
VShell
p638
I48
sVJavaScript
p639
I21948433
ssVfabpot/phpunit
p640
(dp641
VPHP
p642
I1271337
ssVicodeforlove/node-decaptcher
p643
(dp644
VJavaScript
p645
I1707
ssVtenderlove/dejour
p646
(dp647
VRuby
p648
I1361
ssVdefunkt/coffee-mode
p649
(dp650
VEmacs Lisp
p651
I31907
sVCoffeeScript
p652
I2787
ssVjeresig/trie-js
p653
(dp654
VJavaScript
p655
I2369592
ssVicodeforlove/everyauth
p656
(dp657
VJavaScript
p658
I125975
ssVpaulirish/csstest
p659
(dp660
sVtekkub/EasySerum
p661
(dp662
VLua
p663
I2416
ssVandroid/kernel_common
p664
(dp665
sVpjhyett/git-server
p666
(dp667
sVwycats/decaf
p668
(dp669
VJavaScript
p670
I132087
ssVvisionmedia/commander.js
p671
(dp672
VShell
p673
I279
sVJavaScript
p674
I42451
ssVkennethreitz/env
p675
(dp676
VPython
p677
I4190
ssVisaacs/cats
p678
(dp679
sVtpope/vim-abolish
p680
(dp681
VVimL
p682
I17219
ssVicodeforlove/prefixfree
p683
(dp684
VShell
p685
I215
sVJavaScript
p686
I16924
ssVschacon/collabgit
p687
(dp688
VJavaScript
p689
I1714
ssVremy/jquery
p690
(dp691
sVsubstack/chi-squared.js
p692
(dp693
VJavaScript
p694
I217
ssVmbostock/pixymaps
p695
(dp696
VJavaScript
p697
I256168
ssVhakimel/Avgrund
p698
(dp699
VJavaScript
p700
I2099
ssVtpope/fivemat
p701
(dp702
VRuby
p703
I6660
ssVtechnoweenie/fantomex
p704
(dp705
VCoffeeScript
p706
I3166
ssVryanb/govsgo
p707
(dp708
VJavaScript
p709
I12514
sVRuby
p710
I98624
ssVryanb/cancan
p711
(dp712
VRuby
p713
I142970
ssVdefunkt/cheat
p714
(dp715
VRuby
p716
I55895
ssVmbostock/protovis
p717
(dp718
VJavaScript
p719
I1168764
ssVvisionmedia/cluster-live
p720
(dp721
VJavaScript
p722
I28802
ssVremy/5minutefork
p723
(dp724
VJavaScript
p725
I10292
ssVtenderlove/acts-as-taggable-on
p726
(dp727
VRuby
p728
I121066
ssVschacon/ddd
p729
(dp730
VJavaScript
p731
I1714
ssVtenderlove/enterprise
p732
(dp733
VRuby
p734
I4476
ssVfabpot/hubble
p735
(dp736
sVtenderlove/chicken-blink
p737
(dp738
VScheme
p739
I7149
ssVschacon/erlangit
p740
(dp741
VErlang
p742
I22757
ssVtenderlove/adequatehq.com
p743
(dp744
sVigrigorik/em-mysqlplus
p745
(dp746
VRuby
p747
I18752
ssVmaccman/canonical
p748
(dp749
sVchriscoyier/select2
p750
(dp751
VShell
p752
I1397
sVJavaScript
p753
I88816
ssVLeaVerou/regexplained
p754
(dp755
VJavaScript
p756
I23321
ssVmojombo/jquery
p757
(dp758
sVdhh/tolk
p759
(dp760
VJavaScript
p761
I148
sVRuby
p762
I55725
ssVjashkenas/docco
p763
(dp764
VCoffeeScript
p765
I12676
sVJavaScript
p766
I177
ssVholman/brightkitey
p767
(dp768
VRuby
p769
I3164
ssVaddyosmani/backbone
p770
(dp771
VCoffeeScript
p772
I872
sVJavaScript
p773
I125180
sVRuby
p774
I1192
ssVfabpot/php-manipulator
p775
(dp776
VPHP
p777
I67352
ssVwycats/ember-progressbars
p778
(dp779
VJavaScript
p780
I93045
sVRuby
p781
I1887
ssVsubstack/char-size
p782
(dp783
VJavaScript
p784
I1203
ssVschacon/erldocs.com
p785
(dp786
sVholman/nikeplus-ruby
p787
(dp788
VRuby
p789
I7596
ssVmrdoob/stats.js
p790
(dp791
VPython
p792
I331
sVJavaScript
p793
I3493
ssVkennethreitz/anaconda-buildpack
p794
(dp795
sVryanb/cocoa-web-app-example
p796
(dp797
VObjective-C
p798
I1986
ssVmaccman/eco
p799
(dp800
VCoffeeScript
p801
I28100
sVJavaScript
p802
I4754
sVRuby
p803
I1384
ssVandroid/platform_external_googleclient
p804
(dp805
sVremy/html5forAuthors
p806
(dp807
sVschacon/agitmemnon
p808
(dp809
VJavaScript
p810
I57254
sVRuby
p811
I14811
ssVwycats/dm-adapters
p812
(dp813
VRuby
p814
I9755
ssVremy/drone-record
p815
(dp816
VCoffeeScript
p817
I527
sVJavaScript
p818
I2237
ssVmojombo/bert
p819
(dp820
VC
p821
I11777
sVRuby
p822
I31821
ssVtekkub/eminence
p823
(dp824
VLua
p825
I9825
ssVtechnoweenie/elixir-rubyports
p826
(dp827
VElixir
p828
I758
ssVaddyosmani/addyosmani.github.com
p829
(dp830
VGroovy
p831
I1422
sVShell
p832
I1219
sVScala
p833
I259
sVJavaScript
p834
I2351672
sVPerl
p835
I2675
sVCoffeeScript
p836
I1003
sVPHP
p837
I4409
sVRuby
p838
I3864
ssVtenderlove/article
p839
(dp840
sVjeresig/modbot
p841
(dp842
VJavaScript
p843
I10040
ssVholman/dotfiles
p844
(dp845
VRacket
p846
I100
sVShell
p847
I17583
sVRuby
p848
I1862
sVPerl
p849
I14553
ssVjosevalim/thor
p850
(dp851
VShell
p852
I18
sVRuby
p853
I324970
ssVtechnoweenie/acts_as_paranoid
p854
(dp855
VRuby
p856
I26872
ssVvisionmedia/axon
p857
(dp858
VShell
p859
I177
sVJavaScript
p860
I63094
ssVschacon/example-stats
p861
(dp862
VRuby
p863
I388
ssVjashkenas/ruby-processing-plugin
p864
(dp865
VJava
p866
I14336
sVRuby
p867
I517
ssVpjhyett/god
p868
(dp869
VC
p870
I8925
sVJavaScript
p871
I418
sVRuby
p872
I230076
ssVmojombo/fixture-scenarios
p873
(dp874
VRuby
p875
I10013
ssVjeresig/env-js
p876
(dp877
VJavaScript
p878
I177335
ssVvisionmedia/base64
p879
(dp880
VJavaScript
p881
I85
ssVmattt/broccoli
p882
(dp883
VRuby
p884
I39284
ssVkennethreitz/flask-heroku
p885
(dp886
VPython
p887
I4875
ssVaddyosmani/brunch-with-chaplin
p888
(dp889
VCoffeeScript
p890
I88739
ssVicodeforlove/node-fogbugz
p891
(dp892
VJavaScript
p893
I6894
ssVicodeforlove/declaration-of-twitter-independence
p894
(dp895
VJavaScript
p896
I1445
ssVdhh/rack
p897
(dp898
sVpjhyett/CoffeeScript-Sublime-Plugin
p899
(dp900
VPython
p901
I4273
ssVpaulirish/dotfiles
p902
(dp903
VShell
p904
I12989
sVPython
p905
I12517
sVVimL
p906
I258614
sVPerl
p907
I34617
sVObjective-C
p908
I1281
sVVisual Basic
p909
I29004
sVPHP
p910
I22742
ssVLeaVerou/prism
p911
(dp912
VJavaScript
p913
I53168
ssVtenderlove/bussy
p914
(dp915
VObjective-C
p916
I29800
ssVdefunkt/email_reply_parser
p917
(dp918
VRuby
p919
I16138
ssVmbostock/hide-google-plus-notification
p920
(dp921
sVtechnoweenie/coffee-sprites
p922
(dp923
VCoffeeScript
p924
I1155
sVJavaScript
p925
I1482
ssVremy/chrome-quiz
p926
(dp927
VPython
p928
I2313800
sVC
p929
I5995
ssVjeresig/apples2artworks
p930
(dp931
VPython
p932
I19594
ssVdhh/rubygems
p933
(dp934
VShell
p935
I1018
sVRuby
p936
I860648
ssVsubstack/blog
p937
(dp938
sVdefunkt/cijoe
p939
(dp940
VShell
p941
I2297
sVRuby
p942
I23631
sVJavaScript
p943
I1679
ssVmbostock/UglifyJS2
p944
(dp945
VJavaScript
p946
I296392
ssVholman/feedback
p947
(dp948
sVsubstack/browserify_demo_eastbayjs
p949
(dp950
VJavaScript
p951
I4031
ssVicodeforlove/express
p952
(dp953
sVandroid/platform_external_gdata
p954
(dp955
VJava
p956
I264748
ssVfabpot/dependency-injection
p957
(dp958
VPHP
p959
I141526
ssVmbostock/nns
p960
(dp961
VJavaScript
p962
I4713
ssVwycats/alexandria
p963
(dp964
VRuby
p965
I20959
ssVmbostock/d3
p966
(dp967
VJavaScript
p968
I1392339
ssVtenderlove/betabrite
p969
(dp970
VRuby
p971
I33541
ssVtechnoweenie/faraday
p972
(dp973
sVigrigorik/em-http-request
p974
(dp975
VRuby
p976
I111083
ssVigrigorik/canicrawl
p977
(dp978
VGo
p979
I1788
ssVtechnoweenie/emoji-css-builder
p980
(dp981
VRuby
p982
I4292
ssVfabpot/common
p983
(dp984
VPHP
p985
I168729
ssVigrigorik/bmr-wordcount
p986
(dp987
VRuby
p988
I1110
ssVschacon/clippy
p989
(dp990
VHaxe
p991
I1744
ssVcloudhead/less.js
p992
(dp993
VJavaScript
p994
I1035310
ssVschacon/agitmemnon-server
p995
(dp996
VPython
p997
I179008
sVC
p998
I7327
ssVmattt/nshipster.com
p999
(dp1000
VRuby
p1001
I3566
ssVpjhyett/github-services
p1002
(dp1003
sVryanb/rails
p1004
(dp1005
VCoffeeScript
p1006
I229
sVJavaScript
p1007
I74615
sVRuby
p1008
I6845936
ssVigrigorik/agent
p1009
(dp1010
VGo
p1011
I1780
sVShell
p1012
I1511
sVRuby
p1013
I77152
ssVdefunkt/barefootexamples
p1014
(dp1015
VShell
p1016
I4122
sVRuby
p1017
I10355
ssVpjhyett/bert
p1018
(dp1019
VC
p1020
I10316
sVRuby
p1021
I28807
ssVcloudhead/less
p1022
(dp1023
VRuby
p1024
I37923
ssVtenderlove/chatty
p1025
(dp1026
VCoffeeScript
p1027
I211
sVJavaScript
p1028
I1835
sVRuby
p1029
I23267
ssVmitsuhiko/dotfiles
p1030
(dp1031
VC
p1032
I23890
sVShell
p1033
I5572
sVPython
p1034
I127610
sVVimL
p1035
I889854
sVPerl
p1036
I1795
sVRuby
p1037
I41754
ssVigrigorik/http-client-hints
p1038
(dp1039
sVdouglascrockford/JSON-js
p1040
(dp1041
VJavaScript
p1042
I66923
ssVtpope/heroku-binstubs
p1043
(dp1044
VRuby
p1045
I5017
ssVandroid/platform_external_esd
p1046
(dp1047
VC
p1048
I37671
ssVsubstack/cicada
p1049
(dp1050
VShell
p1051
I209
sVJavaScript
p1052
I9034
ssVisaacs/cookies
p1053
(dp1054
VJavaScript
p1055
I6588
ssVtpope/pow
p1056
(dp1057
VCoffeeScript
p1058
I89996
sVJavaScript
p1059
I23703
sVShell
p1060
I12520
ssVfabpot/Elf
p1061
(dp1062
VPHP
p1063
I40637
ssVjeresig/dromaeo
p1064
(dp1065
VPHP
p1066
I36497
sVJavaScript
p1067
I962508
sVPerl
p1068
I1668
ssVsubstack/code-art
p1069
(dp1070
VJavaScript
p1071
I4649
ssVdefunkt/acts_as_textiled
p1072
(dp1073
VRuby
p1074
I11113
ssVtenderlove/chicken-usb
p1075
(dp1076
VScheme
p1077
I10879
ssVigrigorik/githubarchive.org
p1078
(dp1079
VJavaScript
p1080
I51286
sVRuby
p1081
I16055
ssVremy/favs
p1082
(dp1083
VJavaScript
p1084
I2151
ssVschacon/aeon
p1085
(dp1086
sVryanb/rails-templates
p1087
(dp1088
VRuby
p1089
I1025
ssVcloudhead/mutter
p1090
(dp1091
VRuby
p1092
I13865
ssVmojombo/git
p1093
(dp1094
sVandroid/platform_external_jhead
p1095
(dp1096
VC
p1097
I231341
ssVicodeforlove/node-requester
p1098
(dp1099
VJavaScript
p1100
I18244
ssVhakimel/stroll.js
p1101
(dp1102
VJavaScript
p1103
I14101
ssVcloudhead/hijs
p1104
(dp1105
VJavaScript
p1106
I2989
ssVtpope/ldaptic
p1107
(dp1108
VRuby
p1109
I132626
ssVigrigorik/autoperf
p1110
(dp1111
VRuby
p1112
I4189
ssVry/node
p1113
(dp1114
sVsubstack/camelize
p1115
(dp1116
VJavaScript
p1117
I1037
ssVmbostock/node-mappy
p1118
(dp1119
VPython
p1120
I1245
sVJavaScript
p1121
I1474414
sVRuby
p1122
I3220
ssVmitsuhiko/frameworkify
p1123
(dp1124
VPython
p1125
I3830
ssVicodeforlove/node-mysql-cubby
p1126
(dp1127
VJavaScript
p1128
I3461
ssVmojombo/eventmachine
p1129
(dp1130
VRuby
p1131
I432207
sVJava
p1132
I57314
sVC++
p1133
I217118
ssVfat/twitter-text-java
p1134
(dp1135
VJava
p1136
I98204
sVRuby
p1137
I1755
ssVtekkub/addoninstaller
p1138
(dp1139
sVschacon/benchwarmer
p1140
(dp1141
sVmattt/Morse.js
p1142
(dp1143
VJavaScript
p1144
I6675
ssVaddyosmani/backbone-mobile-search
p1145
(dp1146
VJavaScript
p1147
I346368
ssVwycats/evented-code-example
p1148
(dp1149
VJavaScript
p1150
I10816
sVRuby
p1151
I1048
ssVwycats/handlebars-site
p1152
(dp1153
VRuby
p1154
I3684
ssVfat/smoosh
p1155
(dp1156
VJavaScript
p1157
I30400
ssVjashkenas/context_free
p1158
(dp1159
VRuby
p1160
I16419
ssVdhh/asset-hosting-with-minimum-ssl
p1161
(dp1162
VRuby
p1163
I2820
ssVtechnoweenie/fab
p1164
(dp1165
VJavaScript
p1166
I11759
ssVholman/leftright
p1167
(dp1168
VRuby
p1169
I12612
ssVpaulirish/fusejs
p1170
(dp1171
VJavaScript
p1172
I668644
sVRuby
p1173
I12426
ssVsubstack/autorev
p1174
(dp1175
VJavaScript
p1176
I3513
ssVryanb/nifty-generators
p1177
(dp1178
VRuby
p1179
I143039
ssVLeaVerou/Modernizr
p1180
(dp1181
sVmitsuhiko/flask-oldsessions
p1182
(dp1183
VPython
p1184
I11743
ssVpaulirish/backbonetutorials
p1185
(dp1186
VJavaScript
p1187
I9605
ssVpjhyett/sinatra_auth_github
p1188
(dp1189
sVandroid/platform_external_iptables
p1190
(dp1191
VXML
p1192
I5872
sVC
p1193
I1005001
sVShell
p1194
I4523
sVObjective-C
p1195
I318
sVC++
p1196
I3328
ssVfat/package-jquery
p1197
(dp1198
VJavaScript
p1199
I107
ssVfabpot/PHP-CS-Fixer
p1200
(dp1201
VPHP
p1202
I111989
ssVholman/boastful
p1203
(dp1204
VJavaScript
p1205
I2475
ssVmbostock/node-mongodb-native
p1206
(dp1207
VC
p1208
I276
sVShell
p1209
I805
sVJavaScript
p1210
I798225
sVC++
p1211
I152939
ssVmojombo/erlectricity-presentation
p1212
(dp1213
sVandroid/platform_external_elfcopy
p1214
(dp1215
VC
p1216
I357390
ssVmitsuhiko/flask-feedback
p1217
(dp1218
VPython
p1219
I5195
sVJavaScript
p1220
I2484
ssVtpope/girth
p1221
(dp1222
VRuby
p1223
I40432
ssVmbostock/dsv
p1224
(dp1225
VJavaScript
p1226
I16561
ssVtekkub/github-services
p1227
(dp1228
VRuby
p1229
I16953
ssVryanb/musts
p1230
(dp1231
sVaddyosmani/DownloadBuilder.js
p1232
(dp1233
VJavaScript
p1234
I363231
ssVryanb/mustard
p1235
(dp1236
VRuby
p1237
I10769
ssVholman/mizuno
p1238
(dp1239
VRuby
p1240
I21892
ssVkennethreitz/foauth.org
p1241
(dp1242
sVmrdoob/mrdoob.github.com
p1243
(dp1244
VJavaScript
p1245
I28988
sVF#
p1246
I10217
ssVtekkub/facebook-friend-renamer
p1247
(dp1248
VJavaScript
p1249
I58220
ssVhakimel/Audiolet
p1250
(dp1251
sVmaccman/ace
p1252
(dp1253
VCoffeeScript
p1254
I18771
sVJavaScript
p1255
I20634
ssVtpope/rbenv-communal-gems
p1256
(dp1257
VShell
p1258
I3705
ssVmojombo/erlectricity
p1259
(dp1260
VRuby
p1261
I44095
sVC
p1262
I9341
sVShell
p1263
I1980
sVErlang
p1264
I4302
ssVpaulirish/ember.js
p1265
(dp1266
sVicodeforlove/simplify-js
p1267
(dp1268
VJavaScript
p1269
I4219
ssVholman/holmalicious
p1270
(dp1271
sVtenderlove/faker
p1272
(dp1273
VJavaScript
p1274
I25082
sVRuby
p1275
I16212
ssVtechnoweenie/elixir-lang.github.com
p1276
(dp1277
VJavaScript
p1278
I12711
ssVtekkub/Decount
p1279
(dp1280
VLua
p1281
I699
ssVaddyosmani/basket.js
p1282
(dp1283
VJavaScript
p1284
I4761544
ssVfabpot/Create-Your-Framework
p1285
(dp1286
sVkennethreitz/autoenv
p1287
(dp1288
VPython
p1289
I363
sVShell
p1290
I2938
ssVisaacs/chokidar
p1291
(dp1292
VCoffeeScript
p1293
I12033
sVJavaScript
p1294
I1918
ssVtechnoweenie/fantomex.rb
p1295
(dp1296
VRuby
p1297
I11473
ssVtekkub/github_catcher
p1298
(dp1299
VJavaScript
p1300
I148
sVRuby
p1301
I15260
ssVjosevalim/active_model_serializers
p1302
(dp1303
sVmitsuhiko/blockpuzzle
p1304
(dp1305
VC#
p1306
I65929
ssVsubstack/baudio-party
p1307
(dp1308
VJavaScript
p1309
I6855
ssVicodeforlove/marked
p1310
(dp1311
VShell
p1312
I109
sVJavaScript
p1313
I34883
ssVpjhyett/zoned
p1314
(dp1315
VJavaScript
p1316
I301
sVRuby
p1317
I720
ssVholman/git-hooks
p1318
(dp1319
sVdefunkt/cache_fu
p1320
(dp1321
VRuby
p1322
I16532
ssVremy/dotfiles
p1323
(dp1324
VShell
p1325
I910
sVVimL
p1326
I37572
ssVfat/slides-os-guilt
p1327
(dp1328
sVkennethreitz/gistapi.py
p1329
(dp1330
VPython
p1331
I8064
ssVmbostock/us-atlas
p1332
(dp1333
VJavaScript
p1334
I1236
ssVjeresig/jeresig.github.com
p1335
(dp1336
sVisaacs/async-cache
p1337
(dp1338
VJavaScript
p1339
I3978
ssVcyanogen/htc-kernel-msm7x30
p1340
(dp1341
VC
p1342
I322627979
sVASP
p1343
I4526
sVAssembly
p1344
I4040
sVPython
p1345
I10644
sVVimL
p1346
I1355
sVC++
p1347
I43281
sVPerl
p1348
I245374
sVSuperCollider
p1349
I12158
sVObjective-C
p1350
I10879
sVShell
p1351
I48940
ssVcyanogen/htc-kernel-msm7227-exp
p1352
(dp1353
VC
p1354
I348867064
sVShell
p1355
I50541
sVAssembly
p1356
I4040
sVPython
p1357
I25137
sVVimL
p1358
I1355
sVC++
p1359
I43281
sVPerl
p1360
I316052
sVSuperCollider
p1361
I12158
sVObjective-C
p1362
I10879
sVASP
p1363
I4528
ssVmojombo/clippy
p1364
(dp1365
sVkennethreitz/django-postgrespool
p1366
(dp1367
VPython
p1368
I8355
ssVvisionmedia/asset
p1369
(dp1370
VJavaScript
p1371
I12799
ssVryanb/railscasts-scripts
p1372
(dp1373
VShell
p1374
I211
sVRuby
p1375
I5570
sVPerl
p1376
I557
ssVmattt/Godzippa
p1377
(dp1378
VObjective-C
p1379
I8201
sVRuby
p1380
I466
ssVpjhyett/ruby-git
p1381
(dp1382
sVfat/ddttt
p1383
(dp1384
VRuby
p1385
I4827
ssVicodeforlove/bzip2-js
p1386
(dp1387
sVfat/Skeleton
p1388
(dp1389
VJavaScript
p1390
I755
ssVdhh/bundler
p1391
(dp1392
VRuby
p1393
I199680
ssVremy/jquery-api-browser
p1394
(dp1395
VPHP
p1396
I2296
sVJavaScript
p1397
I627303
ssVpaulirish/email2feed
p1398
(dp1399
VPython
p1400
I3757
ssVLeaVerou/contrast-ratio
p1401
(dp1402
VJavaScript
p1403
I10303
ssVisaacs/biggie
p1404
(dp1405
sVdefunkt/colored
p1406
(dp1407
VRuby
p1408
I3351
ssVschacon/cowsay
p1409
(dp1410
VShell
p1411
I2275
ssVschacon/diveclog
p1412
(dp1413
VC
p1414
I70484
ssVaddyosmani/backbone-koans
p1415
(dp1416
VJavaScript
p1417
I174924
ssVfabpot/Box
p1418
(dp1419
VPHP
p1420
I117066
sVPerl
p1421
I92
ssVmitsuhiko/flask-pastebin
p1422
(dp1423
VPython
p1424
I5442
sVJavaScript
p1425
I1567
ssVmaccman/blossom
p1426
(dp1427
VJavaScript
p1428
I263110
sVRuby
p1429
I12752
ssVdefunkt/fakefs
p1430
(dp1431
VRuby
p1432
I135744
ssVfat/node-tmp
p1433
(dp1434
VJavaScript
p1435
I13844
ssVtpope/pickler
p1436
(dp1437
VRuby
p1438
I40721
sVVimL
p1439
I826
ssVkennethreitz/chaos-slugs
p1440
(dp1441
VPython
p1442
I980
ssVmitsuhiko/dota2-demoinfo2
p1443
(dp1444
VC++
p1445
I30852
ssVdefunkt/ace
p1446
(dp1447
VGroovy
p1448
I451
sVClojure
p1449
I794
sVJava
p1450
I396
sVCoffeeScript
p1451
I341
sVC#
p1452
I83
sVScala
p1453
I378
sVPython
p1454
I8910
sVOCaml
p1455
I539
sVC++
p1456
I193
sVPerl
p1457
I637
sVLua
p1458
I959
sVObjective-C
p1459
I6117
sVJavaScript
p1460
I3132957
sVPHP
p1461
I351
sVRuby
p1462
I164
ssVtenderlove/dnssd
p1463
(dp1464
VC
p1465
I44579
sVRuby
p1466
I54914
ssVvisionmedia/commander.c
p1467
(dp1468
VC
p1469
I7672
ssVdhh/conductor
p1470
(dp1471
VRuby
p1472
I3262
ssVtechnoweenie/attachment_fu
p1473
(dp1474
VRuby
p1475
I132960
ssVholman/keep
p1476
(dp1477
VRuby
p1478
I12533
ssVandroid/platform_external_dropbear
p1479
(dp1480
VC
p1481
I3331315
sVShell
p1482
I4930
sVAssembly
p1483
I475
sVC++
p1484
I36942
sVPerl
p1485
I12832
sVObjective-C
p1486
I1623
ssVkennethreitz/curated-nodes
p1487
(dp1488
VPython
p1489
I14372
sVJavaScript
p1490
I7873
ssVmaccman/bp-p2p
p1491
(dp1492
VRuby
p1493
I7920
ssVryanb/complex-form-examples
p1494
(dp1495
VJavaScript
p1496
I6646
sVRuby
p1497
I16943
ssVmaccman/callback-mac
p1498
(dp1499
VC
p1500
I16110
sVObjective-C
p1501
I41846
ssVremy/jsbin
p1502
(dp1503
VJavaScript
p1504
I360127
sVPHP
p1505
I48741
ssVremy/eventsource-h5d
p1506
(dp1507
VJavaScript
p1508
I28037
ssVwycats/gems
p1509
(dp1510
VRuby
p1511
I102209
ssVdefunkt/body_matcher
p1512
(dp1513
VRuby
p1514
I2234
ssVmrdoob/Hi-ReS-Stats
p1515
(dp1516
VHaxe
p1517
I4765
sVActionScript
p1518
I4525
ssVmattt/InflectorKit
p1519
(dp1520
VObjective-C
p1521
I15858
sVRuby
p1522
I416
ssVjosevalim/lfe
p1523
(dp1524
VEmacs Lisp
p1525
I16413
sVShell
p1526
I700
sVErlang
p1527
I402093
sVPerl
p1528
I1434
ssVmbostock/csv2geojson
p1529
(dp1530
VJavaScript
p1531
I8494
ssVtechnoweenie/duplikate
p1532
(dp1533
VRuby
p1534
I10103
ssVmitsuhiko/flask-kitchensink
p1535
(dp1536
VPython
p1537
I810
ssVmaccman/book-assets
p1538
(dp1539
VJavaScript
p1540
I468958
sVRuby
p1541
I2176
ssVmattt/houston
p1542
(dp1543
VRuby
p1544
I9339
ssVicodeforlove/bindstyle-ember-helper
p1545
(dp1546
VJavaScript
p1547
I2678
ssVaddyosmani/Backbone_RequireJS
p1548
(dp1549
sVandroid/platform_external_jdiff
p1550
(dp1551
VJava
p1552
I516274
ssVcloudhead/journey
p1553
(dp1554
VJavaScript
p1555
I36874
ssVvisionmedia/connect-jsonrpc
p1556
(dp1557
VJavaScript
p1558
I13415
ssVandroid/platform_external_fdlibm
p1559
(dp1560
VC
p1561
I254815
ssVtpope/vim-afterimage
p1562
(dp1563
VVimL
p1564
I4891
ssVcyanogen/htc-kernel-msm7x30-exp
p1565
(dp1566
VC
p1567
I391816476
sVShell
p1568
I155858
sVAssembly
p1569
I8517176
sVPython
p1570
I63453
sVVimL
p1571
I1355
sVC++
p1572
I52284
sVPerl
p1573
I439870
sVSuperCollider
p1574
I12158
sVObjective-C
p1575
I10878
sVASP
p1576
I4528
ssVvisionmedia/bm
p1577
(dp1578
VShell
p1579
I6292
ssVfat/coffin
p1580
(dp1581
VJavaScript
p1582
I4870
ssVmojombo/github-flavored-markdown
p1583
(dp1584
sVpaulirish/demo
p1585
(dp1586
VPHP
p1587
I9072
sVJavaScript
p1588
I157709
ssVjosevalim/cowboy
p1589
(dp1590
VPython
p1591
I2232
sVShell
p1592
I1091
sVErlang
p1593
I329023
ssVsubstack/browserify-website
p1594
(dp1595
VJavaScript
p1596
I12849
ssVmaccman/abba
p1597
(dp1598
VCoffeeScript
p1599
I8958
sVRuby
p1600
I13232
ssVkennethreitz/certifi
p1601
(dp1602
VPython
p1603
I1442
ssVtpope/heroku-wildcards
p1604
(dp1605
VRuby
p1606
I1914
ssVkennethreitz/elephant
p1607
(dp1608
VPython
p1609
I8655
ssVmbostock/mongo-mock
p1610
(dp1611
VJavaScript
p1612
I17085
ssVchriscoyier/HTML-Ipsum
p1613
(dp1614
VJavaScript
p1615
I394
ssVpaulirish/backbone.marionette
p1616
(dp1617
VJavaScript
p1618
I178935
sVRuby
p1619
I1988
ssVdouglascrockford/TDOP
p1620
(dp1621
VJavaScript
p1622
I20407
ssVcloudhead/ghoul
p1623
(dp1624
sVvisionmedia/Chipmunk-js
p1625
(dp1626
sVwycats/artifice
p1627
(dp1628
VRuby
p1629
I9926
ssVdefunkt/ambitious_activeldap
p1630
(dp1631
VRuby
p1632
I8378
ssVmbostock/queue
p1633
(dp1634
VJavaScript
p1635
I13272
ssVchriscoyier/DeseretDigitalWorkshop
p1636
(dp1637
VJavaScript
p1638
I14871
sVRuby
p1639
I771
ssVremy/helloandthankyou
p1640
(dp1641
sVigrigorik/decisiontree
p1642
(dp1643
VRuby
p1644
I18030
ssVisaacs/chownr
p1645
(dp1646
VJavaScript
p1647
I5161
ssVremy/CordovaBin
p1648
(dp1649
VJavaScript
p1650
I19139
ssVhakimel/reveal.js
p1651
(dp1652
VJavaScript
p1653
I93257
ssVmbostock/bost.ocks.org
p1654
(dp1655
VJavaScript
p1656
I38719
ssVigrigorik/contextual
p1657
(dp1658
VRuby
p1659
I7907
ssVfabpot/phpunit-mock-objects
p1660
(dp1661
VPHP
p1662
I243081
ssVchriscoyier/CSS3-StripTease
p1663
(dp1664
VJavaScript
p1665
I4193
ssVtpope/tpope
p1666
(dp1667
VXML
p1668
I192
sVC
p1669
I131
sVShell
p1670
I64902
sVJava
p1671
I24
sVC#
p1672
I130
sVJavaScript
p1673
I4652
sVVimL
p1674
I309090
sVPerl
p1675
I33
sVRuby
p1676
I1369
ssVdhh/delayed_job
p1677
(dp1678
VRuby
p1679
I25775
ssVmrdoob/frame.js
p1680
(dp1681
VPython
p1682
I331
sVF#
p1683
I10217
sVJavaScript
p1684
I28775
ssVdhh/rails_autolink
p1685
(dp1686
VRuby
p1687
I26130
ssVjashkenas/ruby-processing
p1688
(dp1689
VRuby
p1690
I62558
ssVigrigorik/hackernews-button
p1691
(dp1692
VGo
p1693
I4432
sVJavaScript
p1694
I1919
ssVpaulirish/grunt
p1695
(dp1696
VJavaScript
p1697
I188535
ssVhakimel/404
p1698
(dp1699
VJavaScript
p1700
I10029
ssVraspberrypi/target_fs
p1701
(dp1702
VShell
p1703
I4850
ssVigrigorik/closure-sprockets
p1704
(dp1705
VPython
p1706
I58490
sVRuby
p1707
I4114
ssVtekkub/Ampere
p1708
(dp1709
VLua
p1710
I30231
ssVjosevalim/rebar_elixir_plugin
p1711
(dp1712
VErlang
p1713
I10570
ssVpaulirish/Chrome-LikeBlock
p1714
(dp1715
VJavaScript
p1716
I1262
ssVdefunkt/defunkt.github.com
p1717
(dp1718
sVjosevalim/letmein
p1719
(dp1720
VRuby
p1721
I14805
ssVvisionmedia/bytes.c
p1722
(dp1723
VC
p1724
I2279
ssVicodeforlove/async
p1725
(dp1726
sVaddyosmani/community-updates
p1727
(dp1728
sVwycats/dtrace-tmbundle
p1729
(dp1730
sVryanb/dailystamp
p1731
(dp1732
VJavaScript
p1733
I4753
sVRuby
p1734
I70625
ssVpjhyett/blackjax
p1735
(dp1736
VJavaScript
p1737
I1029
sVRuby
p1738
I12213
ssVtenderlove/bundler
p1739
(dp1740
VRuby
p1741
I591454
ssVhakimel/Scroll-Effects
p1742
(dp1743
sVtekkub/daytrader
p1744
(dp1745
VLua
p1746
I1351
ssVjeresig/fireunit
p1747
(dp1748
VJavaScript
p1749
I160770
ssVjashkenas/api-playground
p1750
(dp1751
VCoffeeScript
p1752
I14055
sVJavaScript
p1753
I36422
ssVryanb/daemon_generator
p1754
(dp1755
VRuby
p1756
I818
ssVjeresig/processing-js
p1757
(dp1758
VJavaScript
p1759
I798066
sVJava
p1760
I57977132
ssVtpope/pry-editline
p1761
(dp1762
VRuby
p1763
I3369
ssVisaacs/courier
p1764
(dp1765
VCoffeeScript
p1766
I2166
ssVmitsuhiko/cli-tools
p1767
(dp1768
VPython
p1769
I2999
sVShell
p1770
I1072
ssVvisionmedia/cocos2d-iphone
p1771
(dp1772
sVmbostock/stack
p1773
(dp1774
VJavaScript
p1775
I273818
ssVholman/.js
p1776
(dp1777
VJavaScript
p1778
I1006
ssVhakimel/Kort
p1779
(dp1780
VJavaScript
p1781
I3433
ssVsubstack/astw
p1782
(dp1783
VJavaScript
p1784
I2037
ssVtenderlove/busted
p1785
(dp1786
VRuby
p1787
I6938
ssVpaulirish/es6-module-loader
p1788
(dp1789
VJavaScript
p1790
I17020
ssVpjhyett/grit
p1791
(dp1792
VRuby
p1793
I192414
ssVmattt/pricetag
p1794
(dp1795
VRuby
p1796
I11490
ssVdefunkt/faceup
p1797
(dp1798
VCoffeeScript
p1799
I2323
sVJavaScript
p1800
I7041
ssVandroid/platform_bionic
p1801
(dp1802
VC
p1803
I7670030
sVJava
p1804
I7438
sVPython
p1805
I153144
sVC++
p1806
I814489
sVObjective-C
p1807
I14556
sVAssembly
p1808
I770109
ssVicodeforlove/JavaScript-Canvas-to-Blob
p1809
(dp1810
sVpaulirish/compass
p1811
(dp1812
VJavaScript
p1813
I301
sVRuby
p1814
I268261
ssVicodeforlove/socket.IO-objc
p1815
(dp1816
sVjosevalim/enginex
p1817
(dp1818
VRuby
p1819
I13814
ssVcloudhead/golem
p1820
(dp1821
VJavaScript
p1822
I41895
sVC++
p1823
I10020
ssVdhh/thinking-sphinx
p1824
(dp1825
VRuby
p1826
I672780
ssVfabpot/Pimple
p1827
(dp1828
VPHP
p1829
I18285
ssVwycats/chainable_compare
p1830
(dp1831
VRuby
p1832
I1454
ssVmattt/Orbiter
p1833
(dp1834
VObjective-C
p1835
I16438
sVRuby
p1836
I429
ssVfabpot/PHP-Parser
p1837
(dp1838
VPHP
p1839
I426966
ssVtpope/rails-default-database
p1840
(dp1841
VRuby
p1842
I2510
ssVjeresig/casperjs
p1843
(dp1844
sVfabpot/output-escaper
p1845
(dp1846
VPHP
p1847
I44727
ssVwycats/css_to_xpath
p1848
(dp1849
VRuby
p1850
I38031
ssVkennethreitz/envy
p1851
(dp1852
VPython
p1853
I67255
ssVmattt/passbook_rails_example
p1854
(dp1855
VJavaScript
p1856
I1040
sVRuby
p1857
I19384
ssVisaacs/colors.js
p1858
(dp1859
sVsubstack/CAPS-LOCK
p1860
(dp1861
sVmbostock/world-atlas
p1862
(dp1863
VJavaScript
p1864
I747
ssVmitsuhiko/flask-fungiform
p1865
(dp1866
VPython
p1867
I11113
ssVjashkenas/new-turing-omnibus
p1868
(dp1869
VRuby
p1870
I4290
ssVtenderlove/awkward
p1871
(dp1872
VRuby
p1873
I2957
ssVremy/boxcrateairlines
p1874
(dp1875
VPHP
p1876
I43043
ssVtechnoweenie/context_on_crack
p1877
(dp1878
sVcloudhead/espresso-themes
p1879
(dp1880
VRuby
p1881
I12625
ssVtenderlove/deebee
p1882
(dp1883
VC
p1884
I3740
sVRuby
p1885
I2692
ssVmbostock/shapefile
p1886
(dp1887
VJavaScript
p1888
I26204
ssVschacon/bundler
p1889
(dp1890
VRuby
p1891
I28270
ssVwycats/bundler
p1892
(dp1893
sVisaacs/abbrev-js
p1894
(dp1895
VJavaScript
p1896
I2769
ssVtekkub/addonloader
p1897
(dp1898
VLua
p1899
I33950
ssVmbostock/smash
p1900
(dp1901
VJavaScript
p1902
I31498
ssVfabpot/dflydev-markdown
p1903
(dp1904
VPHP
p1905
I85520
ssVwycats/at-media
p1906
(dp1907
sVmrdoob/system.js
p1908
(dp1909
VPython
p1910
I342
sVJavaScript
p1911
I2279
ssVmrdoob/midemhackday
p1912
(dp1913
VPython
p1914
I5049
sVJavaScript
p1915
I367937
ssVjashkenas/learning-processing-with-ruby
p1916
(dp1917
VRuby
p1918
I107460
ssVicodeforlove/node
p1919
(dp1920
sVicodeforlove/node-cmd-exists
p1921
(dp1922
VJavaScript
p1923
I1524
ssVmattt/heroku-buildpack-core-data
p1924
(dp1925
VShell
p1926
I1024
ssVcloudhead/koi
p1927
(dp1928
VRuby
p1929
I11170
ssVmaccman/csbook
p1930
(dp1931
VCoffeeScript
p1932
I2314
ssVwycats/ficha
p1933
(dp1934
sVandroid/platform_external_libffi
p1935
(dp1936
VC
p1937
I790420
sVShell
p1938
I441601
sVAssembly
p1939
I249384
sVC++
p1940
I5079
ssVpaulirish/examples
p1941
(dp1942
VJavaScript
p1943
I10187
ssVtechnoweenie/developer.github.com
p1944
(dp1945
VShell
p1946
I26
sVRuby
p1947
I36738
sVJavaScript
p1948
I2413
ssVmitsuhiko/flask-openid
p1949
(dp1950
VPython
p1951
I32022
ssVjosevalim/jose-vs-oss
p1952
(dp1953
VCoffeeScript
p1954
I2718
ssVmattt/Glitz
p1955
(dp1956
VRuby
p1957
I2730
ssVjeresig/i18n-node-2
p1958
(dp1959
VJavaScript
p1960
I12743
ssVandroid/platform_external_emma
p1961
(dp1962
VShell
p1963
I3092
sVJava
p1964
I1374119
ssVchriscoyier/Slides
p1965
(dp1966
VJavaScript
p1967
I1000
sVPHP
p1968
I6205
ssVLeaVerou/HTML5-Progress-polyfill
p1969
(dp1970
VJavaScript
p1971
I9559
ssVtenderlove/betachat
p1972
(dp1973
sVryanb/acts-as-list
p1974
(dp1975
VRuby
p1976
I20182
ssVicodeforlove/githtml
p1977
(dp1978
sVsubstack/asynth
p1979
(dp1980
VJavaScript
p1981
I2137
ssVaddyosmani/backbone-aura
p1982
(dp1983
sVandroid/platform_external_apache-http
p1984
(dp1985
VJava
p1986
I2103090
ssVcloudhead/extender
p1987
(dp1988
VRuby
p1989
I1726
ssVryanb/admiteer
p1990
(dp1991
sVcyanogen/android_kernel_samsung_msm8660-common
p1992
(dp1993
VGroovy
p1994
I130
sVC
p1995
I444502139
sVASP
p1996
I4528
sVAssembly
p1997
I8635627
sVPython
p1998
I72692
sVJavaScript
p1999
I644094
sVVimL
p2000
I1355
sVC++
p2001
I1743047
sVPerl
p2002
I5342718
sVObjective-C
p2003
I5237860
sVShell
p2004
I645171
sVRacket
p2005
I263704
sVScilab
p2006
I21433
sVPHP
p2007
I49453
sVRuby
p2008
I79233
ssVtekkub/experitia
p2009
(dp2010
VLua
p2011
I12717
ssVmojombo/github-gem
p2012
(dp2013
VRuby
p2014
I45342
ssVisaacs/coffee-cleanse
p2015
(dp2016
VCoffeeScript
p2017
I88
sVJavaScript
p2018
I1621
ssVchriscoyier/Hover-or-Tap-Reveal-Dropdown-Menu-Demo
p2019
(dp2020
VRuby
p2021
I758
ssVtechnoweenie/active_record_context
p2022
(dp2023
VRuby
p2024
I6775
ssVicodeforlove/BrowserQuest
p2025
(dp2026
sVkennethreitz/genome
p2027
(dp2028
sVfabpot/MonologBundle
p2029
(dp2030
VPHP
p2031
I62882
ssVLeaVerou/csss
p2032
(dp2033
VJavaScript
p2034
I31976
ssVmitsuhiko/django
p2035
(dp2036
VPython
p2037
I7282847
sVShell
p2038
I4559
sVJavaScript
p2039
I85678
ssVtpope/gem-browse
p2040
(dp2041
VRuby
p2042
I6157
ssVholman/facelette
p2043
(dp2044
VJavaScript
p2045
I5998
sVRuby
p2046
I14221
ssVicodeforlove/node-cubby
p2047
(dp2048
VJavaScript
p2049
I2396
ssVwycats/dr-nic-magic-awesome
p2050
(dp2051
sVvisionmedia/client-user
p2052
(dp2053
VJavaScript
p2054
I5707
ssVmitsuhiko/frostbite2-stuff
p2055
(dp2056
VPython
p2057
I25325
ssVmitsuhiko/flask-js-hostname-example
p2058
(dp2059
VPython
p2060
I452
sVJavaScript
p2061
I70
ssVvisionmedia/.ndistro
p2062
(dp2063
sVhakimel/Meny
p2064
(dp2065
VJavaScript
p2066
I18832
ssVmitsuhiko/flask-oauth
p2067
(dp2068
VPython
p2069
I34158
ssVtenderlove/activerecord-sqlserver-adapter
p2070
(dp2071
VRuby
p2072
I152283
ssVaddyosmani/backbone.paginator
p2073
(dp2074
VJavaScript
p2075
I586951
ssVmojombo/grit
p2076
(dp2077
VRuby
p2078
I219851
ssVigrigorik/em-socksify
p2079
(dp2080
VRuby
p2081
I7670
ssVjosevalim/localized_templates
p2082
(dp2083
VRuby
p2084
I5590
ssVandroid/platform_external_bluez
p2085
(dp2086
VPython
p2087
I36393
sVC
p2088
I3150623
sVShell
p2089
I1419573
sVObjective-C
p2090
I27332
sVC++
p2091
I19
ssVjeresig/jquery-workshop
p2092
(dp2093
VPHP
p2094
I6547
sVJavaScript
p2095
I389494
ssVmojombo/bower
p2096
(dp2097
VJavaScript
p2098
I80072
sVRuby
p2099
I294
ssVtpope/rbenv-aliases
p2100
(dp2101
VShell
p2102
I3940
ssVmitsuhiko/flask-babel
p2103
(dp2104
VPython
p2105
I33738
sVShell
p2106
I4114
ssVkennethreitz/args
p2107
(dp2108
VPython
p2109
I12697
ssVholman/octopi
p2110
(dp2111
VJavaScript
p2112
I522
sVRuby
p2113
I111775
ssVdefunkt/evilbot
p2114
(dp2115
VCoffeeScript
p2116
I7130
sVShell
p2117
I205
ssVremy/html5demos
p2118
(dp2119
VJavaScript
p2120
I17371
sVPHP
p2121
I9175
ssVryanb/blog-screencast
p2122
(dp2123
VJavaScript
p2124
I148
sVRuby
p2125
I21873
ssVfat/stache
p2126
(dp2127
VJavaScript
p2128
I3095
ssVfabpot/gitlist
p2129
(dp2130
VPHP
p2131
I65325
sVJavaScript
p2132
I719
ssVschacon/amp
p2133
(dp2134
VC
p2135
I78584
sVJavaScript
p2136
I61495
sVRuby
p2137
I1095653
ssVmrdoob/xplsv_orsotheysay
p2138
(dp2139
VJavaScript
p2140
I37958
ssVicodeforlove/mailcheck
p2141
(dp2142
sVjosevalim/rebar
p2143
(dp2144
VC
p2145
I1942
sVShell
p2146
I1118
sVErlang
p2147
I368274
sVPerl
p2148
I12031
ssVtekkub/areyouthreateningme
p2149
(dp2150
VLua
p2151
I14653
ssVmbostock/nodeunit
p2152
(dp2153
VCoffeeScript
p2154
I64
sVJavaScript
p2155
I190362
ssVwycats/dm-core
p2156
(dp2157
VShell
p2158
I1431
sVRuby
p2159
I608024
ssVjosevalim/g-workshop-2011
p2160
(dp2161
VCoffeeScript
p2162
I229
sVJavaScript
p2163
I463
sVRuby
p2164
I56523
ssVtekkub/github-gem
p2165
(dp2166
VRuby
p2167
I105481
ssVdouglascrockford/monad
p2168
(dp2169
VJavaScript
p2170
I12033
ssVryanb/exception_logger
p2171
(dp2172
VJavaScript
p2173
I1531
sVRuby
p2174
I9377
ssVfat/less.js
p2175
(dp2176
VJavaScript
p2177
I172908
ssVdefunkt/cheat.el
p2178
(dp2179
VEmacs Lisp
p2180
I9487
ssVwycats/active_params
p2181
(dp2182
sVtpope/rack-taint
p2183
(dp2184
VRuby
p2185
I3443
ssVfat/haunt
p2186
(dp2187
VJavaScript
p2188
I29489
ssVisaacs/builder
p2189
(dp2190
sVLeaVerou/tweeplus
p2191
(dp2192
VJavaScript
p2193
I6988
ssVmbostock/git-static
p2194
(dp2195
VJavaScript
p2196
I5497
ssVsubstack/browser-badge
p2197
(dp2198
VJavaScript
p2199
I3512
ssVaddyosmani/backbone-boilerplates
p2200
(dp2201
VGroovy
p2202
I6927
sVShell
p2203
I737
sVJavaScript
p2204
I582949
sVCoffeeScript
p2205
I6057
sVPHP
p2206
I923
sVRuby
p2207
I13821
ssVfabpot/AsseticBundle
p2208
(dp2209
VPHP
p2210
I127093
sVJavaScript
p2211
I34
ssVraspberrypi/quake3
p2212
(dp2213
VC
p2214
I9081685
sVShell
p2215
I22287
sVAssembly
p2216
I34527
sVC++
p2217
I399041
sVObjective-C
p2218
I554797
sVMatlab
p2219
I2076
ssVtpope/hookup
p2220
(dp2221
VRuby
p2222
I6761
ssVryanb/railscasts-episodes
p2223
(dp2224
VPython
p2225
I4319
sVCoffeeScript
p2226
I79141
sVShell
p2227
I7954
sVRuby
p2228
I7324228
sVJavaScript
p2229
I676122
ssVaddyosmani/backbone-koans-qunit
p2230
(dp2231
VJavaScript
p2232
I95873
ssVfabpot/dbal
p2233
(dp2234
VPython
p2235
I9969
sVShell
p2236
I1030
sVPHP
p2237
I1362307
ssVkennethreitz/flask-googlefed
p2238
(dp2239
VPython
p2240
I4110
ssVpjhyett/errcount
p2241
(dp2242
VRuby
p2243
I8502
ssVvisionmedia/commander
p2244
(dp2245
VRuby
p2246
I68042
ssVandroid/platform_external_clearsilver
p2247
(dp2248
VC
p2249
I885574
sVShell
p2250
I246749
sVJava
p2251
I34548
sVC#
p2252
I43681
sVEmacs Lisp
p2253
I1266
sVC++
p2254
I463
sVPerl
p2255
I5693
sVPython
p2256
I179617
sVRuby
p2257
I23143
ssVfat/LanguageFundamentals
p2258
(dp2259
VJavaScript
p2260
I16576
ssVjeresig/babel
p2261
(dp2262
VPython
p2263
I472192
sVJavaScript
p2264
I4753
ssVcloudhead/dotfiles
p2265
(dp2266
VC
p2267
I24435
sVShell
p2268
I474
sVPython
p2269
I34827
sVJavaScript
p2270
I0
sVVimL
p2271
I169875
sVRuby
p2272
I39942
ssVschacon/bup
p2273
(dp2274
sVpaulirish/caniuse
p2275
(dp2276
sVigrigorik/libgeohash
p2277
(dp2278
VRuby
p2279
I3645
ssVkennethreitz/clint
p2280
(dp2281
VPython
p2282
I92443
sVShell
p2283
I4983
sVJavaScript
p2284
I21380
ssVjeresig/SpookyJS
p2285
(dp2286
VJavaScript
p2287
I83122
ssVsubstack/bouncy
p2288
(dp2289
VJavaScript
p2290
I42038
ssVpjhyett/gitscm-next
p2291
(dp2292
sVtekkub/fuzzylogic
p2293
(dp2294
VLua
p2295
I39910
ssVmrdoob/eventdispatcher.js
p2296
(dp2297
VJavaScript
p2298
I1387
ssVandroid/platform_external_elfutils
p2299
(dp2300
VC
p2301
I3857937
sVShell
p2302
I276422
sVC++
p2303
I62768
ssVmitsuhiko/flask
p2304
(dp2305
VPython
p2306
I423303
sVShell
p2307
I3712
ssVjeresig/vote
p2308
(dp2309
VJavaScript
p2310
I6704
ssVdouglascrockford/JSDev
p2311
(dp2312
VC
p2313
I14067
sVJavaScript
p2314
I14433
ssVmojombo/erlang_pipe
p2315
(dp2316
VErlang
p2317
I2726
ssVicodeforlove/npm-delegate
p2318
(dp2319
sVsubstack/bashful
p2320
(dp2321
VJavaScript
p2322
I4674
ssVwycats/Command-T
p2323
(dp2324
VRuby
p2325
I91129
sVC
p2326
I23888
sVShell
p2327
I817
sVVimL
p2328
I4430
ssVfat/bean
p2329
(dp2330
VJavaScript
p2331
I514998
ssVtechnoweenie/can_search
p2332
(dp2333
VRuby
p2334
I24497
ssVryanb/importex
p2335
(dp2336
VRuby
p2337
I7857
ssVhakimel/forkit.js
p2338
(dp2339
VJavaScript
p2340
I8602
ssVholman/maliciousurl
p2341
(dp2342
VRuby
p2343
I971
ssVcloudhead/lesscss.org
p2344
(dp2345
VJavaScript
p2346
I2926
sVRuby
p2347
I2191
ssVmaccman/airguide
p2348
(dp2349
VJavaScript
p2350
I6426
sVRuby
p2351
I11523
ssVmaccman/bowline-update
p2352
(dp2353
VRuby
p2354
I4549
ssVcyanogen/cm-updater-manifest
p2355
(dp2356
VJavaScript
p2357
I16632
ssVmitsuhiko/daap-forward
p2358
(dp2359
VPython
p2360
I2007
ssVpjhyett/LicenseFinder
p2361
(dp2362
sVfat/read-package-json
p2363
(dp2364
VJavaScript
p2365
I22438
ssVisaacs/conway
p2366
(dp2367
VCoffeeScript
p2368
I5097
ssVholman/boom
p2369
(dp2370
VShell
p2371
I12431
sVRuby
p2372
I33165
ssVpaulirish/auto_npm
p2373
(dp2374
VJavaScript
p2375
I5703
ssVmojombo/egitd
p2376
(dp2377
VErlang
p2378
I57722
ssVandroid/platform_external_icu4c
p2379
(dp2380
VXML
p2381
I1145
sVC
p2382
I10090654
sVShell
p2383
I21114
sVPython
p2384
I23274
sVC++
p2385
I15282819
sVPerl
p2386
I117135
sVObjective-C
p2387
I64424
ssVfabpot/event-dispatcher
p2388
(dp2389
VPHP
p2390
I16452
ssVtpope/artifice-passthru
p2391
(dp2392
VRuby
p2393
I10274
ssVfat/bootstrap
p2394
(dp2395
VJavaScript
p2396
I191479
ssVtechnoweenie/camo.go
p2397
(dp2398
VGo
p2399
I8330
sVShell
p2400
I308
ssVfabpot/JMSSecurityExtraBundle
p2401
(dp2402
VPHP
p2403
I297386
sVPerl
p2404
I16136
ssVjeresig/datacook
p2405
(dp2406
VPerl
p2407
I8962
ssVjosevalim/lego-lang
p2408
(dp2409
sVmaccman/chrome-hud
p2410
(dp2411
VCoffeeScript
p2412
I1732
sVRuby
p2413
I74
ssVkennethreitz/airstream
p2414
(dp2415
sVvisionmedia/client-sha1
p2416
(dp2417
VJavaScript
p2418
I6357
ssVandroid/platform_external_dbus
p2419
(dp2420
VXML
p2421
I3803
sVC
p2422
I3609531
sVShell
p2423
I15662
sVPython
p2424
I10669
sVC++
p2425
I16873
sVObjective-C
p2426
I4662
ssVfat/twitter-text-js
p2427
(dp2428
VJavaScript
p2429
I966757
sVRuby
p2430
I3270
ssVisaacs/.vim
p2431
(dp2432
VVimL
p2433
I6447623
sVC
p2434
I25366
sVShell
p2435
I1615
sVRuby
p2436
I234830
ssVaddyosmani/dotfiles
p2437
(dp2438
VShell
p2439
I29878
sVVimL
p2440
I11477
sVPerl
p2441
I22264
ssVmattt/core_data
p2442
(dp2443
VRuby
p2444
I5678
ssVhakimel/Coil
p2445
(dp2446
sVpaulirish/chimelat
p2447
(dp2448
VJavaScript
p2449
I2079
ssVpaulirish/cdnjs
p2450
(dp2451
VShell
p2452
I48
sVJavaScript
p2453
I21967000
ssVpjhyett/auto_migrations
p2454
(dp2455
VRuby
p2456
I8464
ssVjeresig/wtpa-bot
p2457
(dp2458
VJavaScript
p2459
I349
sVPerl
p2460
I14978
ssVandroid/platform_external_libpcap
p2461
(dp2462
VC
p2463
I1081710
sVShell
p2464
I7935
sVC++
p2465
I416
sVPerl
p2466
I900
ssVmattt/FormatterKit
p2467
(dp2468
VObjective-C
p2469
I151374
sVRuby
p2470
I1625
ssVcloudhead/nimbus
p2471
(dp2472
VJavaScript
p2473
I14145
ssVmaccman/catapult
p2474
(dp2475
VJavaScript
p2476
I83
sVRuby
p2477
I6555
ssVvisionmedia/connect-redis
p2478
(dp2479
VJavaScript
p2480
I4665
ssVmrdoob/sequencer.js
p2481
(dp2482
VJavaScript
p2483
I2284
ssVmojombo/ernie
p2484
(dp2485
VErlang
p2486
I43963
sVRuby
p2487
I23990
ssVmattt/AnyJSON
p2488
(dp2489
VObjective-C
p2490
I28618
sVRuby
p2491
I413
sVC++
p2492
I1444
ssVcloudhead/eyes.js
p2493
(dp2494
VJavaScript
p2495
I13157
ssVvisionmedia/cdescent
p2496
(dp2497
VC
p2498
I73317
sVVisual Basic
p2499
I577
ssVcloudhead/diffraction
p2500
(dp2501
VJavaScript
p2502
I780
sVRuby
p2503
I3035
ssVmaccman/colorcanvas
p2504
(dp2505
VCoffeeScript
p2506
I15069
sVJavaScript
p2507
I22738
sVRuby
p2508
I693
ssVisaacs/audit_couchdb
p2509
(dp2510
VJavaScript
p2511
I27771
ssVholman/boxen-web
p2512
(dp2513
VShell
p2514
I849
sVJavaScript
p2515
I42
sVRuby
p2516
I12432
ssVryanb/nested_form
p2517
(dp2518
VJavaScript
p2519
I546
sVRuby
p2520
I38754
ssVmaccman/authlogic-connect
p2521
(dp2522
VRuby
p2523
I76830
ssVfabpot/DoctrineBundle
p2524
(dp2525
VPHP
p2526
I191206
ssVicodeforlove/24pullrequests
p2527
(dp2528
VCoffeeScript
p2529
I986
sVJavaScript
p2530
I15368
sVRuby
p2531
I40369
ssVigrigorik/em-proxy
p2532
(dp2533
VRuby
p2534
I41708
ssVmbostock/node-envy
p2535
(dp2536
VJavaScript
p2537
I1092
ssVandroid/platform_external_giflib
p2538
(dp2539
VC
p2540
I76374
ssVryanb/enlighten
p2541
(dp2542
VJavaScript
p2543
I343
sVRuby
p2544
I9559
ssVdefunkt/fixture_scenarios_builder
p2545
(dp2546
VRuby
p2547
I5434
ssVcloudhead/github-unwatcher
p2548
(dp2549
VJavaScript
p2550
I1135
ssVicodeforlove/iTerm-colors
p2551
(dp2552
sVtenderlove/ben_string
p2553
(dp2554
VRuby
p2555
I755
ssVmitsuhiko/flask-sqlalchemy
p2556
(dp2557
VPython
p2558
I58186
ssVdefunkt/dodgeball.github.com
p2559
(dp2560
VJavaScript
p2561
I2417
sVRuby
p2562
I5380
ssVjosevalim/better_errors
p2563
(dp2564
VRuby
p2565
I28844
ssVjosevalim/genx
p2566
(dp2567
VElixir
p2568
I41339
ssVjashkenas/coffee-script-tmbundle
p2569
(dp2570
sVjeresig/selectortest
p2571
(dp2572
sVchriscoyier/FitText.js
p2573
(dp2574
VJavaScript
p2575
I1867
ssVcloudhead/cradle
p2576
(dp2577
VJavaScript
p2578
I80448
ssVkennethreitz/dj-database-url
p2579
(dp2580
VPython
p2581
I6811
ssVLeaVerou/prefixfree
p2582
(dp2583
VShell
p2584
I215
sVJavaScript
p2585
I20913
ssVpaulirish/Gmail-mailing-list-permalink-chromeext
p2586
(dp2587
VJavaScript
p2588
I3527
ssVmaccman/authlogic
p2589
(dp2590
VRuby
p2591
I257032
ssVremy/appcachefacts
p2592
(dp2593
sVholman/boxen.github.com
p2594
(dp2595
sVsubstack/bisc
p2596
(dp2597
VHaskell
p2598
I20223
sVAssembly
p2599
I2113
ssVjeresig/nodelist
p2600
(dp2601
VJavaScript
p2602
I9047
ssVholman/old-and-busted-dotfiles
p2603
(dp2604
sVschacon/chronic
p2605
(dp2606
sVjeresig/khan-exercises
p2607
(dp2608
VPython
p2609
I29591
sVShell
p2610
I1414
sVJavaScript
p2611
I1879864
sVRuby
p2612
I7484
ssVvisionmedia/burl
p2613
(dp2614
VShell
p2615
I2859
ssVholman/fatigue
p2616
(dp2617
VRuby
p2618
I24341
ssVisaacs/block-stream
p2619
(dp2620
VJavaScript
p2621
I22459
ssVicodeforlove/node-prompt
p2622
(dp2623
sVLeaVerou/StronglyTyped
p2624
(dp2625
VJavaScript
p2626
I3743
ssVmattt/mattt.github.com
p2627
(dp2628
sVtekkub/doublecaps
p2629
(dp2630
VJavaScript
p2631
I269
ssVigrigorik/em-synchrony
p2632
(dp2633
VGo
p2634
I688
sVRuby
p2635
I112008
ssVmaccman/cramp
p2636
(dp2637
VRuby
p2638
I60157
ssVsubstack/browserify-v2-talk
p2639
(dp2640
VShell
p2641
I316
sVJavaScript
p2642
I3352
sVCoffeeScript
p2643
I113
ssVdouglascrockford/JSLint
p2644
(dp2645
VJavaScript
p2646
I163792
ssVmattt/Chroma-Hash
p2647
(dp2648
VJavaScript
p2649
I10716
ssVchriscoyier/Fluid-Width-Video
p2650
(dp2651
sVdefunkt/electron-wordwrap
p2652
(dp2653
sVfat/package-jquery-ui
p2654
(dp2655
VJavaScript
p2656
I20
ssVtenderlove/compiler
p2657
(dp2658
VRuby
p2659
I8986
ssVigrigorik/em-websocket
p2660
(dp2661
VRuby
p2662
I101404
ssVraspberrypi/tools
p2663
(dp2664
VC
p2665
I25060457
sVShell
p2666
I90730
sVPython
p2667
I193772
sVJavaScript
p2668
I57889458
sVC++
p2669
I13240426
sVPerl
p2670
I742789
sVFORTRAN
p2671
I10235
sVObjective-C
p2672
I188234
ssVLeaVerou/incrementable
p2673
(dp2674
VJavaScript
p2675
I3377
ssVsubstack/browser-badge-cached
p2676
(dp2677
VJavaScript
p2678
I2850
ssVtekkub/github-upload
p2679
(dp2680
VRuby
p2681
I3946
ssVholman/casual
p2682
(dp2683
VRuby
p2684
I5266
ssVremy/clickhighlight
p2685
(dp2686
sVchriscoyier/SurveyMonkey-Design-Patterns
p2687
(dp2688
VJavaScript
p2689
I36214
ssVhakimel/Holobox
p2690
(dp2691
VJavaScript
p2692
I4696
ssVisaacs/couchdb-log-parse
p2693
(dp2694
VJavaScript
p2695
I28469
ssVmattt/postgresapp.com
p2696
(dp2697
VJavaScript
p2698
I9557
sVRuby
p2699
I2165
ssVtechnoweenie/acts_as_versioned
p2700
(dp2701
VRuby
p2702
I47846
ssVmattt/mobius
p2703
(dp2704
VRuby
p2705
I10055
ssVfat/shepherd
p2706
(dp2707
VJavaScript
p2708
I210249
ssVmaccman/bowline
p2709
(dp2710
VJavaScript
p2711
I305
sVRuby
p2712
I100576
ssVholman/hopper
p2713
(dp2714
VCoffeeScript
p2715
I2424
sVJavaScript
p2716
I13231
sVRuby
p2717
I71418
sVShell
p2718
I569
ssVkennethreitz/atom
p2719
(dp2720
VPython
p2721
I450
ssVmbostock/mbostock.github.com
p2722
(dp2723
sVhakimel/Radar
p2724
(dp2725
VJavaScript
p2726
I212592
ssVtechnoweenie/15
p2727
(dp2728
sVLeaVerou/rgba.php
p2729
(dp2730
VPHP
p2731
I5791
ssVtpope/heroku-surrogate
p2732
(dp2733
VRuby
p2734
I2171
ssVvisionmedia/browserid
p2735
(dp2736
VShell
p2737
I6323
sVJavaScript
p2738
I1895117
ssVdefunkt/dotjs
p2739
(dp2740
VJavaScript
p2741
I253
sVRuby
p2742
I3916
sVPerl
p2743
I3606
ssVmattt/cupertino
p2744
(dp2745
VRuby
p2746
I29985
sVPerl
p2747
I561
ssVwycats/experimental-amber-todos
p2748
(dp2749
VShell
p2750
I890
sVJavaScript
p2751
I218804
ssVryanb/rails_admin
p2752
(dp2753
VJavaScript
p2754
I100291
sVRuby
p2755
I231648
ssVfabpot/Goutte
p2756
(dp2757
VPHP
p2758
I15145
ssVwycats/abbot-from-scratch
p2759
(dp2760
VRuby
p2761
I31648
ssVmattt/decoder-ring
p2762
(dp2763
VRuby
p2764
I12672
ssVvisionmedia/computed-style
p2765
(dp2766
sVaddyosmani/css3-transition-fallbacks
p2767
(dp2768
sVvisionmedia/axon-msgpack
p2769
(dp2770
VJavaScript
p2771
I573
ssVhakimel/zoom.js
p2772
(dp2773
VJavaScript
p2774
I6688
ssVtenderlove/arel
p2775
(dp2776
VRuby
p2777
I221363
ssVschacon/example
p2778
(dp2779
sVmaccman/components
p2780
(dp2781
VCoffeeScript
p2782
I3992
ssVschacon/dotjs
p2783
(dp2784
VJavaScript
p2785
I584
sVRuby
p2786
I4503
ssVholman/left
p2787
(dp2788
VJavaScript
p2789
I18
ssVryanb/association-freezer
p2790
(dp2791
VRuby
p2792
I8243
ssVandroid/platform_external_dhcpcd
p2793
(dp2794
VC
p2795
I341539
sVShell
p2796
I1009
sVC++
p2797
I4991
ssVtpope/rbenv
p2798
(dp2799
VShell
p2800
I27836
ssVvisionmedia/better-assert
p2801
(dp2802
VJavaScript
p2803
I843
ssVmbostock/polly-b-gone
p2804
(dp2805
VObjective-C
p2806
I11421
sVC++
p2807
I201221
ssVmaccman/bp-bonjour
p2808
(dp2809
VRuby
p2810
I122382
ssVigrigorik/bloomfilter-rb
p2811
(dp2812
VC
p2813
I12118
sVRuby
p2814
I18264
sVObjective-C
p2815
I4777
ssVtpope/heroku-pgbackups-pull
p2816
(dp2817
VRuby
p2818
I1477
ssVcloudhead/mrchat
p2819
(dp2820
VC
p2821
I27124
ssVfat/jquery
p2822
(dp2823
VPHP
p2824
I7582
sVJavaScript
p2825
I718735
ssVpaulirish/community-updates
p2826
(dp2827
sVpaulirish/css3please
p2828
(dp2829
VJavaScript
p2830
I78834
sVActionScript
p2831
I2795
ssVschacon/blah
p2832
(dp2833
VJavaScript
p2834
I463
sVRuby
p2835
I14072
ssVkennethreitz/envy-versions
p2836
(dp2837
sVryanb/maestro
p2838
(dp2839
VC
p2840
I253
sVRuby
p2841
I4848
sVObjective-C
p2842
I4285
ssVryanb/letter_opener
p2843
(dp2844
VRuby
p2845
I13691
ssVmitsuhiko/bf3-aggregator
p2846
(dp2847
VPython
p2848
I27972
sVJavaScript
p2849
I762
ssVryanb/myideadrawer
p2850
(dp2851
sVpaulirish/developers.whatwg.org
p2852
(dp2853
sVmitsuhiko/flask-extension-wizard
p2854
(dp2855
VPython
p2856
I9075
ssVmojombo/glowstick
p2857
(dp2858
VRuby
p2859
I4624
ssVtechnoweenie/faraday-zeromq
p2860
(dp2861
VPython
p2862
I328
sVJavaScript
p2863
I479
sVRuby
p2864
I9267
ssVandroid/platform_dalvik
p2865
(dp2866
VC
p2867
I505442
sVShell
p2868
I35496
sVJava
p2869
I4896662
sVPython
p2870
I33099
sVJavaScript
p2871
I49250
sVC++
p2872
I6595643
sVObjective-C
p2873
I12017
sVAwk
p2874
I15195
sVAssembly
p2875
I5433827
sVObjective-J
p2876
I153260
ssVtenderlove/dom-test-suite
p2877
(dp2878
VJava
p2879
I293423
sVJavaScript
p2880
I113394
sVRuby
p2881
I1209
ssVhakimel/kontext
p2882
(dp2883
VJavaScript
p2884
I3709
ssVtenderlove/capybara
p2885
(dp2886
VJavaScript
p2887
I672
sVRuby
p2888
I92028
ssVsubstack/amok-copter
p2889
(dp2890
VJavaScript
p2891
I1076
ssVmaccman/bp-server
p2892
(dp2893
VRuby
p2894
I3170
ssVjashkenas/know-thy-congressman
p2895
(dp2896
VJavaScript
p2897
I88797
sVRuby
p2898
I30074
ssVmojombo/cubesixel
p2899
(dp2900
sVicodeforlove/colors.js
p2901
(dp2902
sVmaccman/bowline-bundler
p2903
(dp2904
VRuby
p2905
I29773
ssVtekkub/friendswithbenefits
p2906
(dp2907
VLua
p2908
I12252
ssVmbostock/bl.ocks.org
p2909
(dp2910
VShell
p2911
I63
sVJavaScript
p2912
I3399
ssVigrigorik/libsnappy
p2913
(dp2914
VRuby
p2915
I1398
sVC++
p2916
I723
ssVigrigorik/ImageQuote
p2917
(dp2918
VRuby
p2919
I3426
ssVwycats/cafe
p2920
(dp2921
sVpaulirish/browser-logos
p2922
(dp2923
sVryanb/railscasts
p2924
(dp2925
VJavaScript
p2926
I8030
sVRuby
p2927
I91362
ssVigrigorik/dubious
p2928
(dp2929
VRuby
p2930
I22065
sVJavaScript
p2931
I10911
sVJava
p2932
I8427
sVMirah
p2933
I32487
ssVremy/arduino
p2934
(dp2935
VC
p2936
I142086
sVC++
p2937
I119383
sVArduino
p2938
I103904
ssVdefunkt/facebox
p2939
(dp2940
VJavaScript
p2941
I9251
ssVmbostock/topojson
p2942
(dp2943
VJavaScript
p2944
I94516
ssVaddyosmani/builtwith.angularjs.org
p2945
(dp2946
sVholman/live-validations
p2947
(dp2948
VRuby
p2949
I46094
ssVremy/forget-the-web
p2950
(dp2951
VJavaScript
p2952
I8884
ssVdhh/rails_xss
p2953
(dp2954
VRuby
p2955
I4005
ssVaddyosmani/dotnetmagazine
p2956
(dp2957
VJavaScript
p2958
I149289
ssVtorvalds/subsurface
p2959
(dp2960
VXML
p2961
I93118
sVC
p2962
I1142458
sVShell
p2963
I8904
sVPerl
p2964
I1188
ssVicodeforlove/node-ftp
p2965
(dp2966
sVfat/fam
p2967
(dp2968
sVjeresig/kittydar
p2969
(dp2970
sVcloudhead/erlapp.template
p2971
(dp2972
VShell
p2973
I193
sVErlang
p2974
I2393
ssVwycats/es6-module-transpiler
p2975
(dp2976
VCoffeeScript
p2977
I46105
sVJavaScript
p2978
I33927
ssVcloudhead/gogol
p2979
(dp2980
VGo
p2981
I13842
sVC
p2982
I8561
sVC++
p2983
I1036
ssVaddyosmani/dotjs-website
p2984
(dp2985
VJavaScript
p2986
I140185
ssVaddyosmani/cssprettifier-bookmarklet
p2987
(dp2988
VJavaScript
p2989
I2040
ssVcloudhead/node-intro
p2990
(dp2991
VJavaScript
p2992
I1584
sVRuby
p2993
I368
ssVdouglascrockford/ADsafe
p2994
(dp2995
VJavaScript
p2996
I66633
ssVmrdoob/glsl-sandbox
p2997
(dp2998
VJavaScript
p2999
I264014
sVRuby
p3000
I5603
ssVisaacs/canonical-host
p3001
(dp3002
VJavaScript
p3003
I15829
ssVcloudhead/http-console
p3004
(dp3005
VJavaScript
p3006
I13989
ssVisaacs/couch-irc-log
p3007
(dp3008
VJavaScript
p3009
I3853
ssVwycats/handlebars-parser
p3010
(dp3011
VJavaScript
p3012
I42097
sVRuby
p3013
I13106
ssVremy/inliner
p3014
(dp3015
VJavaScript
p3016
I22628
ssVdouglascrockford/JSMin
p3017
(dp3018
VC
p3019
I8128
ssVmitsuhiko/flask-stupid-ideas
p3020
(dp3021
VPython
p3022
I3468
ssVpaulirish/39ridiculousboxshadows
p3023
(dp3024
VJavaScript
p3025
I4545
ssVtekkub/erroff
p3026
(dp3027
VLua
p3028
I375
ssVryanb/abingo
p3029
(dp3030
VRuby
p3031
I25510
ssVmojombo/god
p3032
(dp3033
VC
p3034
I8740
sVShell
p3035
I788
sVRuby
p3036
I262042
sVJavaScript
p3037
I6329
ssVsubstack/brfs
p3038
(dp3039
VJavaScript
p3040
I5992
ssVmojombo/jekyll
p3041
(dp3042
VShell
p3043
I25
sVRuby
p3044
I171883
ssVremy/introducinghtml5
p3045
(dp3046
VJavaScript
p3047
I5903
ssVchriscoyier/Style-Injection-Demo
p3048
(dp3049
VJavaScript
p3050
I154
sVRuby
p3051
I758
ssVkennethreitz/convore.json
p3052
(dp3053
sVfat/billy
p3054
(dp3055
VJavaScript
p3056
I1770
ssVaddyosmani/aura
p3057
(dp3058
sVremy/jquery-mobile
p3059
(dp3060
VPHP
p3061
I12626
sVJavaScript
p3062
I384888
ssVtenderlove/csspool
p3063
(dp3064
VRuby
p3065
I81650
ssVhakimel/Fokus
p3066
(dp3067
VJavaScript
p3068
I8926
ssVwycats/asdf
p3069
(dp3070
VRuby
p3071
I1083
ssVfat/gh-reviewlog
p3072
(dp3073
VJavaScript
p3074
I17703
ssVtechnoweenie/call-for-proposals
p3075
(dp3076
sVdefunkt/choice
p3077
(dp3078
VRuby
p3079
I54695
ssVvisionmedia/configurable.js
p3080
(dp3081
VJavaScript
p3082
I3358
ssVschacon/django-schedule
p3083
(dp3084
VPython
p3085
I80773
ssVschacon/asgit
p3086
(dp3087
VActionScript
p3088
I288308
ssVaddyosmani/api.jquery.com
p3089
(dp3090
VJavaScript
p3091
I5196
ssVjosevalim/mongomapper
p3092
(dp3093
VRuby
p3094
I524041
ssVtekkub/gitmarks
p3095
(dp3096
VJavaScript
p3097
I2035
ssVtekkub/dotjs
p3098
(dp3099
VJavaScript
p3100
I6066
ssVmojombo/endo
p3101
(dp3102
sVchriscoyier/CodeMirror
p3103
(dp3104
VJavaScript
p3105
I1167333
ssVvisionmedia/buffer.c
p3106
(dp3107
VC
p3108
I10952
ssVisaacs/config-chain
p3109
(dp3110
VJavaScript
p3111
I13175
ssVkennethreitz/flask-sslify
p3112
(dp3113
VPython
p3114
I2762
ssVLeaVerou/CSS3-Patterns-Gallery
p3115
(dp3116
VJavaScript
p3117
I2217
ssVmattt/dubai
p3118
(dp3119
VRuby
p3120
I9557
sVPerl
p3121
I575
ssVdhh/country_and_region_select
p3122
(dp3123
VRuby
p3124
I14516
ssVigrigorik/hydra5
p3125
(dp3126
VRuby
p3127
I3964
ssVjeresig/express-cdn
p3128
(dp3129
VJavaScript
p3130
I21922
ssVfabpot/doctrine2
p3131
(dp3132
VPHP
p3133
I2387925
ssVremy/flickbin
p3134
(dp3135
VJavaScript
p3136
I3545
ssVmrdoob/webgl-blendfunctions
p3137
(dp3138
sVholman/holman
p3139
(dp3140
VRuby
p3141
I5511
ssVsubstack/browserid
p3142
(dp3143
VShell
p3144
I5469
sVJavaScript
p3145
I1874000
ssVpaulirish/css_browser_selector
p3146
(dp3147
VJavaScript
p3148
I56931
ssVjashkenas/journo
p3149
(dp3150
VCoffeeScript
p3151
I15376
sVJavaScript
p3152
I179
ssVtekkub/failpanda
p3153
(dp3154
sVholman/fuck-yeah
p3155
(dp3156
VJavaScript
p3157
I2745
ssVmojombo/conceptual_algorithms
p3158
(dp3159
sVchriscoyier/Boxtown-Cars
p3160
(dp3161
VJavaScript
p3162
I23888
sVRuby
p3163
I753
sVPHP
p3164
I5148
ssVigrigorik/heroku-buildpack-dart
p3165
(dp3166
VShell
p3167
I2977
sVDart
p3168
I630
ssVmojombo/learn-github
p3169
(dp3170
VShell
p3171
I198
sVJavaScript
p3172
I148
sVRuby
p3173
I16304
ssVremy/jsconfus2013
p3174
(dp3175
VASP
p3176
I55169
sVJavaScript
p3177
I19188
ssVicodeforlove/lolcommits
p3178
(dp3179
sVaddyosmani/bootstrap
p3180
(dp3181
VJavaScript
p3182
I259114
ssVmitsuhiko/brink-aggregator
p3183
(dp3184
VPython
p3185
I31469
sVJavaScript
p3186
I762
ssVkennethreitz/blackbox
p3187
(dp3188
VPython
p3189
I22397
ssVdhh/turn
p3190
(dp3191
VRuby
p3192
I72113
ssVjeresig/god-game
p3193
(dp3194
VJavaScript
p3195
I425355
ssVwycats/goliath
p3196
(dp3197
sVsubstack/airport-cluster-example
p3198
(dp3199
sVaddyosmani/app.todos
p3200
(dp3201
sVtekkub/fugit
p3202
(dp3203
VRuby
p3204
I184275
ssVtpope/heroku-fucking-console
p3205
(dp3206
VRuby
p3207
I502
ssVisaacs/bloom
p3208
(dp3209
VJavaScript
p3210
I59
sVC++
p3211
I20871
ssVmattt/CupertinoYankee
p3212
(dp3213
VC
p3214
I2080
sVRuby
p3215
I509
sVObjective-C
p3216
I13167
ssVmattt/cockney
p3217
(dp3218
VRuby
p3219
I2383
ssVtekkub/github-gem-builder
p3220
(dp3221
VRuby
p3222
I15104
ssVraspberrypi/userland
p3223
(dp3224
VC
p3225
I4989975
sVShell
p3226
I4114
sVAssembly
p3227
I6810
sVJavaScript
p3228
I90
sVC++
p3229
I185792
sVPerl
p3230
I572
sVObjective-C
p3231
I30532
sVRacket
p3232
I79922
sVRuby
p3233
I799
ssVremy/j4d-book
p3234
(dp3235
sVtekkub/EquipSetUpdater
p3236
(dp3237
VLua
p3238
I7757
ssVremy/cdnjs
p3239
(dp3240
VJavaScript
p3241
I4385564
ssVmojombo/bert.erl
p3242
(dp3243
VErlang
p3244
I2243
ssVigrigorik/gitter
p3245
(dp3246
sVtechnoweenie/cronwtf
p3247
(dp3248
VJavaScript
p3249
I75331
ssVchriscoyier/Interlink-Workshop
p3250
(dp3251
VPHP
p3252
I5134
sVRuby
p3253
I761
sVJavaScript
p3254
I2718
ssVaddyosmani/angularjs.org
p3255
(dp3256
sVisaacs/chmodr
p3257
(dp3258
VJavaScript
p3259
I3740
ssVtorvalds/linux
p3260
(dp3261
VXML
p3262
I445
sVC
p3263
I423203690
sVShell
p3264
I119101
sVAssembly
p3265
I9413308
sVPython
p3266
I55967
sVJavaScript
p3267
I1797
sVVimL
p3268
I1355
sVC++
p3269
I3058291
sVPerl
p3270
I483653
sVSuperCollider
p3271
I12158
sVObjective-C
p3272
I2171334
sVASP
p3273
I4528
sVAwk
p3274
I18750
sVScilab
p3275
I21433
sVRuby
p3276
I3642
sVDOT
p3277
I4873
ssVholman/gifme
p3278
(dp3279
VRuby
p3280
I8433
ssVandroid/platform_external_aes
p3281
(dp3282
VC
p3283
I79560
sVObjective-C
p3284
I5707
sVC++
p3285
I2880
ssVisaacs/couch-login
p3286
(dp3287
VJavaScript
p3288
I30318
ssVtekkub/github-dashboard-twitter
p3289
(dp3290
VJavaScript
p3291
I839
ssVmrdoob/timer.js
p3292
(dp3293
VJavaScript
p3294
I1085
ssVtpope/test-align-centaur
p3295
(dp3296
VRuby
p3297
I2254
ssVchriscoyier/KiwiSite
p3298
(dp3299
VJavaScript
p3300
I12303
sVRuby
p3301
I789
ssVmbostock/dependency-tree
p3302
(dp3303
VJavaScript
p3304
I121229
ssVLeaVerou/chainvas
p3305
(dp3306
VJavaScript
p3307
I8405
ssVjosevalim/easy_http_cache
p3308
(dp3309
VRuby
p3310
I26
ssVtechnoweenie/app_bootstrap
p3311
(dp3312
sVmattt/kiki
p3313
(dp3314
VRuby
p3315
I3970
ssVtechnoweenie/celluloid
p3316
(dp3317
VRuby
p3318
I57355
ssVdouglascrockford/JSCheck
p3319
(dp3320
VJavaScript
p3321
I26867
ssVpaulirish/font-face-detect
p3322
(dp3323
VJavaScript
p3324
I3905
ssVwycats/activerecord-import
p3325
(dp3326
VRuby
p3327
I76525
ssVkennethreitz/crate.web
p3328
(dp3329
sVmaccman/acts_as_recommendable
p3330
(dp3331
VRuby
p3332
I26540
ssVfat/loadrunner
p3333
(dp3334
VJavaScript
p3335
I27278
ssVschacon/campyre
p3336
(dp3337
VJava
p3338
I71003
ssVschacon/dotgit
p3339
(dp3340
VC#
p3341
I86635
ssVschacon/arel
p3342
(dp3343
sVsubstack/airport
p3344
(dp3345
VJavaScript
p3346
I15215
ssVkennethreitz/buildpack-null
p3347
(dp3348
VShell
p3349
I93
ssVvisionmedia/batch
p3350
(dp3351
VJavaScript
p3352
I6206
ssVvisionmedia/ci-badge
p3353
(dp3354
VJavaScript
p3355
I3107
ssVmitsuhiko/classy
p3356
(dp3357
VPython
p3358
I11738
sVShell
p3359
I4106
sVJavaScript
p3360
I11466
ssVtpope/gem-ctags
p3361
(dp3362
VRuby
p3363
I2197
ssVjosevalim/nested_scenarios
p3364
(dp3365
VRuby
p3366
I12834
ssVmaccman/bowline-desktop
p3367
(dp3368
VC
p3369
I4139
sVRuby
p3370
I2540
sVObjective-C
p3371
I13974
sVC++
p3372
I38034
ssVwycats/benchwarmer
p3373
(dp3374
VRuby
p3375
I3320
ssVkennethreitz/ghsync
p3376
(dp3377
VPython
p3378
I6075
ssVtenderlove/earworm
p3379
(dp3380
VRuby
p3381
I6778
ssVtenderlove/bcrypt-ruby
p3382
(dp3383
VRuby
p3384
I17485
sVC
p3385
I39607
sVJava
p3386
I33737
ssVdefunkt/dotenv
p3387
(dp3388
sVmattt/CargoBay
p3389
(dp3390
VObjective-C
p3391
I159892
sVRuby
p3392
I538
ssVLeaVerou/CSS.coloratum
p3393
(dp3394
VJavaScript
p3395
I4071
ssVsubstack/browser-pack
p3396
(dp3397
VJavaScript
p3398
I13368
ssVwycats/blue-ridge
p3399
(dp3400
VRuby
p3401
I4510376
sVC
p3402
I17899
sVJavaScript
p3403
I530060
sVJava
p3404
I498
ssVcyanogen/android_external_iozone
p3405
(dp3406
VC
p3407
I799541
sVShell
p3408
I3474
sVPerl
p3409
I12947
ssVhakimel/Sphere
p3410
(dp3411
VJavaScript
p3412
I2397
ssVjosevalim/otp
p3413
(dp3414
VC
p3415
I10871445
sVShell
p3416
I249250
sVJava
p3417
I553518
sVD
p3418
I230260
sVPython
p3419
I133528
sVEmacs Lisp
p3420
I366734
sVJavaScript
p3421
I33549
sVObjective-C
p3422
I382494
sVC++
p3423
I1587829
sVPerl
p3424
I175006
sVTcl
p3425
I9372
sVRacket
p3426
I954
sVAssembly
p3427
I94184
sVErlang
p3428
I68839372
ssVtechnoweenie/astrotrain
p3429
(dp3430
VRuby
p3431
I39283
ssVmrdoob/three.js
p3432
(dp3433
VPython
p3434
I357609
sVShell
p3435
I2918
sVC
p3436
I38592
sVJavaScript
p3437
I11601783
sVC++
p3438
I46753
ssVmitsuhiko/celery
p3439
(dp3440
VPython
p3441
I624101
sVShell
p3442
I5742
ss.