ccollections
defaultdict
p0
(tRp1
Vnecolas/suit-utils-dimension
p2
(dp3
sVjschairb/jschairb.github.com
p4
(dp5
VJavaScript
p6
F0.0011870907718129252
ssVvanpelt/merb-core
p7
(dp8
VRuby
p9
F0.06533652323080653
ssVMarak/natman
p10
(dp11
VJavaScript
p12
F5.5255590810336545e-05
ssVmerb/merb_activerecord
p13
(dp14
VRuby
p15
F0.003557450702382938
ssVezmobius/nanite
p16
(dp17
VRuby
p18
F0.02691429496053649
ssVnorbauer/sprocket_express
p19
(dp20
VRuby
p21
F0.007712666203350384
ssVnecolas/suit-flex-embed
p22
(dp23
sVezmobius/redis-rb
p24
(dp25
VRuby
p26
F0.02318387560143806
ssVvim-scripts/256-jungle
p27
(dp28
VVimL
p29
F0.001844317197634788
ssVjschairb/glowstone
p30
(dp31
sVasseym/formhub
p32
(dp33
sVDmitryBaranovskiy/brackets
p34
(dp35
VJavaScript
p36
F0.05111509894854822
ssVrmurphey/dojo-transformers
p37
(dp38
VShell
p39
F0.00015039695195510704
ssVginatrapani/todo.txt-aim-bot
p40
(dp41
sVsstephenson/eve
p42
(dp43
VCoffeeScript
p44
F0.03644913837549019
ssVguille/emitter
p45
(dp46
VJavaScript
p47
F4.241438263097328e-05
ssVscharfie/janus
p48
(dp49
VVimL
p50
F0.007649866349311185
ssVjazzyfox/trinketmenu_buttonfacade
p51
(dp52
VLua
p53
F0.01562772354889315
ssVcommonsguy/cwac-bus
p54
(dp55
VJava
p56
F0.0003871052292796772
ssVNZKoz/cassandra_object
p57
(dp58
VRuby
p59
F0.009265540365862808
ssVdesandro/3dtransforms
p60
(dp61
VJavaScript
p62
F0.00013423115420448033
ssVguille/api.js
p63
(dp64
sVvim-scripts/accelerated-jk
p65
(dp66
VVimL
p67
F0.00477902463035771
ssVhassox/dotfiles
p68
(dp69
VVimL
p70
F0.6396727583134467
sVVisual Basic
p71
F1.0
ssVmacournoyer/orange
p72
(dp73
VRuby
p74
F0.000915059990365832
ssVup_the_irons/credit_card_tools
p75
(dp76
VRuby
p77
F0.0003640401262485207
ssVtopfunky/cache.js
p78
(dp79
VJavaScript
p80
F0.0006135537800464007
ssVJeffreyWay/Easy-WordPress-Custom-Post-Types
p81
(dp82
VPHP
p83
F0.0010037268004349483
ssVJakeWharton/adjacent-fragment-pager-sample
p84
(dp85
VJava
p86
F0.00018834024620250004
ssVlancecarlson/eugene
p87
(dp88
sVpsi/my-boxen
p89
(dp90
VPuppet
p91
F0.4416744186046512
ssVantirez/otree
p92
(dp93
VC
p94
F0.00790078770089177
ssVkafka399/Rproject
p95
(dp96
VR
p97
F1.0
ssVvim-scripts/accurev
p98
(dp99
VVimL
p100
F0.16514505305527347
ssVrobbevan/jquery-select-autocomplete
p101
(dp102
VJavaScript
p103
F0.0017788699583219604
ssVcommonsguy/cwac-mmcursor
p104
(dp105
VJava
p106
F0.00029986838356015684
ssVibdknox/CodeMirror
p107
(dp108
sVcanadaduane/node-serialport
p109
(dp110
VC++
p111
F0.00047856191036669025
ssVscharfie/dotfiles
p112
(dp113
VShell
p114
F0.009164614263817587
ssVayende/courses-trondheim-sep-2012
p115
(dp116
VASP
p117
F0.006395762000129207
ssVmislav/developer.dnsimple.com
p118
(dp119
VJavaScript
p120
F0.00048006494153069417
ssVjwhitmire/donors_choose_gem
p121
(dp122
sVagentzh/lua-php-utils
p123
(dp124
VLua
p125
F0.003867439428272616
sVPerl
p126
F0.0033146353901070884
ssVrtomayko/kidgloves
p127
(dp128
VRuby
p129
F0.0004059493778398013
ssVNZKoz/UnwindSegues
p130
(dp131
VObjective-C
p132
F0.00622217125060311
ssVguille/express-trace
p133
(dp134
VJavaScript
p135
F4.08614923395154e-05
ssVcommonsguy/cwac-strictmodeex
p136
(dp137
VPerl
p138
F0.020251548553435347
ssVlancecarlson/altered_beast
p139
(dp140
sVmjankowski/rails
p141
(dp142
sVnathanmarz/kestrel
p143
(dp144
VScala
p145
F1.0
ssVded/matador
p146
(dp147
sVfelixge/berlinjs.org
p148
(dp149
sVjoehewitt/api.js
p150
(dp151
VJavaScript
p152
F6.185110836691317e-05
ssVmacournoyer/faye
p153
(dp154
VRuby
p155
F0.0204755212153187
sVJavaScript
p156
F0.002770416006510535
ssVmadrobby/jsnes
p157
(dp158
VJavaScript
p159
F0.00235684377949265
ssValthjs/althjs.github.com
p160
(dp161
VJavaScript
p162
F0.0015490933893716264
ssVhassox/i18n
p163
(dp164
sVJeffreyWay/My-Vim-Repo
p165
(dp166
VVimL
p167
F0.8934595278298743
ssVjoehewitt/datetime
p168
(dp169
VJavaScript
p170
F0.00013578404449593822
ssVpkrumins/bash-vi-editing-mode-cheat-sheet
p171
(dp172
sVrtomayko/rocco
p173
(dp174
VRuby
p175
F0.006368222371976847
sVPerl
p176
F0.004846250129268997
ssVjacobian/chishop
p177
(dp178
VPython
p179
F0.012331763268216524
ssVdesandro/css3please
p180
(dp181
VActionScript
p182
F0.0060935462913303765
ssVrmurphey/dojo-scaffold
p183
(dp184
VShell
p185
F4.0888060224201676e-05
sVJavaScript
p186
F2.4743856292460776e-05
ssVdanielharan/timestamped_boolean
p187
(dp188
VRuby
p189
F0.0001670170470220563
ssVjosh/ace
p190
(dp191
VHaxe
p192
F1.0
sVXQuery
p193
F1.0
sVGroovy
p194
F1.0
sVColdFusion
p195
F1.0
ssVezmobius/ez-scheme
p196
(dp197
VScheme
p198
F0.022544423752603043
ssVnathanmarz/cascading.elasticsearch
p199
(dp200
sVmadrobby/js1k-finals
p201
(dp202
sVNZKoz/AFNetworking
p203
(dp204
sVautomatthew/harp
p205
(dp206
VRuby
p207
F0.0011159268175193072
ssVnecolas/suit-grid-layouts
p208
(dp209
sVnecolas/grunt-usemin
p210
(dp211
VJavaScript
p212
F0.000507129600896103
ssValexvollmer/alexvollmer.com
p213
(dp214
VRuby
p215
F0.0049010265906761835
ssVerica/funpaths
p216
(dp217
sVjwhitmire/rr
p218
(dp219
sVnorbauer/dns-tools
p220
(dp221
VRuby
p222
F0.0007651538212124049
ssVsebastianbergmann/php-object-freezer
p223
(dp224
VPHP
p225
F0.010925398781318362
ssVglassesfactory/deploytest
p226
(dp227
VPython
p228
F0.0005050294247985986
ssVnecolas/idiomatic-js
p229
(dp230
sVasseym/ureport-project
p231
(dp232
VPython
p233
F0.0014960751372180361
sVJavaScript
p234
F0.0014163639312731711
ssVrobbevan/aquamacs-emacs-starter-kit
p235
(dp236
VEmacs Lisp
p237
F0.0001630952769137543
ssVjacobian/django
p238
(dp239
VPython
p240
F0.9175249485548383
ssVJakeWharton/AndroidDesignKeynoteTheme
p241
(dp242
sVhassox/httpi
p243
(dp244
sVdrnic/bosh-getting-started
p245
(dp246
VShell
p247
F0.0018470736770845888
ssVsoffes/findi
p248
(dp249
VRuby
p250
F0.00010737695821908
ssVnecolas/css3-facebook-buttons
p251
(dp252
sVsstephenson/hike
p253
(dp254
VRuby
p255
F0.0031805154217986386
ssVmiyagawa/App-BundleDeps
p256
(dp257
VPerl
p258
F0.013716777867721264
ssVfloydprice/testing
p259
(dp260
sVleegee/Mootools-Knob
p261
(dp262
VJavaScript
p263
F0.0007085957853021664
ssVhornbeck/fuzed
p264
(dp265
VErlang
p266
F1.0
ssVmislav/async-upload
p267
(dp268
VPHP
p269
F0.0027485738868659798
ssVphilsturgeon/chef-logstash
p270
(dp271
VPython
p272
F0.0007565878551504957
sVRuby
p273
F0.0038816894388066033
ssVrobbevan/annotate_models
p274
(dp275
VRuby
p276
F0.0027155459144989273
ssVdrnic/bosh-solo
p277
(dp278
VShell
p279
F0.005244338159191085
ssVguille/jackpot
p280
(dp281
sVvim-scripts/abap.vim--Piedallu-van-Wyk
p282
(dp283
VVimL
p284
F0.0051591035123027176
ssVpsi/dotfiles
p285
(dp286
VShell
p287
F0.001672854985694512
ssVmadrobby/jslogocrazyness
p288
(dp289
sVerica/uicolor-utilities
p290
(dp291
VObjective-C
p292
F0.09783579184285847
ssVakitaonrails/active_merchant
p293
(dp294
VRuby
p295
F0.1394112494102637
ssVded/Kizzy
p296
(dp297
VJavaScript
p298
F0.0002315854301689553
ssVdanielharan/bort
p299
(dp300
VRuby
p301
F0.011847795021602485
ssVrobbevan/ruby-spreadsheet
p302
(dp303
VRuby
p304
F0.03190372775353392
ssVnecolas/newsriver-ui
p305
(dp306
VJavaScript
p307
F0.0008324771816850071
ssVhenrik/henrik.nyh.se
p308
(dp309
VRuby
p310
F0.0009070005189059702
ssVsebastianbergmann/php-project-wizard
p311
(dp312
VPHP
p313
F0.003937638364791709
ssVmacournoyer/iolounge
p314
(dp315
sVelbowdonkey/screw-unit
p316
(dp317
VJavaScript
p318
F0.0017477012317576985
ssVfelixge/commander.js
p319
(dp320
VShell
p321
F9.919798958741103e-05
sVJavaScript
p322
F0.0002550664965540767
ssVnathanmarz/elephantdb-cascading
p323
(dp324
VClojure
p325
F0.00816621041520914
ssVlifo/journey_demo
p326
(dp327
VRuby
p328
F0.001786226859242571
ssVantirez/recidiv
p329
(dp330
VTcl
p331
F0.037040166275198974
ssVvanpelt/evercookie
p332
(dp333
VC#
p334
F0.0009596713039888373
sVPHP
p335
F0.0012948290787980073
ssVrmurphey/2012.jsconf.eu
p336
(dp337
sVhede/first_app
p338
(dp339
VRuby
p340
F0.0014445052693444365
ssVkafka399/hadoop-snappy
p341
(dp342
sVmacournoyer/meshu
p343
(dp344
VRuby
p345
F0.0022649594639583535
ssVsoffes/apple_push_notification
p346
(dp347
VRuby
p348
F0.0004710451088617609
ssVDmitryBaranovskiy/optimus
p349
(dp350
sVxhr/certified
p351
(dp352
sVantirez/redis-doc
p353
(dp354
VRuby
p355
F0.0008897656491687276
ssVmoodlehq/block-spam_deletion
p356
(dp357
VPHP
p358
F0.004653488822402187
ssVkoush/android_vendor_google_passion
p359
(dp360
VC
p361
F0.008146611121615684
ssVleah/getwelltermie
p362
(dp363
sVmadrobby/EventSource
p364
(dp365
sVcommonsguy/cwac-adapter
p366
(dp367
VPerl
p368
F0.020251548553435347
ssVNZKoz/delayed_job
p369
(dp370
VRuby
p371
F0.008742666655920705
ssVup_the_irons/ram
p372
(dp373
VRuby
p374
F0.03570321058344994
ssVDoogiemuc/gwt-comp-tagging
p375
(dp376
VJava
p377
F0.0013420442214028786
ssVJeffreyWay/Laravel-Guard
p378
(dp379
VPHP
p380
F0.0022603823086929974
ssVjdhuntington/showdown
p381
(dp382
VJavaScript
p383
F0.0009914777892746644
ssVdesandro/FitText.js
p384
(dp385
VJavaScript
p386
F1.2824143450885706e-05
ssVmadrobby/exploder
p387
(dp388
sVfloydprice/feck
p389
(dp390
sVcloudwu/mread
p391
(dp392
VC
p393
F0.0036993226982588844
ssVAlexanderFlatscher/FileServer
p394
(dp395
VC
p396
F0.00018744240819708772
sVC++
p397
F0.00017255245557674007
ssVtteofili/btl
p398
(dp399
VJava
p400
F0.00020521839161864394
ssVnathanmarz/elephantdb
p401
(dp402
VJava
p403
F0.035008616127762925
sVClojure
p404
F0.10509709664811596
ssVgarybernhardt/expecter
p405
(dp406
VPython
p407
F0.002572736218822533
ssVdrnic/bosh
p408
(dp409
VPython
p410
F0.09841863575453073
sVRuby
p411
F0.43382287389592994
ssVguille/latency-io
p412
(dp413
VJavaScript
p414
F0.00010350611058063507
ssVibdknox/gambit
p415
(dp416
VClojure
p417
F0.00782899874134727
ssVzybl880506/email
p418
(dp419
VC
p420
F0.004422525690515365
ssVakitaonrails/cramp_chat_demo
p421
(dp422
VPerl
p423
F0.0035517771366827973
ssVjwhitmire/disco-tmbundle
p424
(dp425
sVzybl880506/rsa
p426
(dp427
VShell
p428
F0.7516750771628806
ssVglassesfactory/GFTweet
p429
(dp430
VActionScript
p431
F0.08257136752695768
ssVsstephenson/gosh
p432
(dp433
VShell
p434
F1.0666450493270003e-05
sVRuby
p435
F5.480440592705931e-05
ssVjacobian/django-pjax
p436
(dp437
VPython
p438
F0.0009671949131195258
ssVmislav/fakefs
p439
(dp440
VRuby
p441
F0.00766641723635764
ssVnathanmarz/kafka-deploy
p442
(dp443
VClojure
p444
F0.01882616210049558
ssVMarak/ospriet
p445
(dp446
VJavaScript
p447
F0.0006820004059698905
ssVxhr/tmux-powerline
p448
(dp449
sVhenrik/CamelCaseMotion
p450
(dp451
VVimL
p452
F0.01310493292542354
ssVmoodlehq/mymoodle
p453
(dp454
VObjective-C
p455
F0.1685953501040911
ssVlancecarlson/anvil
p456
(dp457
VRuby
p458
F0.00592172765310051
ssVxhr/bxslider
p459
(dp460
sVmmower/mulchworks
p461
(dp462
VShell
p463
F1.1733095542597003e-05
ssVrmurphey/complexityReport.js
p464
(dp465
sVdrnic/bosh-bootstrap
p466
(dp467
VRuby
p468
F0.017699591260805114
ssVentryway/pebbles_audio_files
p469
(dp470
VRuby
p471
F0.0004417830278690324
ssVginatrapani/isosceles
p472
(dp473
VPHP
p474
F0.1663551974698834
ssVakitaonrails/cookbooks
p475
(dp476
VRuby
p477
F0.04590240971997056
sVPerl
p478
F0.06012345634987145
ssVrobbevan/electro
p479
(dp480
VRuby
p481
F0.003527940637652983
ssVup_the_irons/Ruby-Radius
p482
(dp483
VRuby
p484
F0.005341941675464923
sVPerl
p485
F0.0035321639095224
ssVmoodlehq/moodle-filter_geshi
p486
(dp487
VPHP
p488
F0.05676425300889537
ssVginatrapani/todo.txt-touch-ios
p489
(dp490
VObjective-C
p491
F0.3948800701019049
ssVmdo/preboot
p492
(dp493
sVpkrumins/browserify-website
p494
(dp495
VJavaScript
p496
F0.00010936784481267663
ssVguille/jsconf-todo-demo
p497
(dp498
VJavaScript
p499
F0.00018141512844493138
ssVcowboy/embedly-jquery
p500
(dp501
sVibdknox/clojure
p502
(dp503
sVasseym/rapidsms-uganda-common
p504
(dp505
VPython
p506
F0.006540069174068196
ssVkafka399/Levenshtein-distance
p507
(dp508
VR
p509
F0.0092080529599259
ssVmoodlehq/moodle-local_codechecker
p510
(dp511
VPHP
p512
F0.16988214351741723
ssVginatrapani/narrowthegapp
p513
(dp514
VJavaScript
p515
F0.00040636237923611615
sVPHP
p516
F0.0006285965820905737
ssVrbazinet/iOS-ClearStyle
p517
(dp518
sVantirez/lamernews
p519
(dp520
VRuby
p521
F0.011661559234945372
ssVcowboy/enterprise-js
p522
(dp523
sVhenrik/go_to_param
p524
(dp525
VRuby
p526
F0.0004926196940004675
ssVvim-scripts/abolish.vim
p527
(dp528
VVimL
p529
F0.014622133052531886
ssVjsierles/dropbox-api
p530
(dp531
VRuby
p532
F0.004128557249215597
ssVJakeWharton/NotificationCompat2
p533
(dp534
sVerica/datatube
p535
(dp536
VObjective-C
p537
F0.0010066397004899698
ssVantirez/redis-rb-cluster
p538
(dp539
VRuby
p540
F0.0017497732498702738
ssVrtomayko/pkgsrc
p541
(dp542
sVnextgen666/documentation
p543
(dp544
sVkoush/android_packages_apps_Superuser
p545
(dp546
VC
p547
F0.0018603208036638349
sVJava
p548
F0.0002577723032281273
sVC++
p549
F0.00026341364861329203
ssVcloudwu/atomdict
p550
(dp551
VLua
p552
F0.006552858636918251
ssVkamal/friendly_id
p553
(dp554
VRuby
p555
F0.010836889316798605
ssVnathanmarz/kryo
p556
(dp557
sVelbowdonkey/gcode_to_canvas
p558
(dp559
VJavaScript
p560
F0.000668817903220976
ssVrobbevan/emacs-starter-kit
p561
(dp562
sVlancecarlson/dm-mongo-adapter
p563
(dp564
VRuby
p565
F0.006655759515290988
ssVmislav/albino
p566
(dp567
VRuby
p568
F0.0020369384175785753
ssVjazzyfox/vimfiles
p569
(dp570
VVimL
p571
F0.014869807405930479
ssVscharfie/article-slate-plugin
p572
(dp573
VRuby
p574
F0.0007764370812562112
ssVmislav/git-deploy
p575
(dp576
VShell
p577
F0.0005542998773002645
sVRuby
p578
F0.0014177230257239732
ssVkoush/android_device_htc_ace
p579
(dp580
VRust
p581
F0.15512936027802807
ssVnathanmarz/leiningen
p582
(dp583
VClojure
p584
F0.1261594190533534
ssVjdhuntington/fieldmarshal
p585
(dp586
VRuby
p587
F0.0003455653378251454
ssVglassesfactory/gae-spreadsheet-example
p588
(dp589
VPython
p590
F0.00034662411624069553
ssVmislav/bundler
p591
(dp592
VRuby
p593
F0.003505250125696757
ssVvanpelt/lyndon
p594
(dp595
sVautomatthew/djinn
p596
(dp597
VCoffeeScript
p598
F0.0953606636774103
ssVnzakas/yuitest
p599
(dp600
VJava
p601
F0.012069098465445639
ssVrtomayko/distributed-management-talk
p602
(dp603
sVJeffreyWay/Laravel-Testing-Decoded
p604
(dp605
sVnecolas/suit
p606
(dp607
sVvanpelt/CardMaven
p608
(dp609
VObjective-C
p610
F0.02394745224285328
ssVsstephenson/mdtoc
p611
(dp612
VRuby
p613
F0.0002676984443360204
ssVnathanmarz/clojars-web
p614
(dp615
VClojure
p616
F0.02918140444193093
ssVautomatthew/autocode
p617
(dp618
VRuby
p619
F0.0012851757181764022
ssVrobbevan/scout-plugins
p620
(dp621
VRuby
p622
F0.00011010477932857165
ssVrobbyrussell/brightcove
p623
(dp624
sVjnunemaker/aaws
p625
(dp626
VRuby
p627
F0.005759546288954371
ssVcanadaduane/getdoc
p628
(dp629
VRuby
p630
F0.00024649583480315364
ssVnextgen666/bleachnxg
p631
(dp632
sVkafka399/coursera-loans
p633
(dp634
sVagentzh/advent.perlchina.org
p635
(dp636
VPerl
p637
F0.24141208103472253
ssVgarybernhardt/webkit
p638
(dp639
VC
p640
F0.8151206166478049
ssVcreationix/candor.io
p641
(dp642
VC++
p643
F0.0016718853924338312
ssVrtomayko/rinku
p644
(dp645
VC
p646
F0.0037880421583066748
sVRuby
p647
F0.0017593206237534941
ssValexvollmer/alexvollmer.github.com
p648
(dp649
sVdanielharan/addressbookimporter
p650
(dp651
VRuby
p652
F0.0006469895704239716
ssVMarak/node_mailer
p653
(dp654
VJavaScript
p655
F7.375375648001067e-05
ssVpsi/peeler
p656
(dp657
VRuby
p658
F7.154330818984891e-05
ssVcommonsguy/cwac-sacklist
p659
(dp660
VPerl
p661
F0.020251548553435347
ssVsebastianbergmann/php-file-iterator
p662
(dp663
VPHP
p664
F0.0014477537849248807
ssVmmower/blueprint-css
p665
(dp666
sVnextgen666/jQuery-Mobile-Bootstrap-Theme
p667
(dp668
sVcommonsguy/cwac-custmenu
p669
(dp670
VJava
p671
F0.0005222627702199355
ssVnathanmarz/storm
p672
(dp673
VFancy
p674
F1.0
sVClojure
p675
F0.46628980215019167
ssVhassox/haml
p676
(dp677
VRuby
p678
F0.08588271981123478
ssVkafka399/fitparse
p679
(dp680
VR
p681
F0.16370174626093117
ssVcreationix/bench-suite
p682
(dp683
VLua
p684
F0.011433458253442566
ssVrmurphey/gaucho
p685
(dp686
sVagentzh/lua-resty-upload
p687
(dp688
VLua
p689
F0.029768389402126547
sVPerl
p690
F0.034107402031930335
ssVagentzh/lua-resty-string
p691
(dp692
VLua
p693
F0.10313534948579396
ssVagentzh/lua-resty-memcached
p694
(dp695
VLua
p696
F0.07341053686595782
sVPerl
p697
F0.1105740256683653
ssVGreenRover/jquery-ui
p698
(dp699
VJavaScript
p700
F0.006457387111915011
ssVjnunemaker/dotfiles
p701
(dp702
VShell
p703
F0.00010950889173090537
ssVatep/moment-isocalendar
p704
(dp705
sVglassesfactory/study-modan-dev
p706
(dp707
VCoffeeScript
p708
F0.02491133782242567
ssVsoffes/any
p709
(dp710
VRuby
p711
F9.54737388322074e-05
ssVatep/morris.js
p712
(dp713
sVsebastianbergmann/phpunit
p714
(dp715
VPHP
p716
F0.10663675558753158
ssVmislav/choices
p717
(dp718
VRuby
p719
F0.0004358314181755961
ssVsstephenson/37signalsMenu
p720
(dp721
VRuby
p722
F0.005413484983654773
ssVjwhitmire/ruby-tmbundle
p723
(dp724
VRuby
p725
F0.008720348119570318
ssVmadrobby/eyeballs.js
p726
(dp727
sVweierophinney/Component_ZendEscaper
p728
(dp729
VPHP
p730
F0.001054573689162216
ssVmiyagawa/Acme-YakiniQ
p731
(dp732
VPerl
p733
F0.0019631057366906427
ssVjacobian/fumblerooski
p734
(dp735
VPython
p736
F0.018464681297631985
ssVcowboy/comment.aculo.us
p737
(dp738
VJavaScript
p739
F3.5451973412129144e-05
ssVcowboy/javascript-hooker
p740
(dp741
VJavaScript
p742
F0.0002952624644829673
ssVhassox/foreman
p743
(dp744
VRuby
p745
F0.0029511304648641144
ssValexvollmer/chikken_in_a_bukket
p746
(dp747
VRuby
p748
F0.011633041105164325
ssVmerb/merb-core
p749
(dp750
VRuby
p751
F0.12525993345356412
ssVmadrobby/Evidence
p752
(dp753
VJavaScript
p754
F0.000326781017981019
ssVsoffes/houston
p755
(dp756
VRuby
p757
F0.0010256607371688566
ssVtopfunky/geddy-coffee-script-demo
p758
(dp759
VCoffeeScript
p760
F0.002655959504429203
ssVmadrobby/blink
p761
(dp762
sVasseym/RapidFTR-chef-repo
p763
(dp764
sVglassesfactory/oyakata
p765
(dp766
VPython
p767
F0.00012375414731086176
ssVMarak/npmtop
p768
(dp769
VJavaScript
p770
F2.8796729305881074e-05
ssVnzakas/tinyjs
p771
(dp772
sVroland/ShowTracker
p773
(dp774
VJava
p775
F0.0006566922342991052
ssVnathanmarz/carbonite
p776
(dp777
VClojure
p778
F0.014136075879939645
ssVmmower/homebrew
p779
(dp780
VRuby
p781
F0.3038824953859526
ssVcowboy/gaucho
p782
(dp783
VShell
p784
F0.0006321649659011355
sVRuby
p785
F0.002544189152075407
ssVjacobian/django-faq
p786
(dp787
sVphilsturgeon/mojo-inputs
p788
(dp789
VPHP
p790
F0.0002432509012073371
ssVcanadaduane/BraveZealot
p791
(dp792
VRuby
p793
F0.013299863794932329
ssVkoush/android_external_yaffs2
p794
(dp795
VC
p796
F0.07796144655685679
ssVasseym/rapidsms-contact
p797
(dp798
VPython
p799
F0.005233900401087192
ssVjwhitmire/rspec_validation_expectations
p800
(dp801
VRuby
p802
F0.0009977625667308737
ssVsoffes/cloudapp.uploader
p803
(dp804
VObjective-C
p805
F0.019741696342452823
sVC
p806
F0.009681572574568214
ssVtopfunky/demo-mocha-watch-bug
p807
(dp808
VJavaScript
p809
F3.156974768348444e-06
ssVmmower/lmswitch
p810
(dp811
VObjective-C
p812
F0.0018618578527976474
ssVpsi/chef-xcode-command-line-tools
p813
(dp814
VRuby
p815
F9.324188519716878e-05
ssVezmobius/nats
p816
(dp817
VRuby
p818
F0.006131025927319686
ssVded/script.js
p819
(dp820
VJavaScript
p821
F9.579285330877831e-05
ssVibdknox/colorize
p822
(dp823
VClojure
p824
F0.0018664463008691936
ssVezmobius/vmc
p825
(dp826
VRuby
p827
F0.013135202593413924
ssVglassesfactory/hagedown
p828
(dp829
VPython
p830
F0.0019877166133530047
sVCoffeeScript
p831
F0.004792444576374459
ssVibdknox/chris-granger.com
p832
(dp833
VRuby
p834
F0.001262857181826016
ssVtteofili/m2s
p835
(dp836
VJava
p837
F0.0009292246411656644
ssVMarak/machine.js
p838
(dp839
VJavaScript
p840
F0.00010987125430276463
ssVnecolas/issue-guidelines
p841
(dp842
sVdrnic/bosh-sample-release
p843
(dp844
VShell
p845
F0.0012277084517753774
ssVvanpelt/chris-snez
p846
(dp847
sVmmower/godo
p848
(dp849
VRuby
p850
F0.0015470465446875993
ssVsstephenson/hork
p851
(dp852
VRuby
p853
F0.0004495945155916675
ssVpsi/doorman
p854
(dp855
VRuby
p856
F0.0007942919103365202
ssVweierophinney/argumentrewrap
p857
(dp858
VVimL
p859
F0.0036707208414074135
ssVcowboy/javascript-packify
p860
(dp861
VJavaScript
p862
F0.0001283096934227673
ssValthjs/node
p863
(dp864
VJavaScript
p865
F7.67059545066284e-06
ssVgarybernhardt/destroy-all-software-extras
p866
(dp867
VVimL
p868
F0.009193547382128816
ssVkafka399/TwsMongo
p869
(dp870
VC
p871
F0.016766174041341956
sVC++
p872
F0.0020529305150488665
ssVatep/este
p873
(dp874
sVasseym/rapidsms-generic
p875
(dp876
VPython
p877
F0.006118967561900418
ssVdesandro/infinite-scroll
p878
(dp879
VPHP
p880
F0.001608743329898224
sVJavaScript
p881
F0.00039913546672586987
ssValthjs/idea-markdown
p882
(dp883
sVweierophinney/Component_ZendLog
p884
(dp885
VPHP
p886
F0.00960207393859616
ssVjnunemaker/flipper-cassanity
p887
(dp888
VRuby
p889
F0.0013877169935195652
ssVmmower/jscocoa
p890
(dp891
VObjective-C
p892
F0.1645965668523895
ssVfelixge/cakephp-browscap
p893
(dp894
VPHP
p895
F3.364189918813188e-05
ssVvanpelt/cube
p896
(dp897
sVcommonsguy/cw-andtutorials
p898
(dp899
VJava
p900
F0.016145898660305483
ssVrmurphey/idiomatic.js
p901
(dp902
sValthjs/bs
p903
(dp904
VPerl
p905
F0.018136886061414365
ssVnathanmarz/cascading-batch-query
p906
(dp907
VJava
p908
F0.002552736758184825
ssVasseym/bamboo
p909
(dp910
sVdrnic/Bundler.tmbundle
p911
(dp912
VRuby
p913
F0.00012795960840888057
ssVmathiasbynens/browser-diet
p914
(dp915
VCoffeeScript
p916
F0.014463261830737264
ssVsstephenson/everyjs.com
p917
(dp918
VJavaScript
p919
F1.659544844442628e-05
ssVhassox/dm-polymorphic
p920
(dp921
VRuby
p922
F0.0011963975402493104
ssVnecolas/event
p923
(dp924
VJavaScript
p925
F6.518726278427597e-06
ssVrtomayko/bert
p926
(dp927
sVantirez/Gitan
p928
(dp929
VShell
p930
F5.9732122762312025e-05
sVRuby
p931
F0.000258275062321413
ssVphilsturgeon/ee2-rest
p932
(dp933
VPHP
p934
F0.0032337699534674166
ssVkafka399/compfinance
p935
(dp936
VR
p937
F0.12226550794126462
ssVhenrik/bookmarks_bar_keyboard_shortcuts
p938
(dp939
VJavaScript
p940
F1.3600588596614646e-05
ssVagentzh/cheater
p941
(dp942
VPerl
p943
F0.411925911925912
ssVkamal/tender_multipass
p944
(dp945
VRuby
p946
F0.0005238656448910081
ssVjoehewitt/devon
p947
(dp948
VPython
p949
F0.037274186651180145
ssVjosh/bower
p950
(dp951
VJavaScript
p952
F0.0004240670350315838
ssVrichhickey/sdb
p953
(dp954
VClojure
p955
F0.014214081471965522
ssVkamal/cucumber
p956
(dp957
VRuby
p958
F0.03090782506483225
ssVdanielharan/danielharan.com
p959
(dp960
VRuby
p961
F8.344652757672153e-05
ssVdanielharan/support
p962
(dp963
VRuby
p964
F0.00031717119991270975
ssVpkrumins/immutable-hash
p965
(dp966
sVjwhitmire/lazy_developer
p967
(dp968
sVsebastianbergmann/diff
p969
(dp970
VPHP
p971
F0.0012879163597867473
ssVMarak/JSLINQ
p972
(dp973
VJavaScript
p974
F0.0003234363311994174
ssVhassox/google-spreadsheet-ruby
p975
(dp976
VRuby
p977
F0.004312437190369056
ssVantirez/nolate
p978
(dp979
VRuby
p980
F0.0006885268464094125
ssVlancecarlson/merb
p981
(dp982
VRuby
p983
F1.0
ssVvanpelt/fancy-zoom
p984
(dp985
VJavaScript
p986
F0.0003387177955510717
ssVrmurphey/dojo-sandbox
p987
(dp988
VShell
p989
F0.0002879941633182901
sVJavaScript
p990
F0.00018832634347834285
ssVjosh/dotjs
p991
(dp992
VJavaScript
p993
F1.988040867635642e-06
ssVstepbystep55/nardove
p994
(dp995
VProcessing
p996
F1.0
ssVmiyagawa/Catalyst-Engine-PSGI
p997
(dp998
VPerl
p999
F0.5214301252037101
ssVmmower/diffly
p1000
(dp1001
VObjective-C
p1002
F0.04443326453658062
ssVmdo/inca
p1003
(dp1004
VJavaScript
p1005
F6.970941583082915e-06
ssVjdhuntington/pindah
p1006
(dp1007
VRuby
p1008
F0.0009107202749643679
ssVmathiasbynens/custom.keylayout
p1009
(dp1010
sVNZKoz/rails_xss
p1011
(dp1012
VRuby
p1013
F0.00039479010966460824
ssVcanadaduane/MakerSlider
p1014
(dp1015
sVdesandro/lazyweb-requests
p1016
(dp1017
sVmathiasbynens/istanbul
p1018
(dp1019
VJavaScript
p1020
F0.0027944431442069382
ssVnathanmarz/jzmq
p1021
(dp1022
VJava
p1023
F0.0020739931276163195
sVC++
p1024
F0.0015739248983678363
ssVkafka399/Java
p1025
(dp1026
VJava
p1027
F0.0005739893217600001
ssVentryway/entryway.github.com
p1028
(dp1029
VJavaScript
p1030
F0.00039616620397077456
ssVrtomayko/ipadsforautism.info
p1031
(dp1032
sVjwhitmire/jwhitmire.github.com
p1033
(dp1034
sVcanadaduane/Printrun
p1035
(dp1036
VPython
p1037
F0.03373819315119798
ssVzybl880506/libnids-1.24
p1038
(dp1039
VC
p1040
F0.017407545221095947
ssVmislav/eventmachine
p1041
(dp1042
VRuby
p1043
F0.05329294504866371
sVC++
p1044
F0.011046216597603778
ssVnzakas/nui
p1045
(dp1046
VJavaScript
p1047
F0.0036619627458206135
ssVasseym/RapidFTR
p1048
(dp1049
sVmmower/LRResty
p1050
(dp1051
VObjective-C
p1052
F0.07771419765171161
ssVJakeWharton/abs.io
p1053
(dp1054
VJavaScript
p1055
F1.7380425954394e-05
ssVJoachimReiss/robotium
p1056
(dp1057
sVglassesfactory/GFGAETweet
p1058
(dp1059
VActionScript
p1060
F0.054623900654483935
ssVrobbyrussell/masochism
p1061
(dp1062
VRuby
p1063
F0.00020185876210238133
ssVguille/define.js
p1064
(dp1065
VJavaScript
p1066
F1.3284891119779804e-05
ssVphilsturgeon/codeigniter-cli
p1067
(dp1068
VPHP
p1069
F0.0006749886074550296
ssVmdo/github-buttons
p1070
(dp1071
sVNZKoz/sprockets
p1072
(dp1073
VRuby
p1074
F0.018978567385550857
ssVdanielharan/spree
p1075
(dp1076
sVcanadaduane/Adafruit-ST7735-Library
p1077
(dp1078
VJava
p1079
F0.001867517148692159
sVC++
p1080
F0.0008991461956595958
ssVdanielharan/pc_scraper
p1081
(dp1082
VRuby
p1083
F0.0005619311485552778
ssVjschairb/old.jschairb.github.com
p1084
(dp1085
sVmathiasbynens/GetCountries
p1086
(dp1087
VJavaScript
p1088
F0.0005061483790086434
ssVNZKoz/thinking-sphinx
p1089
(dp1090
VRuby
p1091
F0.0884681982555584
ssVdanahern/vimeo
p1092
(dp1093
VRuby
p1094
F0.0029159167741779493
ssVhornbeck/rubyzilla
p1095
(dp1096
sVcreationix/continuable
p1097
(dp1098
VJavaScript
p1099
F5.66548985454964e-05
ssVguille/jsconfus
p1100
(dp1101
sVjazzyfox/DataTables
p1102
(dp1103
VJavaScript
p1104
F0.016026024052222847
sVPHP
p1105
F0.011786723570121355
ssVrobbevan/omnifocus.el
p1106
(dp1107
VEmacs Lisp
p1108
F1.4530585319772656e-05
ssVvanpelt/merb-more
p1109
(dp1110
VRuby
p1111
F0.01867255545381334
ssVginatrapani/GitHub-Pull-Request-Email-Bot
p1112
(dp1113
VPHP
p1114
F0.0019996959939794826
ssVkoush/android_frameworks_base
p1115
(dp1116
VJava
p1117
F1.0
sVC++
p1118
F0.3967656866328099
ssVmdo/ratchet
p1119
(dp1120
VJavaScript
p1121
F0.00046800871086129865
ssVsebastianbergmann/phpcov
p1122
(dp1123
VPHP
p1124
F0.0018155872443129256
ssVmislav/fakeweb
p1125
(dp1126
VRuby
p1127
F0.0045121880907050115
ssVDmitryBaranovskiy/prism
p1128
(dp1129
VJavaScript
p1130
F0.0003993402434676006
ssVrbazinet/rails_upgrade_guide
p1131
(dp1132
sVjschairb/encoding-dot-com
p1133
(dp1134
sVkoush/android_vendor_dell_streak
p1135
(dp1136
sVmmower/passport_control
p1137
(dp1138
VRuby
p1139
F0.00021909363183962398
ssVscharfie/harvest-wordpress-theme
p1140
(dp1141
VPHP
p1142
F0.002270674579220874
ssVmmower/mailtrap
p1143
(dp1144
VRuby
p1145
F0.0015567179104394335
ssVtopfunky/bigapp
p1146
(dp1147
VRuby
p1148
F0.0014427693831838507
ssVjdhuntington/rack-client
p1149
(dp1150
VRuby
p1151
F0.008449053911044514
ssVagentzh/chunkin-nginx-module
p1152
(dp1153
VRagel in Ruby Host
p1154
F0.20036306625959235
ssVmdo/userstyles
p1155
(dp1156
sVibdknox/.scripts
p1157
(dp1158
VShell
p1159
F0.0001166198587264187
ssVsoffes/discover
p1160
(dp1161
VRuby
p1162
F0.0008101628695190169
ssVJakeWharton/apibuilder
p1163
(dp1164
VJava
p1165
F0.0007749385354204429
ssVphilsturgeon/codeigniter-unzip
p1166
(dp1167
VPHP
p1168
F0.0015917687643261303
ssVpsi/chef-percona
p1169
(dp1170
VRuby
p1171
F0.002131420221461877
ssVsebastianbergmann/phpOpenTracker
p1172
(dp1173
VPHP
p1174
F0.00021636810505243722
ssVtopfunky/geddy
p1175
(dp1176
VJavaScript
p1177
F0.003689257779020469
ssVkoush/android_device_samsung_galaxy5
p1178
(dp1179
sVhenrik/delpin
p1180
(dp1181
VRuby
p1182
F0.00029088492376669935
ssVpkrumins/browser-badge-cached
p1183
(dp1184
VJavaScript
p1185
F2.511928031896708e-05
ssVakitaonrails/enki-translator
p1186
(dp1187
sVAlexanderFlatscher/sbicktAndroid
p1188
(dp1189
VJava
p1190
F0.002670619020875618
ssVjdhuntington/ruby-function-overloading
p1191
(dp1192
VRuby
p1193
F0.00037023971967918345
ssVjdhuntington/simple_todo
p1194
(dp1195
sVjoehewitt/transformjs
p1196
(dp1197
VJavaScript
p1198
F0.00010962381573984002
ssVguille/chromekit
p1199
(dp1200
VJavaScript
p1201
F0.00021001561337332053
ssVdanahern/google_weather_api_test
p1202
(dp1203
VRuby
p1204
F0.00036329617503684107
ssVscharfie/acts_as_lookup
p1205
(dp1206
VRuby
p1207
F0.0011625477601178917
ssVtteofili/le11-nls
p1208
(dp1209
VJava
p1210
F0.004100231032025784
ssVNZKoz/rake
p1211
(dp1212
VRuby
p1213
F0.03217861772624951
ssVlifesinger/requirejs
p1214
(dp1215
VPHP
p1216
F0.3060282212521715
ssVakitaonrails/dry_scaffold
p1217
(dp1218
VRuby
p1219
F0.007474973791218772
ssVpsi/runit
p1220
(dp1221
VRuby
p1222
F0.0078121076819782165
ssVmmower/MAFuture
p1223
(dp1224
VObjective-C
p1225
F0.013348391862838956
ssVjoehewitt/markdom
p1226
(dp1227
VC
p1228
F0.01844331621862246
ssVphilsturgeon/fuelphp-casset
p1229
(dp1230
sVup_the_irons/ebay4r
p1231
(dp1232
VRuby
p1233
F0.45895714159065454
ssVnecolas/suit-button
p1234
(dp1235
sVakitaonrails/call4paperz
p1236
(dp1237
VRuby
p1238
F0.009807136847965511
ssVlifo/snoop
p1239
(dp1240
VRuby
p1241
F0.0003818949553288296
ssValexvollmer/yajl-rails
p1242
(dp1243
VRuby
p1244
F0.000448850564379988
ssVcreationix/candor.js
p1245
(dp1246
VJavaScript
p1247
F0.00042317113678651193
ssVhenrik/annotate_models
p1248
(dp1249
VRuby
p1250
F0.005708337647217096
ssVglassesfactory/techlab3-template
p1251
(dp1252
VCoffeeScript
p1253
F0.04528020372771729
ssVphilsturgeon/ee2-widgets
p1254
(dp1255
VPHP
p1256
F0.004555097788475253
ssVjschairb/build_tester
p1257
(dp1258
VRuby
p1259
F7.005540576648983e-05
ssVerica/ibrowser
p1260
(dp1261
VObjective-C
p1262
F0.03584031567360861
ssVakitaonrails/Command-T
p1263
(dp1264
VRuby
p1265
F0.011299254994857438
ssVmiyagawa/catalyst-view-json
p1266
(dp1267
VPerl
p1268
F0.03858813292775557
ssValexvollmer/janus
p1269
(dp1270
VShell
p1271
F4.942122061881768e-05
ssVfelixge/buster-docs
p1272
(dp1273
VShell
p1274
F0.00015786346730039605
sVJavaScript
p1275
F8.574172823549597e-05
ssVmacournoyer/mysql_s3_backup
p1276
(dp1277
VRuby
p1278
F0.0009283271203074503
ssVscharfie/harvest-slate-theme
p1279
(dp1280
sVnzakas/computer-science-in-javascript
p1281
(dp1282
VJavaScript
p1283
F0.0004889215356105474
ssVnzakas/parser-lib
p1284
(dp1285
VJavaScript
p1286
F0.01310517393181839
ssVweierophinney/Component_ZendForm
p1287
(dp1288
VPHP
p1289
F0.029246408400827713
ssVcloudwu/lua-snapshot
p1290
(dp1291
VLua
p1292
F0.0009151124280983092
sVC
p1293
F0.0011866432770902247
ssVphilsturgeon/codeigniter-oauth
p1294
(dp1295
VPHP
p1296
F0.003910064296735683
ssVjsierles/integrity
p1297
(dp1298
VRuby
p1299
F0.011935705256449283
ssVgarybernhardt/blocks
p1300
(dp1301
VPython
p1302
F0.0006341837530830252
ssVmiyagawa/AnyEvent-Atom-Stream
p1303
(dp1304
VPerl
p1305
F0.008209027076951605
ssVjosh/dom-prof
p1306
(dp1307
VCoffeeScript
p1308
F0.03810130142015718
ssVJakeWharton/heroku-java
p1309
(dp1310
VJava
p1311
F0.0042581906164792255
ssVphilsturgeon/gulliver
p1312
(dp1313
VRuby
p1314
F0.0001676370063651226
ssVrichhickey/clojure
p1315
(dp1316
VClojure
p1317
F0.6588717953718307
ssVfelixge/ec2-plugin
p1318
(dp1319
sVmerb/merb_parts
p1320
(dp1321
VRuby
p1322
F0.0014513248221181656
ssVlukas/mailfactory
p1323
(dp1324
VRuby
p1325
F0.002544933103287087
ssVcommonsguy/cwac-endless
p1326
(dp1327
VPerl
p1328
F0.020251548553435347
ssVxhr/iTerm-2-Color-Themes
p1329
(dp1330
sVnzakas/cssembed
p1331
(dp1332
VJava
p1333
F0.004566961394386329
ssVjnunemaker/github-twitter
p1334
(dp1335
VRuby
p1336
F0.00026683050125572764
ssVcloudwu/lua-stable
p1337
(dp1338
VLua
p1339
F0.06966838068677009
ssVdesandro/blahble
p1340
(dp1341
sVhassox/babushka-deps
p1342
(dp1343
VRuby
p1344
F0.0002502155908615513
ssVcloudwu/coroutine
p1345
(dp1346
VC
p1347
F0.0008330773697648344
ssVcreationix/dombuilder
p1348
(dp1349
VJavaScript
p1350
F2.9692627550952934e-05
ssVrmurphey/ffconf-mulberry-demo
p1351
(dp1352
VObjective-C
p1353
F0.029685791327666817
sVJavaScript
p1354
F0.016080793298271574
ssVJeffreyWay/CodeCanyon-Comp-Landing-Page
p1355
(dp1356
VJavaScript
p1357
F0.00015635557467563578
ssVnorbauer/letterpress
p1358
(dp1359
VRuby
p1360
F0.0005004311817231026
ssVhenrik/git-grep-vim
p1361
(dp1362
VVimL
p1363
F0.0009003507941156313
ssVglassesfactory/skypit
p1364
(dp1365
VPython
p1366
F0.00032108576038654494
ssVagentzh/makefile-parser-pm
p1367
(dp1368
VPerl
p1369
F0.528653141860689
ssVakitaonrails/chef-debian
p1370
(dp1371
VRuby
p1372
F2.5914300540170576e-05
ssVpkrumins/catonmat.net
p1373
(dp1374
VPython
p1375
F0.02696490366133395
ssVhornbeck/zendeskR
p1376
(dp1377
VR
p1378
F0.24929849892391098
ssVmdo/Redditate
p1379
(dp1380
VJavaScript
p1381
F0.00052826426711556
ssVpsi/mongrel_proctitle
p1382
(dp1383
VRuby
p1384
F0.0003795391098251777
ssVvim-scripts/ack.vim
p1385
(dp1386
VVimL
p1387
F0.0010296399219903672
ssVsebastianbergmann/hphpa
p1388
(dp1389
VPHP
p1390
F0.002836979882221094
ssVlancecarlson/funfx
p1391
(dp1392
sVjvantuyl/pyrowl
p1393
(dp1394
VPython
p1395
F0.0006134830593510265
ssVibdknox/ibdknox.github.com
p1396
(dp1397
VJavaScript
p1398
F0.004649472985724245
ssVJakeWharton/ActionBarSherlock-Plugin-Maps
p1399
(dp1400
VJava
p1401
F0.0004607402754579521
ssVasseym/RapidFTR---BlackBerry-Edition
p1402
(dp1403
sVjacobian/django-shorturls
p1404
(dp1405
VPython
p1406
F0.0017322205510412168
ssVrobbyrussell/hoodwinkd
p1407
(dp1408
sVrmurphey/ember.js
p1409
(dp1410
sVjnunemaker/canable
p1411
(dp1412
VRuby
p1413
F0.0013145617910377439
ssVjnunemaker/gemwhois
p1414
(dp1415
VRuby
p1416
F0.000468689263358109
ssVsuperphly/cmb-genesis-base
p1417
(dp1418
VPHP
p1419
F0.003214337532246874
ssVjsierles/git-deploy
p1420
(dp1421
sVlancecarlson/machinist
p1422
(dp1423
VRuby
p1424
F0.004617829162763506
ssVcdcarter/evently
p1425
(dp1426
sVdrnic/celerity
p1427
(dp1428
VRuby
p1429
F0.016228675723446058
ssVgarybernhardt/pycomplexity
p1430
(dp1431
VPython
p1432
F0.0032674470003175985
sVVimL
p1433
F0.00808991669418604
ssVdanielharan/presenter_test
p1434
(dp1435
VRuby
p1436
F0.0051439266612895536
ssVjvantuyl/erlctl
p1437
(dp1438
VErlang
p1439
F0.20671205494687167
ssVguille/CSS3-Overlay
p1440
(dp1441
sVautomatthew/flipper
p1442
(dp1443
VRuby
p1444
F0.0020727720676078066
ssVfelixge/chrome-bookmark-bar-shortcuts
p1445
(dp1446
VJavaScript
p1447
F1.9368466822029643e-06
ssVginatrapani/todo.txt-touch-ios-webapp
p1448
(dp1449
sVantirez/book-examples
p1450
(dp1451
VRuby
p1452
F0.0004892719135479095
ssVdaikini/sstoolkit
p1453
(dp1454
VObjective-C
p1455
F0.09265699569792565
ssVcommonsguy/cwac-thumbnail
p1456
(dp1457
VJava
p1458
F0.0005409942021915777
ssVjsierles/bitsontherun
p1459
(dp1460
VRuby
p1461
F0.001571596934673024
ssVJakeWharton/DocBrown
p1462
(dp1463
VJava
p1464
F0.00034123638703109784
ssVibdknox/blind
p1465
(dp1466
VClojure
p1467
F0.026980996700200946
ssVrtomayko/git-sh
p1468
(dp1469
VShell
p1470
F0.021467653811104985
ssVsstephenson/eco
p1471
(dp1472
VCoffeeScript
p1473
F0.10710547283890826
ssVpsi/svdir-camper_van
p1474
(dp1475
VRacket
p1476
F0.00034870450991166153
ssVsoffes/hire.samsoff.es
p1477
(dp1478
VRuby
p1479
F0.00013961484405852664
ssVmadrobby/freckle-cmd
p1480
(dp1481
VRuby
p1482
F0.0012237997432128403
ssVjwhitmire/rspec-tmbundle
p1483
(dp1484
sVmacournoyer/rails
p1485
(dp1486
sVjschairb/acts_as_list
p1487
(dp1488
sVgarybernhardt/dotfiles
p1489
(dp1490
VAppleScript
p1491
F1.0
ssVmiyagawa/coveralls-perl
p1492
(dp1493
sVvim-scripts/abc-vim
p1494
(dp1495
VVimL
p1496
F0.07582651579819681
ssVcowboy/dotfiles
p1497
(dp1498
VShell
p1499
F0.019807954114352173
sVPerl
p1500
F0.022278843033560015
ssVcommonsguy/andglobe
p1501
(dp1502
VRuby
p1503
F5.8152186379617226e-05
ssVjacobian/geocoders
p1504
(dp1505
VPython
p1506
F0.0006102204500128311
ssVagentzh/dns-nginx-module
p1507
(dp1508
VC
p1509
F0.002163869270481691
sVShell
p1510
F0.0005838103903316449
sVPerl
p1511
F0.0009806613580198487
ssVphilsturgeon/fuel-oauth-provider
p1512
(dp1513
VPHP
p1514
F0.0012016609881240255
ssVmoodlehq/moodle-local_phpmyadmin
p1515
(dp1516
VPHP
p1517
F1.0
ssVsstephenson/hector
p1518
(dp1519
VRuby
p1520
F0.010529513474506343
ssVmacournoyer/rack
p1521
(dp1522
VRuby
p1523
F0.030805531773226313
ssVcowboy/javascript-htmlslice
p1524
(dp1525
VJavaScript
p1526
F0.00017730252888183964
ssVdanielharan/confidence
p1527
(dp1528
VRuby
p1529
F0.00044017113357706006
ssVnathanmarz/focus
p1530
(dp1531
sVfelixge/faster-than-c
p1532
(dp1533
VR
p1534
F0.11869670635028742
ssVAlexanderFlatscher/sbicktRails
p1535
(dp1536
VRuby
p1537
F0.006580000483568288
ssVsebastianbergmann/academic-papers
p1538
(dp1539
sVnecolas/jekyll-boilerplate
p1540
(dp1541
sVhassox/gabber-client
p1542
(dp1543
VJavaScript
p1544
F0.00014105704559550398
ssVjacobian/django-dev-dashboard
p1545
(dp1546
VPython
p1547
F0.0074483121115596395
ssVmathiasbynens/homebrew
p1548
(dp1549
VRuby
p1550
F0.3157705877648544
ssVcreationix/boxcode
p1551
(dp1552
VJavaScript
p1553
F0.03902525076405188
ssVguille/brevity
p1554
(dp1555
sVrtomayko/diveintomark
p1556
(dp1557
sVcommonsguy/cw-andtuning
p1558
(dp1559
VC
p1560
F0.1475366902524864
sVLua
p1561
F0.06474965138574168
ssVcreationix/do
p1562
(dp1563
VJavaScript
p1564
F7.248243420843252e-05
ssVcreationix/cell
p1565
(dp1566
VJavaScript
p1567
F3.1825718610647825e-06
ssVdanielharan/ruby-aaws
p1568
(dp1569
VRuby
p1570
F0.015101217662145717
ssVJeffreyWay/MessageBox
p1571
(dp1572
VJavaScript
p1573
F0.0004552698910528007
ssVrbazinet/NewsBlur
p1574
(dp1575
sVphilsturgeon/codeigniter-cache
p1576
(dp1577
VPHP
p1578
F0.0007767591928985792
ssVcowboy/github-markdown-anchors
p1579
(dp1580
sVmislav/faraday
p1581
(dp1582
VRuby
p1583
F0.008810490208052156
ssVrmurphey/grunt-mocha
p1584
(dp1585
VJavaScript
p1586
F0.001844697148424145
ssVcanadaduane/alfred2-dropbox
p1587
(dp1588
VRuby
p1589
F0.19313928192589133
ssVsoffes/dotfiles
p1590
(dp1591
VShell
p1592
F0.0017133874975689381
sVVimL
p1593
F0.00226645398864748
ssVmmower/Hexdump
p1594
(dp1595
VJavaScript
p1596
F9.402665391135095e-06
ssVphilsturgeon/codeigniter-template
p1597
(dp1598
VPHP
p1599
F0.0015558226254675784
ssVmacournoyer/em-spec
p1600
(dp1601
VRuby
p1602
F0.0007810247803949016
ssVguille/Cube5
p1603
(dp1604
sVvanpelt/merb-plugins
p1605
(dp1606
VRuby
p1607
F0.02295015092910207
ssVmoodlehq/moodle-local_ci
p1608
(dp1609
VShell
p1610
F0.029449358715218928
ssVjazzyfox/rbot-plugins
p1611
(dp1612
VRuby
p1613
F0.0020883950430530766
ssVcowboy/javascript-linkify
p1614
(dp1615
VPHP
p1616
F0.0010822245652072561
sVJavaScript
p1617
F0.002722037501276655
ssVmezelve/AppropriatingNewTechnologies
p1618
(dp1619
sVkoush/android_device_motorola_backflip
p1620
(dp1621
VC
p1622
F0.0005013223463328935
ssVkafka399/d3-tsline
p1623
(dp1624
sVantirez/redis-tools
p1625
(dp1626
VC
p1627
F0.018727677667278408
ssVfelixge/codesurgeon
p1628
(dp1629
VJavaScript
p1630
F0.00023994714712295928
ssVMarak/node-kiwf
p1631
(dp1632
VJavaScript
p1633
F1.7900900172959554e-05
ssVMarak/hellonode
p1634
(dp1635
VJavaScript
p1636
F4.581879596224633e-06
ssVasseym/rapidsms-httprouter
p1637
(dp1638
VPython
p1639
F0.013618131377627794
ssVrbazinet/cheddar-ios
p1640
(dp1641
sVakitaonrails/dynamic_liquid_templates
p1642
(dp1643
VJavaScript
p1644
F0.0006102346903575155
sVRuby
p1645
F0.00292658007487869
ssVjsierles/marginalia
p1646
(dp1647
VRuby
p1648
F0.0011645316300157036
ssVvim-scripts/acomment
p1649
(dp1650
VVimL
p1651
F0.03855386216221269
ssVjosh/backbone
p1652
(dp1653
VCoffeeScript
p1654
F0.00340587748215039
sVJavaScript
p1655
F0.0007514111890523623
ssVscharfie/format_fallback
p1656
(dp1657
VRuby
p1658
F7.489108864240684e-05
ssVibdknox/aichallenge
p1659
(dp1660
VOCaml
p1661
F1.0
sVCommon Lisp
p1662
F1.0
ssVrobbyrussell/rubyurl
p1663
(dp1664
VRuby
p1665
F0.005048576914325959
ssVjwhitmire/heroku-rails
p1666
(dp1667
VRuby
p1668
F0.00331231877813453
ssVcommonsguy/cw-advandroid
p1669
(dp1670
VJava
p1671
F0.014607108214394808
ssVrbazinet/Launching-Soon
p1672
(dp1673
sVjvantuyl/minecraft_stuff
p1674
(dp1675
VPython
p1676
F0.0008838296193401182
sVShell
p1677
F0.00022719539550665108
ssVjsierles/broach
p1678
(dp1679
VRuby
p1680
F0.0029041375466596904
ssVgspederson/enki
p1681
(dp1682
sVrtomayko/mongrel_proctitle
p1683
(dp1684
VRuby
p1685
F0.0009639127865994549
ssVmadrobby/mail
p1686
(dp1687
sVjnunemaker/flipper-ui
p1688
(dp1689
VCoffeeScript
p1690
F0.12822816254472166
ssVmmower/alonetone
p1691
(dp1692
VRuby
p1693
F0.030294313298933857
ssVvim-scripts/2tex.vim
p1694
(dp1695
VVimL
p1696
F0.008776083692123644
ssVkamal/ancestry
p1697
(dp1698
VRuby
p1699
F0.006252289974823451
ssVhhyou/freebsd-doc
p1700
(dp1701
sVdrnic/bootstrap-cf-plugin
p1702
(dp1703
VRuby
p1704
F0.0027306729224697446
ssVakitaonrails/disqus
p1705
(dp1706
VRuby
p1707
F0.005123220019231139
ssVjdhuntington/game-checker
p1708
(dp1709
VCoffeeScript
p1710
F0.0017888668426890811
sVRuby
p1711
F0.006162643853816067
ssVleah/django-flash-status
p1712
(dp1713
VPython
p1714
F8.539036164449462e-05
ssVginatrapani/the-inclusive-team-tests
p1715
(dp1716
sVjacobian/django-tastypie
p1717
(dp1718
VPython
p1719
F0.05700363533432914
ssVibdknox/clj-record
p1720
(dp1721
VClojure
p1722
F0.04738514692272002
ssVjacobian/django-debug-toolbar
p1723
(dp1724
VPython
p1725
F0.001554577097764989
ssVsebastianbergmann/php-code-coverage
p1726
(dp1727
VPHP
p1728
F0.020369017838578644
ssVasseym/rapidsms-geoserver
p1729
(dp1730
VPython
p1731
F0.0023827173508152192
ssVnextgen666/ResponsiveSlides.js
p1732
(dp1733
sVtopfunky/backbone-couchdb
p1734
(dp1735
VJavaScript
p1736
F0.0011516899925862287
ssVayende/HibernatingRhinos.PhoneBook
p1737
(dp1738
VC#
p1739
F0.0007824234836452338
ssVautomatthew/ruby2java
p1740
(dp1741
VRuby
p1742
F0.0022856661060167674
ssVrobbevan/snipmate-snippets
p1743
(dp1744
sVnextgen666/Font-Awesome
p1745
(dp1746
sVtopfunky/good_form_builder
p1747
(dp1748
VRuby
p1749
F0.00042516811747485603
ssVantirez/redis-io
p1750
(dp1751
VRuby
p1752
F0.0036718951971129736
ssVvanpelt/instimage
p1753
(dp1754
VJavaScript
p1755
F0.0008384413042879141
ssVjdhuntington/learning
p1756
(dp1757
VErlang
p1758
F0.129116130874551
ssVautomatthew/filebase
p1759
(dp1760
VRuby
p1761
F0.001976802361301146
ssVweierophinney/Component_ZendDebug
p1762
(dp1763
VPHP
p1764
F0.00023249778274537713
ssVroland/Carousel
p1765
(dp1766
sVjwhitmire/fbootstrapp
p1767
(dp1768
sVfelixge/depmake
p1769
(dp1770
VShell
p1771
F0.0016788993076406985
ssVhenrik/blocket_se_feeds
p1772
(dp1773
VRuby
p1774
F0.001101295777022943
ssVsoffes/hue
p1775
(dp1776
VRuby
p1777
F0.0017522530872425386
ssVglassesfactory/Tween24
p1778
(dp1779
VActionScript
p1780
F0.9876690168787963
ssVup_the_irons/pony
p1781
(dp1782
sVguille/jade
p1783
(dp1784
VJavaScript
p1785
F0.0015881716175852368
ssVakitaonrails/globalize3
p1786
(dp1787
VRuby
p1788
F0.011359639034872094
ssVantirez/redis-sampler
p1789
(dp1790
VRuby
p1791
F0.001081457078044822
ssVvim-scripts/a-new-txt2tags-syntax
p1792
(dp1793
VVimL
p1794
F0.010364159184512722
ssVhassox/db2fog
p1795
(dp1796
VRuby
p1797
F0.0014788510169503086
ssVpkrumins/defined
p1798
(dp1799
VJavaScript
p1800
F8.600623152689815e-06
ssVautomatthew/ascribe
p1801
(dp1802
VCoffeeScript
p1803
F0.019693158560782416
ssVezmobius/heist
p1804
(dp1805
sVelbowdonkey/js_state
p1806
(dp1807
VJavaScript
p1808
F0.0007191588522297756
ssVgarybernhardt/vim-ruby
p1809
(dp1810
VVimL
p1811
F0.07349230184494028
ssVhenrik/attachment_fu
p1812
(dp1813
VRuby
p1814
F0.012382447959062846
ssVMarak/node-backbone-request
p1815
(dp1816
VJavaScript
p1817
F2.0375285802205633e-05
ssVglassesfactory/glassesfactory
p1818
(dp1819
VActionScript
p1820
F0.34937058790185793
ssVakitaonrails/depot
p1821
(dp1822
VRuby
p1823
F0.0022738868784985085
ssVjschairb/cfb
p1824
(dp1825
VRuby
p1826
F0.001836567557899553
ssVNZKoz/sillytestapp
p1827
(dp1828
VRuby
p1829
F0.0023851075846445993
ssVezmobius/LocheGSplicer
p1830
(dp1831
sVlancecarlson/live-search
p1832
(dp1833
VRuby
p1834
F0.0005691226769348466
ssVnecolas/grunt-release
p1835
(dp1836
VJavaScript
p1837
F2.6083437477949172e-05
ssVJeffreyWay/ardent
p1838
(dp1839
VPHP
p1840
F0.0007991103177016531
ssVJeffreyWay/Laravel-Generator
p1841
(dp1842
VPHP
p1843
F0.0025823613986396847
ssVkafka399/rinkimai
p1844
(dp1845
VPython
p1846
F0.012643061200588486
ssVmathiasbynens/Benchmark.js
p1847
(dp1848
sVrtomayko/node-bertrpc
p1849
(dp1850
VJavaScript
p1851
F0.0003190677607091623
ssVmadrobby/js-animation-course
p1852
(dp1853
VJavaScript
p1854
F2.220121174930446e-05
ssVdanielharan/restful-authentication
p1855
(dp1856
VRuby
p1857
F0.017669461236732097
ssVdanielharan/our-parliament
p1858
(dp1859
VJavaScript
p1860
F1.0
ssVguille/kibi
p1861
(dp1862
VJavaScript
p1863
F3.9137954763281925e-05
ssVweierophinney/2013-04-04-RestfulZf2-Webinar
p1864
(dp1865
VShell
p1866
F9.137592589234637e-05
ssVginatrapani/todo.txt-web
p1867
(dp1868
sVautomatthew/ax
p1869
(dp1870
VCoffeeScript
p1871
F0.003519146343368694
ssVdanielharan/cijoe
p1872
(dp1873
VRuby
p1874
F0.000996894623650581
ssVgarybernhardt/prest
p1875
(dp1876
VPython
p1877
F0.0017792471270193443
ssVsstephenson/node-matrices
p1878
(dp1879
VCoffeeScript
p1880
F0.11231584045495026
ssVjdhuntington/swagger-ui
p1881
(dp1882
VCoffeeScript
p1883
F0.08471729654569032
ssVkamal/fireeagle
p1884
(dp1885
VRuby
p1886
F0.010385806898783578
ssVentryway/pebbles
p1887
(dp1888
VRuby
p1889
F0.047717030717125575
ssVphilsturgeon/codeigniter-restclient
p1890
(dp1891
VPHP
p1892
F0.0006320529415962037
ssVtopfunky/gruff
p1893
(dp1894
VRuby
p1895
F0.024348283239585152
ssVguille/mocha
p1896
(dp1897
VJavaScript
p1898
F0.0013128492883282973
ssVnathanmarz/elephantdb-cascalog
p1899
(dp1900
VClojure
p1901
F0.006790549297502765
ssVjosh/emacs-color-theme-solarized
p1902
(dp1903
VEmacs Lisp
p1904
F0.00010409113230391228
ssVrobbyrussell/rbot-svnwatch
p1905
(dp1906
VRuby
p1907
F0.00024302406248198245
ssVmattslack/AVA_home_page_layout
p1908
(dp1909
VRuby
p1910
F0.0014769911389211096
ssVagentzh/array-var-nginx-module
p1911
(dp1912
VC
p1913
F0.003963349187495377
sVPerl
p1914
F0.01230997457412552
ssVxhr/xhr.github.com
p1915
(dp1916
sVjnunemaker/adapter
p1917
(dp1918
VRuby
p1919
F0.002166013952804975
ssVnzakas/jshint
p1920
(dp1921
VJavaScript
p1922
F0.001824100021151731
ssVadam/yard-tmbundle
p1923
(dp1924
sVkamal/contacts
p1925
(dp1926
VRuby
p1927
F0.006571941012108427
ssVjdhuntington/i18n
p1928
(dp1929
VRuby
p1930
F0.016154280602278102
ssVjnunemaker/columbus
p1931
(dp1932
VRuby
p1933
F0.000884186015081131
ssVrmurphey/ffco
p1934
(dp1935
VJavaScript
p1936
F0.00035848728349232396
sVRuby
p1937
F0.00049919126303697
ssVNZKoz/MiniProfiler
p1938
(dp1939
VASP
p1940
F0.9845597260804961
sVPuppet
p1941
F1.0
ssVmacournoyer/nanodb
p1942
(dp1943
sVagentzh/lua-resty-mysql
p1944
(dp1945
VLua
p1946
F0.1028248649119749
sVPerl
p1947
F0.10843974994918391
ssVmerb/merb-pre
p1948
(dp1949
sVayende/NewYork-Course-RavenDB-Nov-2011
p1950
(dp1951
VASP
p1952
F0.007752438788035403
sVJavaScript
p1953
F0.01637467351974786
ssVmadrobby/enterprise-css
p1954
(dp1955
VJavaScript
p1956
F3.899290457122267e-05
ssVrtomayko/date-performance
p1957
(dp1958
VRuby
p1959
F0.013006871009399205
ssVvanpelt/vandev
p1960
(dp1961
VJavaScript
p1962
F0.0015576769477958386
ssVroland/HttpBuildQuery
p1963
(dp1964
VC#
p1965
F0.0009621639567264707
ssVjosh/emacs.d
p1966
(dp1967
VEmacs Lisp
p1968
F0.00010031471369178142
ssVhassox/bcrypt-ruby
p1969
(dp1970
VC
p1971
F0.006489475920538194
sVJava
p1972
F0.0011017788572436533
ssVjnunemaker/flipper-redis
p1973
(dp1974
VRuby
p1975
F0.0010766213951689048
ssVsebastianbergmann/gap
p1976
(dp1977
VPHP
p1978
F0.00547602557675311
ssVkamal/celerity
p1979
(dp1980
VRuby
p1981
F0.04424637432277191
ssVyosephaider/Proyecto-Busqueda
p1982
(dp1983
sVsebastianbergmann/php-token-stream
p1984
(dp1985
VPHP
p1986
F0.006870628233280302
ssVDoogiemuc/Dokuwiki-Plugin-InlineEdit
p1987
(dp1988
VJavaScript
p1989
F5.8412565578684996e-05
sVPHP
p1990
F0.00015860849731390942
ssVerica/iOS-6-Advanced-Cookbook
p1991
(dp1992
VObjective-C
p1993
F1.0
ssVrobbyrussell/year_after_year
p1994
(dp1995
VRuby
p1996
F0.0001740845835330119
ssVjnunemaker/adapter-riak
p1997
(dp1998
VRuby
p1999
F0.0006451296923947727
ssVtopfunky/datamapper.github.com
p2000
(dp2001
VJavaScript
p2002
F0.0002546654754348541
ssVDmitryBaranovskiy/raphaeljs.com
p2003
(dp2004
VJavaScript
p2005
F0.0014365515050621237
ssVdrnic/bosh-cloudfoundry
p2006
(dp2007
VRuby
p2008
F0.014697252154203729
ssVakitaonrails/capistrano
p2009
(dp2010
VRuby
p2011
F0.05097020537393158
ssVmiyagawa/App-FatPacker
p2012
(dp2013
VPerl
p2014
F0.030714313733181658
ssVginatrapani/greasemonkey-multi-script-compiler
p2015
(dp2016
VJavaScript
p2017
F0.008450863095570754
ssVjschairb/project_w
p2018
(dp2019
VCoffeeScript
p2020
F0.0003866764572624869
sVRuby
p2021
F0.00206682045791437
ssVmathiasbynens/BrowserQuest
p2022
(dp2023
VJavaScript
p2024
F0.009416470756473441
ssVagentzh/jitdemo
p2025
(dp2026
VLua
p2027
F1.0
ssVhornbeck/Little-Erlanger
p2028
(dp2029
VErlang
p2030
F0.006785698182965869
ssVjoehewitt/ore
p2031
(dp2032
VJavaScript
p2033
F0.0004928293584319085
ssVmmower/crashcity
p2034
(dp2035
sVAlexanderFlatscher/bakk1todo
p2036
(dp2037
VJavaScript
p2038
F0.00842937007005327
sVRuby
p2039
F0.004826011510165163
ssVcanadaduane/kopimi-vector
p2040
(dp2041
VPython
p2042
F0.0001978941319270962
sVShell
p2043
F6.506534800894702e-05
ssVrobbevan/rails-templates
p2044
(dp2045
VRuby
p2046
F0.002965513521623252
ssVkamal/phantomjs-driver
p2047
(dp2048
VJavaScript
p2049
F9.49652139776167e-06
ssVpkrumins/awk-cheat-sheet
p2050
(dp2051
sValthjs/android
p2052
(dp2053
sVcowboy/blog.js
p2054
(dp2055
sVerica/Auto-Layout-Demystified
p2056
(dp2057
VShell
p2058
F7.217631500446035e-05
ssVcowboy/javascript-debug
p2059
(dp2060
VPHP
p2061
F0.0008514933662092009
sVJavaScript
p2062
F0.0018878623791081307
ssVmadrobby/madrobby.github.com
p2063
(dp2064
sVpsi/hubot
p2065
(dp2066
VRuby
p2067
F0.0006438897737086402
ssVpsi/puppet-chef
p2068
(dp2069
VPuppet
p2070
F0.02958139534883721
ssVmmower/CocoaAsyncSocket
p2071
(dp2072
sVasseym/RapidFTR---Android
p2073
(dp2074
sVmiyagawa/Acme-Dzil-Test
p2075
(dp2076
VPerl
p2077
F0.001323001323001323
ssVlancecarlson/acts-as-taggable-on
p2078
(dp2079
VRuby
p2080
F0.006831332001247358
ssVsebastianbergmann/finder-facade
p2081
(dp2082
VPHP
p2083
F0.0015563602813906763
ssVjvantuyl/exim_ses_transport
p2084
(dp2085
VPython
p2086
F0.0005697190927110944
ssVkafka399/hat-trie
p2087
(dp2088
sVup_the_irons/dotfiles
p2089
(dp2090
VVimL
p2091
F0.0035001526546329124
ssVMarak/badjitsu
p2092
(dp2093
VJavaScript
p2094
F2.4658532650072978e-06
ssVmerb/merb_sequel
p2095
(dp2096
VRuby
p2097
F0.0028617323275939564
ssVmoodlehq/moodle-theme_mooch
p2098
(dp2099
VPHP
p2100
F0.001073929302393744
ssVscharfie/jbuilder
p2101
(dp2102
VRuby
p2103
F0.004644487414515356
ssVrmurphey/dojo-boilerplate
p2104
(dp2105
sVglassesfactory/GFSimpleSoundVisualizer
p2106
(dp2107
VActionScript
p2108
F0.0636650228262718
ssVmiyagawa/Corona
p2109
(dp2110
VPerl
p2111
F0.012352767069748203
ssVmjankowski/money
p2112
(dp2113
VRuby
p2114
F0.02360011630437276
ssVvanpelt/amqp
p2115
(dp2116
VRuby
p2117
F0.016189866268570108
ssVrbazinet/railsbp.com
p2118
(dp2119
sVnecolas/griddle
p2120
(dp2121
sVdaikini/daikini.github.com
p2122
(dp2123
sVsoffes/geminabox
p2124
(dp2125
VRuby
p2126
F0.004880567932354996
ssVmiyagawa/blib-portable
p2127
(dp2128
VPerl
p2129
F0.006319025186949715
ssVmadrobby/enterprise-js
p2130
(dp2131
sVrobbyrussell/github-services
p2132
(dp2133
sVkoush/android_bionic
p2134
(dp2135
VC
p2136
F0.3540532903850244
ssVnathanmarz/cascalog
p2137
(dp2138
VClojure
p2139
F0.20665956490755932
ssVginatrapani/Smarterware
p2140
(dp2141
VPHP
p2142
F0.6297126021709472
ssValexvollmer/freedomrock
p2143
(dp2144
VRuby
p2145
F0.0005655269127450622
ssVded/valentine
p2146
(dp2147
VJavaScript
p2148
F0.0003728301877777124
ssVrtomayko/posix-spawn
p2149
(dp2150
VC
p2151
F0.001909026311305598
sVRuby
p2152
F0.005814226703012817
ssVadam/taxnstuff
p2153
(dp2154
VJavaScript
p2155
F8.344652225526427e-06
ssVnathanmarz/cascalog-contrib
p2156
(dp2157
VClojure
p2158
F0.02845172713318886
ssVerica/NSDate-Extensions
p2159
(dp2160
VObjective-C
p2161
F0.005784482337661988
ssVayende/Advanced.NHibernate
p2162
(dp2163
VC#
p2164
F0.0015827671194042642
ssVrtomayko/bcat
p2165
(dp2166
VRuby
p2167
F0.003994522039244667
ssVjwhitmire/excelinator
p2168
(dp2169
VRuby
p2170
F0.005167609108194685
ssVcdcarter/bootstrap
p2171
(dp2172
VJavaScript
p2173
F0.0016337685720772747
ssVmmower/Gen
p2174
(dp2175
VObjective-C
p2176
F0.023525891068771815
ssVleah/PullToRefresh
p2177
(dp2178
VObjective-C
p2179
F0.00562813286927258
ssVkafka399/githubdata
p2180
(dp2181
VR
p2182
F0.1339798948429455
ssVJakeWharton/myp2p-boxee-app
p2183
(dp2184
VPython
p2185
F0.02263272097906181
ssVjsierles/faraday
p2186
(dp2187
VRuby
p2188
F0.01712662483594326
ssVjwhitmire/sinatra-helpers
p2189
(dp2190
VRuby
p2191
F0.00308652958538979
ssVnecolas/project-euler
p2192
(dp2193
VJavaScript
p2194
F7.952163470542567e-05
ssVayende/courses-nhibernate-fleet-street-nov-2012
p2195
(dp2196
VVisual Basic
p2197
F0.010334144262158734
sVASP
p2198
F0.006783383939530977
ssVnathanmarz/cascalog-workshop
p2199
(dp2200
VClojure
p2201
F0.019304758909904355
ssVjazzyfox/leash
p2202
(dp2203
sVlancecarlson/instiki
p2204
(dp2205
sVjnunemaker/cassanity
p2206
(dp2207
VRuby
p2208
F0.02631305838963081
ssVjnunemaker/adapter-redis
p2209
(dp2210
VRuby
p2211
F0.0006812113261612303
ssVcloudwu/buddy
p2212
(dp2213
VC
p2214
F0.000758297196415865
ssVantirez/dump1090
p2215
(dp2216
VC
p2217
F0.01801824997011253
ssVxhr/picasso
p2218
(dp2219
sVroland/TestServiceStackService
p2220
(dp2221
VASP
p2222
F0.11234575876994637
ssVasseym/rapidsms-uganda-ussd
p2223
(dp2224
VPython
p2225
F0.007912615171515936
ssVjschairb/libretsy
p2226
(dp2227
VRuby
p2228
F0.003155841039944601
ssVmacournoyer/macournoyer.com
p2229
(dp2230
VRuby
p2231
F0.0002731540865550038
ssVnathanmarz/dfs-datastores-cascading
p2232
(dp2233
VClojure
p2234
F0.000858061512284662
sVJava
p2235
F0.0008905703787224171
ssVvim-scripts/256-grayvim
p2236
(dp2237
VVimL
p2238
F0.0016285757011209212
ssVkamal/chosen
p2239
(dp2240
VCoffeeScript
p2241
F0.1795623916134173
ssVayende/course-jul-25
p2242
(dp2243
VVisual Basic
p2244
F0.0056002606061866245
sVASP
p2245
F0.0069771949092318625
sVJavaScript
p2246
F0.0037001194786964353
ssVfelixge/cakephp
p2247
(dp2248
VPHP
p2249
F0.4748656225030203
ssVNZKoz/janus
p2250
(dp2251
VShell
p2252
F4.942122061881768e-05
ssVphilsturgeon/jsonlint
p2253
(dp2254
sVkoush/android_device_kyocera_m6000
p2255
(dp2256
sVmoodlehq/moodlemobile
p2257
(dp2258
VJavaScript
p2259
F0.002687310778824822
ssVglassesfactory/kazitori.js
p2260
(dp2261
VCoffeeScript
p2262
F0.24953130126392428
ssVpkrumins/adns
p2263
(dp2264
sVjnunemaker/7langauges7weeks
p2265
(dp2266
sVglassesfactory/techlab3-py
p2267
(dp2268
VCoffeeScript
p2269
F0.045936381958223325
ssVvim-scripts/2htmlj
p2270
(dp2271
VVimL
p2272
F0.01107992248883129
ssVcanadaduane/limescripts
p2273
(dp2274
VCoffeeScript
p2275
F0.026364303904260474
ssVagentzh/echo-nginx-module
p2276
(dp2277
VPerl
p2278
F0.16152027472782193
ssValexvollmer/itunes-connect
p2279
(dp2280
VRuby
p2281
F0.006391656835144751
ssVvanpelt/merb_paginate
p2282
(dp2283
VRuby
p2284
F0.0026396628909076143
ssVnzakas/datauri
p2285
(dp2286
sVmjankowski/polepin
p2287
(dp2288
VRuby
p2289
F0.0025490248349513242
ssVtopfunky/bong
p2290
(dp2291
VRuby
p2292
F0.0007432072604678586
ssVpkrumins/geom-vec
p2293
(dp2294
VJavaScript
p2295
F0.00022263498008247553
ssVcloudwu/guess-word
p2296
(dp2297
VLua
p2298
F0.00979388181976643
ssVmadrobby/downtime
p2299
(dp2300
VJavaScript
p2301
F1.615176550400974e-05
ssVup_the_irons/cacheable-flash
p2302
(dp2303
VJavaScript
p2304
F5.969242021450193e-05
sVRuby
p2305
F0.00018821965655492313
ssVdaikini/rubicus
p2306
(dp2307
VRuby
p2308
F0.001783871013738919
ssVdanielharan/prisoners_dilemma
p2309
(dp2310
VRuby
p2311
F0.0005996246766137078
ssVerica/iOS-5-Cookbook
p2312
(dp2313
VObjective-C
p2314
F0.9487608296646459
ssVcowboy/javascript-library-boilerplate
p2315
(dp2316
VJavaScript
p2317
F1.2235410318409916e-05
ssVjnunemaker/chinwag
p2318
(dp2319
VPython
p2320
F0.0014979877013128402
ssVdanahern/goose
p2321
(dp2322
VRuby
p2323
F0.0009539934371103944
ssVpsi/chef-rbenv
p2324
(dp2325
sVezmobius/nginx-ey-balancer
p2326
(dp2327
sVmmower/bishop
p2328
(dp2329
VRuby
p2330
F0.001321381343811473
ssVjoehewitt/dandy
p2331
(dp2332
VJavaScript
p2333
F1.315690565619811e-05
ssVrichhickey/rdfm
p2334
(dp2335
VClojure
p2336
F0.00968488178496296
ssVdanahern/java_game
p2337
(dp2338
VJava
p2339
F0.00016421442657824726
ssVkamal/rails
p2340
(dp2341
VRuby
p2342
F0.8177609672357687
ssVlancecarlson/fog
p2343
(dp2344
VRuby
p2345
F0.3811423246863471
ssVMarak/nconf
p2346
(dp2347
VJavaScript
p2348
F0.00021726812297628316
ssVmoodlehq/moodle-local_phppgadmin
p2349
(dp2350
VPHP
p2351
F0.3793169450175387
ssVmislav/bats
p2352
(dp2353
VShell
p2354
F0.002006003789434312
ssVayende/Effectus
p2355
(dp2356
VC#
p2357
F0.0024388249122990454
ssVjsierles/memcache-client
p2358
(dp2359
VRuby
p2360
F0.0005704865874895925
ssVJeffreyWay/Envato-Marketplace-API-Wrapper-in-PHP
p2361
(dp2362
VPHP
p2363
F0.00102507942138084
ssVdrnic/cf-docs-contrib
p2364
(dp2365
sVnathanmarz/formula-inverse
p2366
(dp2367
VC
p2368
F0.07897885049426251
sVC++
p2369
F0.019808923298806572
ssVJeffreyWay/Compress-and-Concatenate-Stylesheets-with-PHP
p2370
(dp2371
VPHP
p2372
F0.0004180658842032005
ssVjsierles/kayak
p2373
(dp2374
VRuby
p2375
F0.001790566574644035
ssVkoush/android_device_elocity_a7
p2376
(dp2377
VShell
p2378
F1.7066320789232003e-05
ssVsebastianbergmann/bytekit-cli
p2379
(dp2380
VPHP
p2381
F0.005583787185339752
ssVjvantuyl/erlbench
p2382
(dp2383
VErlang
p2384
F0.022250777762748548
ssVtjogin/static-skeleton
p2385
(dp2386
VCoffeeScript
p2387
F0.005659537238114582
ssVrbazinet/cheddarkit
p2388
(dp2389
sVjosh/albino
p2390
(dp2391
VRuby
p2392
F0.0016380565762497297
ssVsebastianbergmann/pear.phpqatools.org
p2393
(dp2394
sVmdo/sublime-snippets
p2395
(dp2396
sVweierophinney/avalanche
p2397
(dp2398
VJavaScript
p2399
F0.00016555346332504015
ssVelbowdonkey/flightcontrol
p2400
(dp2401
VJava
p2402
F0.00028497590231061807
ssVmislav/gorgeous
p2403
(dp2404
VPerl
p2405
F0.005985600325222967
ssVJeffreyWay/docs
p2406
(dp2407
sVrobbyrussell/textilizefu
p2408
(dp2409
VRuby
p2410
F0.00015201403091985228
ssVup_the_irons/yubikey-cli-tools
p2411
(dp2412
sVjosh/datomic-free
p2413
(dp2414
VRuby
p2415
F0.000351640939387195
ssVadam/dm-exampleapp
p2416
(dp2417
VRuby
p2418
F0.00039466611779599497
ssVhassox/chain
p2419
(dp2420
VJavaScript
p2421
F0.00013843760977419865
ssVjvantuyl/pystache
p2422
(dp2423
VPython
p2424
F0.0030920536224470223
ssVjsierles/bits_on_the_run
p2425
(dp2426
VRuby
p2427
F0.002683432020528094
ssVkafka399/kafka399.github.com
p2428
(dp2429
sVvim-scripts/abbott.vim
p2430
(dp2431
VVimL
p2432
F0.004476830765204713
ssVjosh/connect
p2433
(dp2434
VJavaScript
p2435
F0.0017425988779429084
ssVrmurphey/johnny-five
p2436
(dp2437
VJavaScript
p2438
F0.0020821187157324256
ssVfelixge/cakephp-authsome
p2439
(dp2440
VPHP
p2441
F0.0005776728853742919
ssVJeffreyWay/jquery.styleWords
p2442
(dp2443
VJavaScript
p2444
F0.0004245704445216718
ssVasseym/rapidsms-maintenance
p2445
(dp2446
sVfelixge/connect
p2447
(dp2448
sVsoffes/ActiveSupportInflector
p2449
(dp2450
VObjective-C
p2451
F0.003994751316986675
ssVagentzh/dodo
p2452
(dp2453
VPerl
p2454
F0.016286110625733267
ssVmadrobby/acornkittens
p2455
(dp2456
VJavaScript
p2457
F0.0013055541169041409
ssVjvantuyl/gunicorn-init
p2458
(dp2459
VShell
p2460
F0.001787341554322277
ssVginatrapani/todo.txt-touch
p2461
(dp2462
VJava
p2463
F0.06412662712768052
ssVmerb/merb-gen
p2464
(dp2465
VRuby
p2466
F0.025760302639352913
ssVfloydprice/gemtastic
p2467
(dp2468
sVdanielharan/postal_code_to_edid_webservice
p2469
(dp2470
VRuby
p2471
F0.003264457916849813
ssVtopfunky/calendar_helper
p2472
(dp2473
VRuby
p2474
F0.0024162295436665265
ssVmislav/coral
p2475
(dp2476
VRacket
p2477
F0.0030115389492370768
sVShell
p2478
F0.008181167528338093
ssVscharfie/bones
p2479
(dp2480
VRuby
p2481
F0.0043767889701793366
ssVjosh/gem_stub
p2482
(dp2483
VRuby
p2484
F0.00018226804686148683
ssVup_the_irons/billing-system-models
p2485
(dp2486
VRuby
p2487
F0.006940816821232864
ssVdrnic/blue-ridge
p2488
(dp2489
VJavaScript
p2490
F0.0029823855312945363
sVRuby
p2491
F0.0038550311870547533
ssVgarybernhardt/LuaSpec
p2492
(dp2493
VLua
p2494
F0.06392169252222415
ssVsoffes/blog
p2495
(dp2496
sVjacobian/djangobench
p2497
(dp2498
VPython
p2499
F0.013244956371600402
ssVJakeWharton/DiskLruCache
p2500
(dp2501
sVnzakas/yui-misc
p2502
(dp2503
sVakitaonrails/locarails
p2504
(dp2505
VRuby
p2506
F0.002069300295286635
ssVdrnic/build-change-trigger-plugin
p2507
(dp2508
VRuby
p2509
F0.0005897053271246473
ssVrmurphey/github-viewer
p2510
(dp2511
VJavaScript
p2512
F0.002374992118228534
ssVleah/suggestorama
p2513
(dp2514
VRuby
p2515
F0.0026797122644696965
ssVweierophinney/Component_ZendDom
p2516
(dp2517
VPHP
p2518
F0.001370408139987783
ssVgarybernhardt/explicit_import
p2519
(dp2520
VRuby
p2521
F0.00033986171186893566
ssVxhr/devise
p2522
(dp2523
sVsebastianbergmann/php-text-template
p2524
(dp2525
VPHP
p2526
F0.0006440349878823877
ssVscharfie/jira
p2527
(dp2528
VRuby
p2529
F0.0002973325009345887
ssVvanpelt/merb_facebooker
p2530
(dp2531
VRuby
p2532
F0.001169119329154394
ssVdrnic/4th_and_king
p2533
(dp2534
sVautomatthew/pez_libs
p2535
(dp2536
sVerica/iphone-3.0-cookbook-
p2537
(dp2538
VObjective-C
p2539
F0.829988096832736
ssVmiyagawa/AnyEvent-DBI-Abstract
p2540
(dp2541
VPerl
p2542
F0.005302703415910963
ssVrmurphey/cufon
p2543
(dp2544
sVweierophinney/Component_ZendCode
p2545
(dp2546
VPHP
p2547
F0.021734433459280514
ssVorencohen1/TrackDir
p2548
(dp2549
VObjective-C
p2550
F0.025160616599296023
ssVmadrobby/dotvim
p2551
(dp2552
VVimL
p2553
F0.24931383300206242
ssVdrnic/bosh-client
p2554
(dp2555
VRuby
p2556
F0.00014779830738700158
ssVrmurphey/bloody-jquery-plugins
p2557
(dp2558
VJavaScript
p2559
F0.00011675687224345974
ssVmadrobby/microjs.com
p2560
(dp2561
VJavaScript
p2562
F0.0010886016914046924
ssVcanadaduane/ImplicitCAD
p2563
(dp2564
VHaskell
p2565
F1.0
ssVjdhuntington/attr_encrypted
p2566
(dp2567
sVjdhuntington/Learnr
p2568
(dp2569
VJava
p2570
F5.748497762321956e-05
ssVjosh/gobert
p2571
(dp2572
VGo
p2573
F0.8173381620642826
ssVrobbevan/vim-twilight
p2574
(dp2575
VVimL
p2576
F0.0036714996915753334
ssVagentzh/agentzh.org
p2577
(dp2578
sVsebastianbergmann/php-jenkins-template
p2579
(dp2580
sVrobbyrussell/active_merchant
p2581
(dp2582
VRuby
p2583
F0.15100126533701919
ssVjwhitmire/tm-themes
p2584
(dp2585
sVlifo/fast_context
p2586
(dp2587
VRuby
p2588
F0.00029001698068640663
ssVginatrapani/sphinx-bootstrap-theme
p2589
(dp2590
sVtopfunky/demo-simplest-socket-io
p2591
(dp2592
VJavaScript
p2593
F1.685995173582845e-05
ssVcreationix/eventemitter-browser
p2594
(dp2595
VJavaScript
p2596
F1.4385566106582368e-05
ssVhenrik/draper
p2597
(dp2598
VRuby
p2599
F0.012790257214931844
ssVkoush/android_vendor_cyanogen
p2600
(dp2601
VJava
p2602
F0.0005941438130510425
ssVezmobius/acl_system2
p2603
(dp2604
VRuby
p2605
F0.0012500860193588505
ssVfelixge/EventEmitter
p2606
(dp2607
sVscharfie/form_assistant
p2608
(dp2609
VRuby
p2610
F0.003947033153565789
ssVayende/courses-lucerne-oct-2012
p2611
(dp2612
VASP
p2613
F0.00613734737386136
ssVhassox/any_view
p2614
(dp2615
VRuby
p2616
F0.012979220822698449
ssVhassox/black
p2617
(dp2618
VRuby
p2619
F0.00045331427165006525
ssVglassesfactory/Shimehari
p2620
(dp2621
VPython
p2622
F0.024245912541144037
ssVcreationix/embedder-sync
p2623
(dp2624
VJavaScript
p2625
F2.9854742471489742e-05
ssVmoodlehq/moodle-local_hub
p2626
(dp2627
VPHP
p2628
F0.028864442271461094
ssVdrnic/cf-release
p2629
(dp2630
VShell
p2631
F0.023887515879678172
ssVelbowdonkey/infiniteexcitebike
p2632
(dp2633
VRuby
p2634
F0.0011875941175777693
ssVnathanmarz/midje-cascalog
p2635
(dp2636
sVlifo/cramp_chat_demo
p2637
(dp2638
VPerl
p2639
F0.0035517771366827973
ssVcloudwu/project-pangolin
p2640
(dp2641
sVjwhitmire/runt
p2642
(dp2643
VRuby
p2644
F0.026625641890404828
ssVleah/python-guide
p2645
(dp2646
sVvanpelt/sigmod
p2647
(dp2648
VJavaScript
p2649
F0.0028082997037307167
ssVpsi/docs.vagrantup.com
p2650
(dp2651
VJavaScript
p2652
F0.00047889600762998137
sVRuby
p2653
F0.0006228111560443866
ssVpkrumins/codinghorror-keyword-analyzer
p2654
(dp2655
sVvanpelt/contacts
p2656
(dp2657
VRuby
p2658
F0.0023952749178708863
ssVakitaonrails/CoffeeScript-Demonstration
p2659
(dp2660
VCoffeeScript
p2661
F0.004343274954301873
sVRuby
p2662
F0.0017363821280600418
ssVtopfunky/basic_model
p2663
(dp2664
VRuby
p2665
F0.0006490974321903969
ssVantirez/jsrt
p2666
(dp2667
sVNZKoz/iOSPorts
p2668
(dp2669
VObjective-C
p2670
F0.036231413340955185
ssVmiyagawa/backpan-timemachine
p2671
(dp2672
VPerl
p2673
F0.015383902176355008
ssVphilsturgeon/codeigniter-oauth2
p2674
(dp2675
VPHP
p2676
F0.0025971853405193862
ssVmathiasbynens/Faker.js
p2677
(dp2678
VJavaScript
p2679
F0.0025596580774484407
ssVjwhitmire/ssl_requirement
p2680
(dp2681
VRuby
p2682
F0.0006643484320298275
ssVlancecarlson/flails
p2683
(dp2684
VActionScript
p2685
F0.10772604985589145
ssVgarybernhardt/base
p2686
(dp2687
VRuby
p2688
F0.0006074361643363429
ssVmmower/embeddable-macruby
p2689
(dp2690
sVibdknox/fetch
p2691
(dp2692
VClojure
p2693
F0.0036743884077189786
ssVerica/Camera-Image-Helper
p2694
(dp2695
VObjective-C
p2696
F0.002875217444479139
ssVmacournoyer/min
p2697
(dp2698
VJava
p2699
F0.0017602912836954799
sVRuby
p2700
F0.001041903671957193
ssVhenrik/facebox
p2701
(dp2702
sVmadrobby/creditcard_js
p2703
(dp2704
VJavaScript
p2705
F0.00019958906427353188
ssVjsierles/driven
p2706
(dp2707
VRuby
p2708
F0.00011432050286142236
ssVsebastianbergmann/money
p2709
(dp2710
VPHP
p2711
F0.0006399641644646456
ssVfelixge/dotfiles
p2712
(dp2713
VVimL
p2714
F0.544984049148561
ssVlifesinger/dew
p2715
(dp2716
VJavaScript
p2717
F0.0005717195981836644
ssVmacournoyer/gh-contest
p2718
(dp2719
VRuby
p2720
F0.0004006177274894313
ssVdanielharan/integrity
p2721
(dp2722
sVweierophinney/Component_ZendFeed
p2723
(dp2724
VPHP
p2725
F0.037234132026327624
ssVcowboy/D8
p2726
(dp2727
VJavaScript
p2728
F0.00012199574388607042
ssVmmower/pastackedlistview
p2729
(dp2730
VObjective-C
p2731
F0.0020285111543473884
ssVdesandro/classie
p2732
(dp2733
VJavaScript
p2734
F1.4138127543657762e-05
ssVibdknox/crate
p2735
(dp2736
VClojure
p2737
F0.017748709860638135
ssVpkrumins/feedburner-graph-generator
p2738
(dp2739
sVded/domready
p2740
(dp2741
VJavaScript
p2742
F3.0417878511249194e-05
ssVjsierles/globalize_translator
p2743
(dp2744
VJavaScript
p2745
F0.0008814358876871243
sVRuby
p2746
F0.0013418400021326601
ssVjsierles/cijoe
p2747
(dp2748
VRuby
p2749
F0.0015079891060744237
ssVjoehewitt/devon-tmbundle
p2750
(dp2751
sVsoffes/fat.samsoff.es
p2752
(dp2753
VRuby
p2754
F0.00020805835553304417
ssVasseym/rapidsms-xforms
p2755
(dp2756
VPython
p2757
F0.02339459651141559
ssVjdhuntington/fragrant
p2758
(dp2759
VRuby
p2760
F0.0022769866752138396
ssVxhr/guard-unicorn
p2761
(dp2762
VRuby
p2763
F0.0007697415203510954
ssVelbowdonkey/ember.js
p2764
(dp2765
sVcreationix/chicagowebconf2012
p2766
(dp2767
VLua
p2768
F0.0036931322991110337
ssVcreationix/brozula
p2769
(dp2770
VLua
p2771
F0.06666702980651909
ssVweierophinney/Component_ZendMail
p2772
(dp2773
VPHP
p2774
F0.025035179979168137
ssVjacobian/django-googlecharts
p2775
(dp2776
VPython
p2777
F0.005449457624948656
ssVded/sink-test
p2778
(dp2779
VJavaScript
p2780
F0.00025793337093830667
ssVautomatthew/ambition
p2781
(dp2782
VRuby
p2783
F0.002640034866513454
ssVup_the_irons/ip_allocator
p2784
(dp2785
VRuby
p2786
F0.0009511416241322894
ssVrbazinet/html2haml
p2787
(dp2788
sVlifo/tickle
p2789
(dp2790
VRuby
p2791
F0.00023360068046737498
ssVcdcarter/chill
p2792
(dp2793
sVjoehewitt/express-logger
p2794
(dp2795
VJavaScript
p2796
F1.577634147750344e-05
ssVguille/git-extras
p2797
(dp2798
sVcdcarter/bankers
p2799
(dp2800
VRuby
p2801
F0.0003874745894164261
ssVkamal/geekcamp
p2802
(dp2803
VPHP
p2804
F0.27804492023067895
ssVagentzh/appears
p2805
(dp2806
VC++
p2807
F0.00026361085141966546
sVPerl
p2808
F0.0005634345256986767
ssVjacobian/djobs
p2809
(dp2810
VPython
p2811
F0.0049777293161537076
sVJavaScript
p2812
F0.001248327549954646
ssVvanpelt/Velocigraphtor
p2813
(dp2814
sVJakeWharton/jquery-maven-artifact
p2815
(dp2816
VShell
p2817
F3.306599652913701e-05
ssVdanielharan/scanty
p2818
(dp2819
sVdaikini/paysimple
p2820
(dp2821
VRuby
p2822
F0.0017315464451841248
ssVmacournoyer/llvmruby
p2823
(dp2824
VC
p2825
F0.0024964442519547388
sVRuby
p2826
F0.005217081863771375
sVC++
p2827
F0.0013020315290804873
ssVjoehewitt/express-store
p2828
(dp2829
VJavaScript
p2830
F4.5776134141052436e-05
ssVnathanmarz/crane
p2831
(dp2832
VClojure
p2833
F0.026812797142395144
ssValexvollmer/homebrew
p2834
(dp2835
VRuby
p2836
F0.06598810050036918
ssVsoffes/AFNetworking
p2837
(dp2838
VObjective-C
p2839
F0.2839624420801378
ssVsebastianbergmann/phpqatools.org
p2840
(dp2841
sVjnunemaker/crack
p2842
(dp2843
VRuby
p2844
F0.004240149930967527
ssVelbowdonkey/IsometricMap
p2845
(dp2846
VJavaScript
p2847
F6.627940540683977e-05
ssVpkrumins/gnu-awk-youtube-downloader
p2848
(dp2849
sVasseym/android-sms-relay
p2850
(dp2851
VJava
p2852
F0.0037456245062728786
ssVphilsturgeon/dbad
p2853
(dp2854
sVded/emile
p2855
(dp2856
VJavaScript
p2857
F0.00028414479387983753
ssVdanielharan/twitterjobbot
p2858
(dp2859
sVTeclis01/rtsGenerator
p2860
(dp2861
VJava
p2862
F0.011355550047176073
ssVJakeWharton/ActionBarSherlock
p2863
(dp2864
VJava
p2865
F0.040108231934841095
ssVcreationix/adventure
p2866
(dp2867
VJavaScript
p2868
F0.00012256741229006864
ssVmislav/bluecloth
p2869
(dp2870
VPerl
p2871
F0.06351476162796918
ssVjosh/homebrew
p2872
(dp2873
VRuby
p2874
F0.1875879179843386
ssVantirez/hiredis
p2875
(dp2876
sVayende/courses-new-york-aug-2012
p2877
(dp2878
VASP
p2879
F0.0063311583435622446
sVJavaScript
p2880
F0.0036960068791333438
ssVjacobian/jellyroll
p2881
(dp2882
VPython
p2883
F0.012815079465350585
ssVmoodlehq/moodle-local_dev
p2884
(dp2885
VPHP
p2886
F0.007102357936135541
ssVcdcarter/kavanaut
p2887
(dp2888
sVezmobius/vcap
p2889
(dp2890
VRuby
p2891
F0.05650706226685654
ssVcloudwu/dfont
p2892
(dp2893
VC
p2894
F0.002481848998823032
ssVrmurphey/flitter
p2895
(dp2896
VRuby
p2897
F0.0006378141721465907
ssVkoush/android_device_htc_inc
p2898
(dp2899
VC
p2900
F0.008237790455786796
sVShell
p2901
F0.004679016283047775
ssVcloudwu/luacc
p2902
(dp2903
VLua
p2904
F0.059923522747080356
ssValthjs/blueberryseason
p2905
(dp2906
sVup_the_irons/altered_beast
p2907
(dp2908
VRuby
p2909
F0.015215662156875753
ssVmiyagawa/Acme-Blue
p2910
(dp2911
VPerl
p2912
F0.0011304350926992436
ssVcloudwu/attrib
p2913
(dp2914
VLua
p2915
F0.010649076172215444
ssVwaterschaats/kohana3-orm_mptt
p2916
(dp2917
sVlifo/Websocket-Bomberman
p2918
(dp2919
sVDmitryBaranovskiy/raphael
p2920
(dp2921
VJavaScript
p2922
F0.005009803259892145
ssVmoodlehq/moodle-behat-extension
p2923
(dp2924
VPHP
p2925
F0.0010561098489424961
ssVscharfie/CraftyBox2D
p2926
(dp2927
sVdanahern/file_column
p2928
(dp2929
sVzybl880506/acknetworks
p2930
(dp2931
VC
p2932
F0.006719720138481074
ssVsoffes/iphone-library-test-app
p2933
(dp2934
VObjective-C
p2935
F0.0004981679336648181
ssVsstephenson/brochure
p2936
(dp2937
VRuby
p2938
F0.0017196432257972523
ssVayende/managed-esent
p2939
(dp2940
VC#
p2941
F0.2643268921390086
ssVpsi/chef-rbenv_system_pkgs
p2942
(dp2943
VRuby
p2944
F0.000712457277051771
ssVatomicpony/test_project
p2945
(dp2946
sVdrnic/Backbone.tmbundle
p2947
(dp2948
sVasseym/rapidsms-script
p2949
(dp2950
VPython
p2951
F0.01075311036361106
ssVguille/insights-chrome
p2952
(dp2953
VJavaScript
p2954
F0.00015188461581451526
ssVouterim/rack-jsonp
p2955
(dp2956
sVautomatthew/ripples
p2957
(dp2958
VRuby
p2959
F0.000901544876686987
ssVcdcarter/HouseCounter
p2960
(dp2961
VJavaScript
p2962
F8.060524496375068e-05
ssVjosh/direnv
p2963
(dp2964
VShell
p2965
F0.0017315204634074971
ssVglassesfactory/GFS.I.OAS3
p2966
(dp2967
VActionScript
p2968
F0.033227813605068435
ssVsstephenson/disaster
p2969
(dp2970
VRuby
p2971
F0.004766247429493574
ssVphilsturgeon/fuel-ninjauth
p2972
(dp2973
VPHP
p2974
F0.002132497006984688
ssVnecolas/eraser.css
p2975
(dp2976
sVjdhuntington/emacs-starter-kit-customization
p2977
(dp2978
VEmacs Lisp
p2979
F0.015232903333440876
ssVcowboy/grunt-node-example
p2980
(dp2981
VJavaScript
p2982
F1.598111821923415e-05
ssVrmurphey/dojo-demo
p2983
(dp2984
VShell
p2985
F0.0006623865756320672
sVJavaScript
p2986
F0.00018589461967029067
ssVmadrobby/freckle-client
p2987
(dp2988
sVcdcarter/Mantle
p2989
(dp2990
VC#
p2991
F0.00027439390811839477
ssVpsi/chef-ruby
p2992
(dp2993
VRuby
p2994
F0.00018536784357681824
ssVjacobian/django-buildbots
p2995
(dp2996
VPython
p2997
F0.001183764670913534
ssVded/Dagron
p2998
(dp2999
VJavaScript
p3000
F1.3438473676077834e-05
ssVglassesfactory/slimish-jinja-example
p3001
(dp3002
VPython
p3003
F0.00035821200457980345
ssVlukestar/cekt
p3004
(dp3005
VJava
p3006
F9.696660013588562e-06
ssVmislav/dotfiles
p3007
(dp3008
VShell
p3009
F0.00639098158721761
ssVhassox/acts_as_votable
p3010
(dp3011
VRuby
p3012
F0.003095580991798558
ssVjdhuntington/stresster
p3013
(dp3014
VCoffeeScript
p3015
F0.0008944334213445406
sVRuby
p3016
F0.002649086272922222
ssVRailsAddict/sfget
p3017
(dp3018
sVmiyagawa/CGI.pm
p3019
(dp3020
VPerl
p3021
F0.7389425974331635
ssVwaterschaats/ACL
p3022
(dp3023
sVleegee/MooTools-PcmImage
p3024
(dp3025
VJavaScript
p3026
F0.00011555380888579183
ssVnecolas/suit-grid
p3027
(dp3028
sVdrnic/cf-console
p3029
(dp3030
VRuby
p3031
F0.027813855967325666
ssVpkrumins/bash-history-cheat-sheet
p3032
(dp3033
sVphilsturgeon/codeigniter-prowl
p3034
(dp3035
VPHP
p3036
F0.0001659820642592534
ssVayende/CourseSampleApp
p3037
(dp3038
VASP
p3039
F0.0069125912526649
sVJavaScript
p3040
F0.0074793254415221186
ssVrobbyrussell/flash-message-conductor
p3041
(dp3042
sVkoush/android_device_endeavoru
p3043
(dp3044
sVantirez/redis-timeseries
p3045
(dp3046
VRuby
p3047
F0.0007272123094167485
ssVtopfunky/ar_fixtures
p3048
(dp3049
VRuby
p3050
F0.0010198331193440335
ssVjsierles/fast_git_deploy
p3051
(dp3052
VRuby
p3053
F0.00238399165782708
ssVasseym/rapidsms-mvrs
p3054
(dp3055
VPython
p3056
F0.005348766750545728
ssVstepbystep55/its-me-baby
p3057
(dp3058
VJava
p3059
F0.0015356795720496588
ssVibdknox/brepl
p3060
(dp3061
VJavaScript
p3062
F0.07734699956425216
ssVscharfie/generate_csr
p3063
(dp3064
sVcommonsguy/cwac-prefs
p3065
(dp3066
VPerl
p3067
F0.020251548553435347
ssVjvantuyl/sublime_diagram_plugin
p3068
(dp3069
VPython
p3070
F0.0011893898594276641
ssVcommonsguy/cwac-merge
p3071
(dp3072
VPerl
p3073
F0.020251548553435347
ssVpkrumins/busy-beaver
p3074
(dp3075
VPerl
p3076
F0.004040324795041777
ssVlifo/tramp
p3077
(dp3078
VRuby
p3079
F0.003876729764062073
ssVMarak/node-dbox
p3080
(dp3081
VJavaScript
p3082
F0.00016743911582181044
ssVpsi/vagrant
p3083
(dp3084
VRuby
p3085
F0.09937080326272205
ssVmatz/mruby
p3086
(dp3087
sVtteofili/cpt
p3088
(dp3089
VJava
p3090
F0.027584383280840095
ssVjacobian/django-multiurl
p3091
(dp3092
VPython
p3093
F0.000745224974351953
ssVantirez/hping
p3094
(dp3095
VC
p3096
F0.06742859354401116
ssVjoehewitt/diskcache
p3097
(dp3098
VJavaScript
p3099
F7.889023975175598e-05
ssVhassox/handlebars_assets
p3100
(dp3101
VRuby
p3102
F0.0006006166115626138
ssVMarak/colors.js
p3103
(dp3104
VJavaScript
p3105
F0.00012308788650863418
ssVayende/NHibernate-Challanges
p3106
(dp3107
VC#
p3108
F8.906180862571026e-05
ssVfelixge/cluster
p3109
(dp3110
VJavaScript
p3111
F0.0006661046113930441
ssVayende/IronJS
p3112
(dp3113
sVrtomayko/camo
p3114
(dp3115
VCoffeeScript
p3116
F0.018759666911431563
ssVscharfie/gnat
p3117
(dp3118
VRuby
p3119
F0.006785702993597681
ssVsstephenson/backbone
p3120
(dp3121
VCoffeeScript
p3122
F0.00340587748215039
sVJavaScript
p3123
F0.0006867102710296967
ssVsoffes/grater
p3124
(dp3125
VRuby
p3126
F0.0001806561525695145
ssVnzakas/play
p3127
(dp3128
VPython
p3129
F1.0
ssVjdhuntington/rspec-mode
p3130
(dp3131
VEmacs Lisp
p3132
F0.0003626512045903154
ssVjwhitmire/ruby_practice
p3133
(dp3134
sVcanadaduane/house
p3135
(dp3136
sVcommonsguy/cwac-cache
p3137
(dp3138
sVautomatthew/ambitious_activeldap
p3139
(dp3140
VRuby
p3141
F0.0010388038752418617
ssVcowboy/benalman.com-idea
p3142
(dp3143
VJavaScript
p3144
F9.538329982531691e-05
ssVmathiasbynens/alcuadrado.github.com
p3145
(dp3146
sVxhr/ro-keylayouts
p3147
(dp3148
sVguille/express-expose
p3149
(dp3150
sVscharfie/faq-slate-plugin
p3151
(dp3152
VRuby
p3153
F0.00016652107954760327
ssVpkrumins/endian-toggle
p3154
(dp3155
VJavaScript
p3156
F9.556247947433128e-06
ssVrmurphey/gith
p3157
(dp3158
sVmislav/explain-ruby
p3159
(dp3160
VRuby
p3161
F0.002461486575710365
ssVibdknox/jayq
p3162
(dp3163
VClojure
p3164
F0.010466562821722283
ssVmmower/nebo
p3165
(dp3166
VObjective-C
p3167
F0.0006715411264060812
ssVhenrik/augmentations
p3168
(dp3169
VRuby
p3170
F0.00015759366500744883
ssVweierophinney/Component_ZendEventManager
p3171
(dp3172
VPHP
p3173
F0.004625223482445035
ssVscharfie/associated_save
p3174
(dp3175
VRuby
p3176
F0.0009647807296797475
ssVNZKoz/statsd.scala
p3177
(dp3178
sVcloudwu/lua-db
p3179
(dp3180
VLua
p3181
F0.010425745162977165
ssVjdhuntington/laizen
p3182
(dp3183
VRuby
p3184
F0.007387187548240587
ssVmadrobby/keymaster
p3185
(dp3186
VJavaScript
p3187
F0.00029350479744977867
ssVvim-scripts/Access-SQL-Syntax-file
p3188
(dp3189
VVimL
p3190
F0.059234670670995
ssVhenrik/globalize3
p3191
(dp3192
VRuby
p3193
F0.010115132649600839
ssVmoodlehq/moodle-mod_newmodule
p3194
(dp3195
VPHP
p3196
F0.003054192875152685
ssVvanpelt/merb_async_observer
p3197
(dp3198
VRuby
p3199
F0.002138239774235606
ssVNZKoz/rexml-expansion-fix
p3200
(dp3201
VRuby
p3202
F0.0002303768918834303
ssVAlexanderFlatscher/puzzlesBackEnd
p3203
(dp3204
VRuby
p3205
F0.002178537131534914
ssVdesandro/make-julesmarie-cry
p3206
(dp3207
VJavaScript
p3208
F6.800294298307323e-06
ssVhassox/hash_path
p3209
(dp3210
VRuby
p3211
F0.0003490371101463166
ssVDmitryBaranovskiy/prefixfree
p3212
(dp3213
VJavaScript
p3214
F0.00014509285388044672
ssVkoush/androidmono
p3215
(dp3216
VC#
p3217
F1.0
ssVezmobius/ey-lessql
p3218
(dp3219
VRuby
p3220
F0.0007368836751685824
ssVMarak/consolidate.js
p3221
(dp3222
sVhenrik/fuzzy_file_finder
p3223
(dp3224
VRuby
p3225
F0.001439049627125453
ssVjacobian/django-deployment-workshop
p3226
(dp3227
VPython
p3228
F0.00022185743499729033
ssVmmower/Freeman
p3229
(dp3230
VObjective-C
p3231
F0.030842060605354674
ssVrobbevan/jekyll-skeleton
p3232
(dp3233
VRuby
p3234
F0.00012733964906581427
ssVNZKoz/MailCore
p3235
(dp3236
VObjective-C
p3237
F0.12129090005774626
ssVerica/fringe-tv-show-code-breaking
p3238
(dp3239
sVjosh/gem_keychain
p3240
(dp3241
VRuby
p3242
F0.00019367529877390642
ssVnzakas/professional-javascript
p3243
(dp3244
VJavaScript
p3245
F0.00115314902687106
ssVadam/old-dotfiles
p3246
(dp3247
VVimL
p3248
F0.6661887122802864
ssVezmobius/bmhsearch
p3249
(dp3250
VC
p3251
F0.0014364024964114536
ssVleah/github-services
p3252
(dp3253
VRuby
p3254
F0.036480515607786444
ssVkafka399/kaggle-event
p3255
(dp3256
VRebol
p3257
F1.0
sVR
p3258
F0.7001116953169696
ssVMarak/css_to_json
p3259
(dp3260
VJavaScript
p3261
F0.0006467446769352533
ssVsstephenson/multi_json
p3262
(dp3263
VRuby
p3264
F0.0009284511121760635
ssVyinwang0/blog-en
p3265
(dp3266
sVjschairb/paperclip
p3267
(dp3268
VRuby
p3269
F0.02199491757330554
ssVkafka399/Garmin-Forerunner-610-Extractor
p3270
(dp3271
sVhassox/emacs-starter-kit
p3272
(dp3273
sVJakeWharton/is_awesome
p3274
(dp3275
VPython
p3276
F0.002781205705156194
ssVrmurphey/frontend-dev-baseline
p3277
(dp3278
VJavaScript
p3279
F0.001973365201144941
ssVautomatthew/patchboard
p3280
(dp3281
VCoffeeScript
p3282
F0.3616791913384474
ssVjschairb/dot_vim
p3283
(dp3284
VErlang
p3285
F0.0031786825375355065
sVVimL
p3286
F0.015358146461216377
ssVmoodlehq/mdlrelease
p3287
(dp3288
VShell
p3289
F0.0018221852926002921
sVPHP
p3290
F0.0006284429661125456
ssVvim-scripts/abnf
p3291
(dp3292
VVimL
p3293
F0.0018614519013290302
ssVlancecarlson/merb-core
p3294
(dp3295
VRuby
p3296
F0.08512165772168662
ssVjwhitmire/rails-diplomacy
p3297
(dp3298
sVjacobian/cheeserater
p3299
(dp3300
VPython
p3301
F0.0020063922392199165
ssVnorbauer/mlb-gameday-api
p3302
(dp3303
VRuby
p3304
F0.0018720292323229444
ssVfelixge/felixge.de
p3305
(dp3306
VGo
p3307
F0.5094160253508375
ssVsstephenson/jquery-pjax
p3308
(dp3309
VJavaScript
p3310
F6.514460096308207e-05
ssVhenrik/delishlist.com
p3311
(dp3312
VRuby
p3313
F0.004718758543814696
ssVweierophinney/Component_ZendLdap
p3314
(dp3315
VPHP
p3316
F0.018063242008378368
ssVkoush/android_build
p3317
(dp3318
VC
p3319
F0.061749072176478584
sVShell
p3320
F0.019949817905912662
sVJava
p3321
F0.014603103791658821
ssVcanadaduane/NewPing
p3322
(dp3323
VArduino
p3324
F1.0
ssVakitaonrails/fisl_10_demo
p3325
(dp3326
VRuby
p3327
F0.007535853798707881
ssVmmower/dg834statsd
p3328
(dp3329
VRuby
p3330
F0.0004121489712704641
ssVcommonsguy/cwac-anddown
p3331
(dp3332
VC
p3333
F0.019998120656169783
sVPerl
p3334
F0.020251548553435347
ssVphilsturgeon/heroku-buildpack-wordpress
p3335
(dp3336
sVPuneetpal/Ushahidi_Web
p3337
(dp3338
sVhenrik/ack.vim
p3339
(dp3340
VVimL
p3341
F0.0018606730511611098
ssVpsi/puppet-traktor
p3342
(dp3343
VPuppet
p3344
F0.025860465116279072
ssVhenrik/dotfiles
p3345
(dp3346
VShell
p3347
F0.02141609930038751
sVVimL
p3348
F0.02737580455222346
ssVmadrobby/creditcard_js_underscore
p3349
(dp3350
VJavaScript
p3351
F0.0005963098719198272
ssVNZKoz/xss_bareback
p3352
(dp3353
VRuby
p3354
F5.3440495372313485e-05
ssVNZKoz/rails
p3355
(dp3356
VRuby
p3357
F0.6959290369737553
ssVjdhuntington/memory-address-218
p3358
(dp3359
VRuby
p3360
F0.0024799613641337402
ssVkoush/android_packages_apps_Launcher2
p3361
(dp3362
VJava
p3363
F0.017104411847928574
ssVglassesfactory/kazitori-long-example
p3364
(dp3365
VCoffeeScript
p3366
F0.020689143374943368
ssVmathiasbynens/320andup
p3367
(dp3368
VJavaScript
p3369
F0.00029760886464863165
ssVweierophinney/Component_ZendJson
p3370
(dp3371
VPHP
p3372
F0.009017949182144692
ssVkamal/rufus-tokyo
p3373
(dp3374
VRuby
p3375
F0.026896564123324793
ssVvanpelt/async-observer
p3376
(dp3377
VRuby
p3378
F0.0018817005980747783
ssVginatrapani/jquery-unscroll-timeline
p3379
(dp3380
sVnzakas/rebuild
p3381
(dp3382
VJavaScript
p3383
F1.940259627898476e-05
ssVhassox/futures
p3384
(dp3385
VRuby
p3386
F0.00017470454287607818
ssVibdknox/assimilator
p3387
(dp3388
sVrtomayko/hem
p3389
(dp3390
VC
p3391
F0.00648209629816823
sVShell
p3392
F0.008515738525476995
ssVcreationix/benchmarks
p3393
(dp3394
sVpkrumins/heatwave
p3395
(dp3396
VJavaScript
p3397
F0.00016253300638451217
ssVjosh/closure-compiler
p3398
(dp3399
VJavaScript
p3400
F0.0010814856996295503
sVRuby
p3401
F0.0008395489423803587
ssVasseym/rapidsms-training
p3402
(dp3403
sVscharfie/acts_as_dotted_path
p3404
(dp3405
sVmathiasbynens/esmangle
p3406
(dp3407
sVNZKoz/cassandra
p3408
(dp3409
VRuby
p3410
F0.005426752113596391
ssVjschairb/alonzo
p3411
(dp3412
VRuby
p3413
F0.0016518196736658012
ssVdrnic/blinksale-greasemonkey
p3414
(dp3415
VRuby
p3416
F0.0011998693125704818
ssValexvollmer/OCMock
p3417
(dp3418
VObjective-C
p3419
F0.040059511356392116
ssVtopfunky/demo-vows-callbacks
p3420
(dp3421
VCoffeeScript
p3422
F0.0042964050806943
ssVfelixge/cakephp-mixpanel
p3423
(dp3424
VPHP
p3425
F0.00015699552954461543
ssVfelixge/contained
p3426
(dp3427
VShell
p3428
F0.004198670462500849
ssVphilsturgeon/codeigniter-curl
p3429
(dp3430
VPHP
p3431
F0.0007589397394473313
ssVsoffes/async_sinatra
p3432
(dp3433
VRuby
p3434
F0.002583494574425809
ssVayende/NHibernate-Warsaw-Course-Code
p3435
(dp3436
VASP
p3437
F0.006718780282964016
sVJavaScript
p3438
F0.005936904360985218
ssVcowboy/css-misc
p3439
(dp3440
VJavaScript
p3441
F0.0024032854380443276
ssVxhr/short.li
p3442
(dp3443
VRuby
p3444
F0.00028542928154771615
ssVmattslack/radiant-mediamaid-extension
p3445
(dp3446
VRuby
p3447
F0.001320017433256727
ssVmacournoyer/eventmachine
p3448
(dp3449
VRuby
p3450
F0.05423590320946752
sVC++
p3451
F0.011420458223398931
ssVmislav/freckle-apidocs
p3452
(dp3453
VRuby
p3454
F0.00029485266356232365
sVShell
p3455
F0.0002911940984662711
ssVkamal/webrat
p3456
(dp3457
VRuby
p3458
F0.03202263595553404
ssVmadrobby/fancy-zoom
p3459
(dp3460
sVmislav/faraday-stack
p3461
(dp3462
VRuby
p3463
F0.002547908908133805
ssVtteofili/jackrabbit-oak
p3464
(dp3465
VJava
p3466
F0.19510441118604052
ssVscharfie/addressable
p3467
(dp3468
sVmiyagawa/camp
p3469
(dp3470
VPerl
p3471
F0.09115158171761946
ssVlancecarlson/dm-more
p3472
(dp3473
VRuby
p3474
F0.08459915598735035
ssVnecolas/dotfiles
p3475
(dp3476
VShell
p3477
F0.002546792829443101
sVVimL
p3478
F0.003567912619241961
ssVibdknox/clojure-pong
p3479
(dp3480
VClojure
p3481
F0.005377510500283989
ssVjnunemaker/fancy-zoom
p3482
(dp3483
VJavaScript
p3484
F6.447054418821849e-05
ssVpsi/runit-gentoo
p3485
(dp3486
sVibdknox/clojail
p3487
(dp3488
VClojure
p3489
F0.01663144226651748
ssVleah/mightylemon
p3490
(dp3491
VPython
p3492
F0.0067946652062177235
ssVdesandro/bash-it
p3493
(dp3494
VShell
p3495
F0.04050833458664126
ssVjwhitmire/hubot
p3496
(dp3497
sVmmower/elysium
p3498
(dp3499
VObjective-C
p3500
F0.1447298805337744
ssVjoehewitt/up
p3501
(dp3502
VC
p3503
F0.11918286917421862
ssVyshamin/tsf
p3504
(dp3505
sVjazzyfox/FixedColumns
p3506
(dp3507
VJavaScript
p3508
F0.0003313543652130049
ssVlancecarlson/hamr
p3509
(dp3510
sVpsi/puppet-ruby
p3511
(dp3512
sVvim-scripts/Acpp
p3513
(dp3514
VVimL
p3515
F0.0020865395998579377
ssVibdknox/babbage
p3516
(dp3517
VClojure
p3518
F0.04924509275758706
ssVrobbevan/quicksilver.vim
p3519
(dp3520
VVimL
p3521
F0.016208650844585122
ssVjsierles/bcx-api
p3522
(dp3523
sVmiyagawa/contributing-test
p3524
(dp3525
sVchovy/nodejs-stream
p3526
(dp3527
VJavaScript
p3528
F5.687674001570467e-05
ssVMarak/javascript-fu
p3529
(dp3530
VJavaScript
p3531
F0.0019352255329975962
ssVDmitryBaranovskiy/rappar
p3532
(dp3533
VJavaScript
p3534
F0.00023010079879140768
ssVpsi/strap
p3535
(dp3536
VShell
p3537
F0.0015903677685465574
sVRuby
p3538
F0.0006931145455481029
ssValexvollmer/xcode_scripts
p3539
(dp3540
sVkamal/pickler
p3541
(dp3542
VRuby
p3543
F0.004399727465872788
ssVJakeWharton/NineOldAndroids
p3544
(dp3545
VJava
p3546
F0.014829866639485132
ssVrobbyrussell/builder
p3547
(dp3548
sVchovy/boilerplates
p3549
(dp3550
VJavaScript
p3551
F3.976081735271284e-06
ssVantirez/gif-pure-tcl
p3552
(dp3553
VTcl
p3554
F0.0594569019415671
ssVayende/nagarot
p3555
(dp3556
VJavaScript
p3557
F0.0002010395661941244
ssVcanadaduane/Adafruit-GFX-Library
p3558
(dp3559
sVmacournoyer/libuv
p3560
(dp3561
sVcreationix/embedder
p3562
(dp3563
VJavaScript
p3564
F2.0179041424713704e-05
ssVrobbyrussell/oh-my-zsh
p3565
(dp3566
VShell
p3567
F0.08787235245365695
ssVstepbystep55/morrison
p3568
(dp3569
VJava
p3570
F0.0005950373619260148
ssVtopfunky/async_observer
p3571
(dp3572
VRuby
p3573
F0.0021575825057392737
ssVnzakas/yui3-gallery
p3574
(dp3575
VJavaScript
p3576
F0.020683363877775245
ssVjoehewitt/mkdir
p3577
(dp3578
VJavaScript
p3579
F7.29517142415654e-06
ssVezmobius/super-nginx
p3580
(dp3581
VC
p3582
F0.4810374043539444
ssVtopfunky/cascadiajs.github.com
p3583
(dp3584
VJavaScript
p3585
F0.0004275397072767671
ssVrbazinet/tracker_ipad
p3586
(dp3587
sVpsi/puppet-quicksilver
p3588
(dp3589
VPuppet
p3590
F0.02958139534883721
ssVlancecarlson/corpus
p3591
(dp3592
VCoffeeScript
p3593
F0.0756206352430203
ssVkoush/AndroidAsync
p3594
(dp3595
VJava
p3596
F0.014603236169269927
ssVmoodlehq/moodle-enrol_groupsync
p3597
(dp3598
VPHP
p3599
F0.003631404912592893
ssValexvollmer/pci4r
p3600
(dp3601
VRuby
p3602
F0.01282088320647932
ssVhassox/amqp
p3603
(dp3604
VRuby
p3605
F0.02376725734326343
ssVcommonsguy/cwac-locpoll
p3606
(dp3607
VPerl
p3608
F0.020251548553435347
ssVjacobian/gistio
p3609
(dp3610
sVcommonsguy/cwac-touchlist
p3611
(dp3612
VJava
p3613
F0.0005882861037595572
ssVtjogin/naive-search
p3614
(dp3615
VRuby
p3616
F0.0033681151190104956
ssVnextgen666/nxgsrtg
p3617
(dp3618
VPHP
p3619
F0.023020276003363885
ssVmacournoyer/preforker
p3620
(dp3621
VRuby
p3622
F0.0036101472465435718
ssVcommonsguy/cwac-viewswiper
p3623
(dp3624
VJava
p3625
F0.000110436022066024
ssVscharfie/backbone.bootstrap-modal
p3626
(dp3627
VJavaScript
p3628
F6.605756393663149e-05
ssVpsi/puppet-vagrant
p3629
(dp3630
VPuppet
p3631
F0.03311627906976744
ssVmathiasbynens/jquery
p3632
(dp3633
VJavaScript
p3634
F0.006274205784072652
ssVzybl880506/Lik_note
p3635
(dp3636
VShell
p3637
F0.11110957040159541
ssVasseym/sample
p3638
(dp3639
sVphilsturgeon/fig-standards
p3640
(dp3641
sVjschairb/photos
p3642
(dp3643
VRuby
p3644
F0.010555179791309285
ssVsoffes/bin
p3645
(dp3646
VShell
p3647
F0.0001863073352824494
ssVkoush/android
p3648
(dp3649
sVmadrobby/cijoe
p3650
(dp3651
sVded/CalEnder
p3652
(dp3653
VJavaScript
p3654
F5.8386968485968654e-05
ssVjschairb/boomtown
p3655
(dp3656
VRuby
p3657
F0.0019620473289361684
ssVcdcarter/Effe
p3658
(dp3659
VC
p3660
F0.005818586251304348
ssVGreenRover/RedmineThemePixelCookers
p3661
(dp3662
VJavaScript
p3663
F3.125405020664959e-05
ssVmoodlehq/moodle-block_unanswered_discussions
p3664
(dp3665
VPHP
p3666
F0.000827068425702749
ssVrobbyrussell/vapor.js
p3667
(dp3668
sVchovy/node-startup
p3669
(dp3670
VShell
p3671
F0.0006147430967621279
ssVcanadaduane/Bookmarkly
p3672
(dp3673
sVweierophinney/Component_ZendDi
p3674
(dp3675
VPHP
p3676
F0.01142618686968964
ssVmoodlehq/moodle-filter_moodledocs
p3677
(dp3678
VPHP
p3679
F0.0007930424865695471
ssVweierophinney/Component_ZendDb
p3680
(dp3681
VPHP
p3682
F0.04199077397797562
ssVdaikini/Specs
p3683
(dp3684
VRuby
p3685
F0.3091046609163371
ssVnecolas/starter-kit
p3686
(dp3687
VJavaScript
p3688
F0.007188525403536033
ssVnzakas/buildr
p3689
(dp3690
VJavaScript
p3691
F0.006990531891375153
ssVzybl880506/noteC
p3692
(dp3693
VC
p3694
F0.4974070466866069
ssVguille/ios6-bugs
p3695
(dp3696
VJavaScript
p3697
F3.6859813511527774e-06
ssVrobbyrussell/docrails
p3698
(dp3699
VRuby
p3700
F0.6889820205590917
ssVDmitryBaranovskiy/web-anim-js
p3701
(dp3702
sVjnunemaker/cassandra-cql
p3703
(dp3704
VRuby
p3705
F0.01115877220771862
ssVweierophinney/Component_ZendBarcode
p3706
(dp3707
VPHP
p3708
F0.013724819556911608
ssVttomczyk/ttomczyk
p3709
(dp3710
sVpkrumins/hwnd-finder
p3711
(dp3712
VC++
p3713
F0.0001430706360239142
ssVJeffreyWay/PHPUnit-Wrappers
p3714
(dp3715
VPHP
p3716
F0.00025070127614169505
ssVttomczyk/devenv-latex
p3717
(dp3718
sVcowboy/grunt-gruntfile-example
p3719
(dp3720
VJavaScript
p3721
F1.2363395781991609e-05
ssVweierophinney/Component_ZendConfig
p3722
(dp3723
VPHP
p3724
F0.00529207044306458
ssVouterim/fog
p3725
(dp3726
VRuby
p3727
F0.19558204572944107
ssVweierophinney/Component_ZendInputFilter
p3728
(dp3729
VPHP
p3730
F0.0037803356032910383
ssVfelixge/beachwhenever.com
p3731
(dp3732
sVjoehewitt/scrollability
p3733
(dp3734
VJavaScript
p3735
F0.0002148705286251861
ssVdanielharan/canadian-postal-code-to-electoral-districts
p3736
(dp3737
sVcanadaduane/omniauth-singly
p3738
(dp3739
sVrmurphey/dojo
p3740
(dp3741
sVsoffes/hands
p3742
(dp3743
VRuby
p3744
F0.003332157477112651
ssVsstephenson/node-coffee-project
p3745
(dp3746
VCoffeeScript
p3747
F0.005147874451231897
ssVcdcarter/commonjs-date-formatting
p3748
(dp3749
sVpsi/homebrew
p3750
(dp3751
VRuby
p3752
F0.28757806063078384
ssVmacournoyer/rest-client
p3753
(dp3754
VRuby
p3755
F0.003672639148324653
ssVjwhitmire/llor-nu-legacy
p3756
(dp3757
VRuby
p3758
F0.02003906983780004
ssVchovy/offline-app
p3759
(dp3760
VPHP
p3761
F1.3134166121393952e-05
sVJavaScript
p3762
F2.9914469021161202e-05
ssVmoodlehq/moodle-local_chatlogs
p3763
(dp3764
VPHP
p3765
F0.003647534590285833
ssVMarak/pdf.js
p3766
(dp3767
VJavaScript
p3768
F0.00018193560266349695
ssVcanadaduane/cinemaker.us
p3769
(dp3770
VJavaScript
p3771
F0.0006084855556885656
ssVguille/gitfollow
p3772
(dp3773
VJavaScript
p3774
F5.5520094101738714e-05
ssVcommonsguy/cwac-wakeful
p3775
(dp3776
VPerl
p3777
F0.020251548553435347
ssVJakeWharton/ActivityCompat2
p3778
(dp3779
VJava
p3780
F0.0002821297836718174
ssVmislav/diveintohtml5
p3781
(dp3782
VPython
p3783
F0.0010043211573127844
sVJavaScript
p3784
F0.0009987047017849108
ssVleah/django-flash
p3785
(dp3786
VPython
p3787
F0.00669982452786949
ssVerica/sleepnow
p3788
(dp3789
VC
p3790
F0.0001069225285603685
ssVshane/youtube-g
p3791
(dp3792
sVasseym/rapidsms
p3793
(dp3794
sVJeffreyWay/My-Starting-Template
p3795
(dp3796
VCoffeeScript
p3797
F0.0
ssVNZKoz/dalli
p3798
(dp3799
sValexvollmer/daemon-spawn
p3800
(dp3801
VRuby
p3802
F0.00282490674261582
ssVsebastianbergmann/php-invoker
p3803
(dp3804
VPHP
p3805
F0.0010709337908221981
ssVjnunemaker/adapter-memcached
p3806
(dp3807
VRuby
p3808
F6.993141389787659e-05
ssVjwhitmire/rubythere
p3809
(dp3810
sVakitaonrails/demo_responds_to_parent
p3811
(dp3812
VRuby
p3813
F0.0021507629529655447
ssVjoaoleal/CppADCodeGen
p3814
(dp3815
VC++
p3816
F0.029966839855101294
ssVnextgen666/Google-plus-buttons
p3817
(dp3818
sVjazzyfox/try_git
p3819
(dp3820
sVup_the_irons/node-autocomplete
p3821
(dp3822
VShell
p3823
F8.568715229593569e-05
sVJavaScript
p3824
F7.983733218226051e-05
ssVmiyagawa/CGI-PSGI
p3825
(dp3826
VPerl
p3827
F0.0428869957171844
ssVfelixge/fab
p3828
(dp3829
VJavaScript
p3830
F0.00017938442575610183
ssVweierophinney/Component_ZendI18n
p3831
(dp3832
VPHP
p3833
F0.0085439670819393
ssVcowboy/javascript-getclass
p3834
(dp3835
VJavaScript
p3836
F0.00011104872056771621
ssVfelixge/ardrone
p3837
(dp3838
VGo
p3839
F1.0
ssVphilsturgeon/codeigniter-akismet
p3840
(dp3841
sVvim-scripts/A-soft-mellow-color-scheme
p3842
(dp3843
VVimL
p3844
F0.0008388216308499437
ssVnathanmarz/serializable-fn
p3845
(dp3846
VClojure
p3847
F0.005290566767505146
ssVagentzh/makefile-graphviz-pm
p3848
(dp3849
VPerl
p3850
F0.17807383845119693
ssVphilsturgeon/fuelphp-gettingstarted
p3851
(dp3852
VPHP
p3853
F0.009553761713506356
ssVhenrik/action_mailer_tls
p3854
(dp3855
VRuby
p3856
F0.0001831359899417796
ssVMarak/asciimo
p3857
(dp3858
VPerl
p3859
F0.006980525848450377
ssVcommonsguy/cw-omnibus
p3860
(dp3861
VJava
p3862
F0.09732706437093001
ssVcanadaduane/bio-hmm
p3863
(dp3864
VPerl
p3865
F0.007317516751479016
ssVjdhuntington/synchronous_command_runner
p3866
(dp3867
sVJeffreyWay/Reminders
p3868
(dp3869
VPHP
p3870
F0.08881968318394308
ssVup_the_irons/jenkins-hipchat-plugin
p3871
(dp3872
VJava
p3873
F0.0004751032462630628
ssVezmobius/ohai
p3874
(dp3875
sVjvantuyl/requests
p3876
(dp3877
VPython
p3878
F0.07429062716464285
ssVmmower/lmdial
p3879
(dp3880
VObjective-C
p3881
F0.011248649861861436
ssVezmobius/ez-where
p3882
(dp3883
VRuby
p3884
F0.010463797784141316
ssVmathiasbynens/grunt-esmangle
p3885
(dp3886
VJavaScript
p3887
F4.623688180994653e-05
ssVcanadaduane/mycast
p3888
(dp3889
VJavaScript
p3890
F5.870266596280349e-05
ssVpkrumins/http-async-retry
p3891
(dp3892
VPerl
p3893
F0.0033752580922392244
ssVezmobius/chef-deploy
p3894
(dp3895
VRuby
p3896
F0.0019635352313595276
ssVtteofili/nlp-utils
p3897
(dp3898
VJava
p3899
F0.0023120411667895023
ssVcreationix/corn
p3900
(dp3901
VJavaScript
p3902
F1.9923070497550315e-05
ssVJeffreyWay/Backbone-Starter
p3903
(dp3904
VCoffeeScript
p3905
F0.0005468151920883654
ssVibdknox/dommy
p3906
(dp3907
VClojure
p3908
F0.007242331684652644
ssVrobbevan/mongodb.smf
p3909
(dp3910
sVkafka399/haxogreen.lu
p3911
(dp3912
VR
p3913
F0.0475386166126352
ssVhhyou/chosen
p3914
(dp3915
sVhenrik/DeepSleepPreventerLibrary
p3916
(dp3917
VObjective-C
p3918
F0.0026091097532948745
ssVentryway/headwater
p3919
(dp3920
VRuby
p3921
F0.005695070517275477
ssVantirez/aspark
p3922
(dp3923
VC
p3924
F0.0024092007163809413
ssVnorbauer/has_accent
p3925
(dp3926
VRuby
p3927
F0.0016838095757680212
ssVjosh/git
p3928
(dp3929
VShell
p3930
F1.0
sVAssembly
p3931
F1.0
sVTcl
p3932
F1.0
ssVjacobian/django-buildmaster
p3933
(dp3934
VPython
p3935
F0.011956788201864615
ssVmoodlehq/moodle-behat-contexts
p3936
(dp3937
VPHP
p3938
F0.001617269016678778
ssVscharfie/gabby
p3939
(dp3940
VRuby
p3941
F0.005304620123012333
ssVlancecarlson/amfruby
p3942
(dp3943
VRuby
p3944
F0.002731292881812811
ssVtopfunky/CocoaHelpDemo
p3945
(dp3946
VObjective-C
p3947
F0.00030060313263407634
ssVibdknox/analyze
p3948
(dp3949
sVdesandro/jquery-bridget
p3950
(dp3951
VJavaScript
p3952
F6.164633162518245e-05
ssVMarak/play.js
p3953
(dp3954
VJavaScript
p3955
F5.472658422753221e-05
ssVcreationix/couch-client
p3956
(dp3957
VJavaScript
p3958
F0.00013220898387988954
ssVhassox/dm-pagination
p3959
(dp3960
VRuby
p3961
F0.0031749357877110425
ssVcanadaduane/Perspective-Calendar
p3962
(dp3963
VJavaScript
p3964
F0.000742290091681107
ssVginatrapani/todo-cli-plugins
p3965
(dp3966
sVjdhuntington/dieselisation
p3967
(dp3968
VRuby
p3969
F0.010875450787937328
ssVjazzyfox/ruby_koans
p3970
(dp3971
VRuby
p3972
F0.011024736997747689
ssVrmurphey/blog-octopress
p3973
(dp3974
VJavaScript
p3975
F0.001791190692282758
sVRuby
p3976
F0.011489210537572946
ssVagentzh/mockeagain
p3977
(dp3978
VC
p3979
F0.003159954298818621
ssVJakeWharton/HanselAndGretel
p3980
(dp3981
VJava
p3982
F0.0010767263943416514
ssVwaterschaats/A2
p3983
(dp3984
sVwaterschaats/A1
p3985
(dp3986
sVfelixge/fab-json
p3987
(dp3988
VJavaScript
p3989
F5.085289086312629e-06
ssVJeffreyWay/Capitalizr
p3990
(dp3991
VPHP
p3992
F0.00026468033014224307
ssVnecolas/suit-utils-display
p3993
(dp3994
sVmacournoyer/peg
p3995
(dp3996
VVisual Basic
p3997
F0.003999196002190201
sVC
p3998
F0.01108599670737649
ssVayende/Macto
p3999
(dp4000
VASP
p4001
F0.007429420505200594
sVJavaScript
p4002
F0.015137796402601654
ssVkoush/android_device_motorola_targa
p4003
(dp4004
VRust
p4005
F1.0
ssVmislav/contacts
p4006
(dp4007
VRuby
p4008
F0.0060303445300057225
ssVcreationix/Calix
p4009
(dp4010
VPython
p4011
F0.0016944192842262625
ssVmiyagawa/AnyEvent-ReverseHTTP
p4012
(dp4013
VPerl
p4014
F0.013256758539777409
ssVezmobius/redactor
p4015
(dp4016
VRuby
p4017
F0.0001403587952702062
ssVmiyagawa/catalyst-plugin-authentication-credential-openid
p4018
(dp4019
VPerl
p4020
F0.010978058147869469
ssVibdknox/ChromaShift
p4021
(dp4022
VClojure
p4023
F0.25137220774514274
ssVtopfunky/gfxCardStatus
p4024
(dp4025
VObjective-C
p4026
F0.014448214054518028
sVC
p4027
F0.01461427615826043
ssVpsi/psi.github.com
p4028
(dp4029
sVrmurphey/blog-jekyll
p4030
(dp4031
VRuby
p4032
F7.191528379568868e-06
ssVginatrapani/todo.txt-html5
p4033
(dp4034
VGroovy
p4035
F0.23703703703703705
ssVfelixge/cakephp1x
p4036
(dp4037
sVdanahern/app_sleuth
p4038
(dp4039
VJavaScript
p4040
F0.0004447836154033406
sVRuby
p4041
F0.001938612865768263
ssVjvantuyl/shovel
p4042
(dp4043
VPython
p4044
F0.0037082367722848313
ssVjschairb/collaboration
p4045
(dp4046
VRuby
p4047
F0.006398228404181254
ssVgarybernhardt/dingus
p4048
(dp4049
VPython
p4050
F0.00564296410983473
ssVJeffreyWay/Laravel-Model-Validation
p4051
(dp4052
VPHP
p4053
F0.00010338355321284363
ssVouterim/travis_reprise
p4054
(dp4055
VRuby
p4056
F0.00038722660567919957
ssVjvantuyl/erl-class
p4057
(dp4058
VErlang
p4059
F0.03541638486856937
ssVnathanmarz/cascalog-demo
p4060
(dp4061
VClojure
p4062
F0.0015519862580148714
ssVtjogin/tjogin.github.com
p4063
(dp4064
sVcreationix/builder
p4065
(dp4066
VJavaScript
p4067
F2.4658532650072978e-06
ssVpkrumins/invoice
p4068
(dp4069
VJavaScript
p4070
F2.1126133855218238e-05
ssVguille/express
p4071
(dp4072
VJavaScript
p4073
F0.0021975872009758293
ssVjvantuyl/ansible
p4074
(dp4075
VPython
p4076
F0.04888750084237198
ssVmadrobby/dom-monster
p4077
(dp4078
VJavaScript
p4079
F0.0004473603894034521
sVRuby
p4080
F0.0002944806879564838
ssVmacournoyer/invisible
p4081
(dp4082
VRuby
p4083
F0.0036864022457407243
ssVweierophinney/bugapp
p4084
(dp4085
VPHP
p4086
F0.005870511408329012
ssVdesandro/dotvim
p4087
(dp4088
VVimL
p4089
F0.015321540503324132
ssVmacournoyer/pusher
p4090
(dp4091
VRuby
p4092
F0.0018895120857974135
ssVlifo/journey
p4093
(dp4094
VRuby
p4095
F0.011587784073120486
ssVMarak/node-raps
p4096
(dp4097
sVantirez/Bigdis
p4098
(dp4099
VTcl
p4100
F0.04062927727741259
ssVjoehewitt/copper
p4101
(dp4102
VJavaScript
p4103
F8.208134397705954e-05
ssVkoush/android_device_asus_tf201
p4104
(dp4105
VPython
p4106
F0.006369738465860337
sVShell
p4107
F0.0018303629046451326
ssVdesandro/jshint.tmbundle
p4108
(dp4109
VJavaScript
p4110
F0.0009891825832944328
ssVcommonsguy/cwac-parcel
p4111
(dp4112
VJava
p4113
F0.00013509135213470483
ssVpsi/jh_presskit
p4114
(dp4115
sVcloudwu/lua-trace
p4116
(dp4117
VLua
p4118
F0.017915504619138923
ssVpkrumins/gnu-coreutils-cheat-sheet
p4119
(dp4120
sVantirez/lua-cmsgpack
p4121
(dp4122
VLua
p4123
F0.027987188426006622
ssVjsierles/docrails
p4124
(dp4125
sVglassesfactory/GFWindowObserver
p4126
(dp4127
VActionScript
p4128
F0.017779202148765376
ssVhornbeck/resumatoR
p4129
(dp4130
VR
p4131
F0.1786035361102787
ssVJakeWharton/Android-ViewPagerIndicator
p4132
(dp4133
VJava
p4134
F0.004648770758050462
ssVantirez/redis
p4135
(dp4136
VTcl
p4137
F0.9561871609861606
ssVmislav/facebook
p4138
(dp4139
VRuby
p4140
F0.0006079321318107959
ssVayende/IntroToNHibernate
p4141
(dp4142
VC#
p4143
F0.0001574413364283547
ssVsebastianbergmann/phploc
p4144
(dp4145
VPHP
p4146
F0.0049167866087421784
ssVantirez/redis-rb
p4147
(dp4148
VRuby
p4149
F0.029435173641312602
ssVJeffreyWay/Blog-Expenses
p4150
(dp4151
VPHP
p4152
F0.08350188206455882
ssVxhr/creamy
p4153
(dp4154
VCoffeeScript
p4155
F0.06953536331963692
ssVsstephenson/kinect
p4156
(dp4157
VC
p4158
F0.0023782063024270924
ssVcdcarter/gingko
p4159
(dp4160
VRuby
p4161
F0.005889861742866903
ssVjazzyfox/oh-my-zsh
p4162
(dp4163
sVcreationix/divclock
p4164
(dp4165
VShell
p4166
F3.164380313003434e-05
sVJavaScript
p4167
F1.3225164570108346e-05
ssVerica/App-Signer
p4168
(dp4169
sVmdo/feedback
p4170
(dp4171
sVkoush/android-websockets
p4172
(dp4173
VJava
p4174
F0.0010916850643967438
ssVelbowdonkey/impsock
p4175
(dp4176
VAssembly
p4177
F0.30780599220744326
sVC++
p4178
F0.1725322915897884
ssVibdknox/fs
p4179
(dp4180
sVakitaonrails/docrails
p4181
(dp4182
sVjdhuntington/less-css-mode
p4183
(dp4184
VEmacs Lisp
p4185
F8.509402141750768e-05
ssVagentzh/makefile-dom-pm
p4186
(dp4187
VPerl
p4188
F1.0
ssVdaikini/ssconnection
p4189
(dp4190
VObjective-C
p4191
F0.002849681857951356
ssVsstephenson/bats
p4192
(dp4193
VShell
p4194
F0.002006003789434312
ssVjacobian/django-storymarket
p4195
(dp4196
VPython
p4197
F0.004669018970498249
ssVhenrik/hasmygembuiltyet
p4198
(dp4199
VRuby
p4200
F0.0018185887369506308
ssVibdknox/autodoc
p4201
(dp4202
sVded/bowser
p4203
(dp4204
VJavaScript
p4205
F7.851481572524968e-05
ssVmathiasbynens/dotfiles
p4206
(dp4207
VVimL
p4208
F0.012434342930844337
ssVgarybernhardt/mote
p4209
(dp4210
VPython
p4211
F0.004159039379807216
ssVJakeWharton/BreakoutWallpaper
p4212
(dp4213
VJava
p4214
F0.003362192755701421
ssVkafka399/rstudio
p4215
(dp4216
sVup_the_irons/git-winner
p4217
(dp4218
VShell
p4219
F0.0008216722363315659
ssVautomatthew/fyte
p4220
(dp4221
sVjsierles/asterisk-cookbook
p4222
(dp4223
sVerica/MPMediaItem-Properties
p4224
(dp4225
VObjective-C
p4226
F0.0028882092341160808
ssVagentzh/memc-nginx-module
p4227
(dp4228
VPerl
p4229
F0.13030314917107372
ssVcdcarter/public
p4230
(dp4231
sVxhr/compass-rails
p4232
(dp4233
VRuby
p4234
F0.004850933875756428
ssVdesandro/html5-boilerplate
p4235
(dp4236
VJavaScript
p4237
F0.001685935447033173
ssVdrnic/cf-docs
p4238
(dp4239
VRuby
p4240
F0.0005765621890516419
ssVmiyagawa/AnyEvent-Redis
p4241
(dp4242
VPerl
p4243
F0.06024291873348477
ssVgarybernhardt/rouge
p4244
(dp4245
VRuby
p4246
F0.04693476601804454
ssVerica/NSArray-Utilities
p4247
(dp4248
VObjective-C
p4249
F0.004146620857915068
ssVjvantuyl/erl-skel
p4250
(dp4251
VErlang
p4252
F0.005260231149585945
ssVsstephenson/nodeunit
p4253
(dp4254
VJavaScript
p4255
F0.0002267134501886122
ssVayende/nhibernate-blog-model
p4256
(dp4257
VC#
p4258
F0.0006353569721248665
ssVasseym/rapidsms-message-classifier
p4259
(dp4260
VPython
p4261
F0.004760372031967722
ssVup_the_irons/immutable
p4262
(dp4263
VRuby
p4264
F0.0009479178355483448
ssVasseym/bootstrap
p4265
(dp4266
sVhassox/abr_lookup
p4267
(dp4268
VRuby
p4269
F0.0017868468185856373
ssVjacobian/django-markupfield
p4270
(dp4271
VPython
p4272
F0.002246362781232706
ssVguille/APNG
p4273
(dp4274
VJavaScript
p4275
F0.0005818901763562897
ssVnecolas/css3-github-buttons
p4276
(dp4277
sVleah/solitaire-anywhere
p4278
(dp4279
VJavaScript
p4280
F0.0002583770538787232
ssVsstephenson/BubbleWrap
p4281
(dp4282
VRuby
p4283
F0.022707746825963156
ssVcreationix/coffeepot
p4284
(dp4285
VCoffeeScript
p4286
F0.06564906963300889
ssVfelixge/campusparty-2012-code
p4287
(dp4288
VJavaScript
p4289
F7.030668132754373e-06
ssVmoodlehq/moodle-behat-features
p4290
(dp4291
VPHP
p4292
F9.224639480581366e-05
ssVvim-scripts/a-hrefhttp-allthingsb2b.typepad.com
p4293
(dp4294
sVchovy/express-template-demo
p4295
(dp4296
VJavaScript
p4297
F1.979508503396862e-05
ssVkafka399/candidateFeatures
p4298
(dp4299
VR
p4300
F0.2378565396245948
ssVvanpelt/vanpelt.github.com
p4301
(dp4302
sVjnunemaker/clostar
p4303
(dp4304
VClojure
p4305
F0.006645913928954783
ssVkafka399/twittrack
p4306
(dp4307
VShell
p4308
F7.679844355154402e-05
ssVrbazinet/ruby-gpu-examples
p4309
(dp4310
sVvim-scripts/ACScope
p4311
(dp4312
VVimL
p4313
F0.0103555918326656
ssVnzakas/nodejs-yui3
p4314
(dp4315
sVrichhickey/clojure-contrib
p4316
(dp4317
VClojure
p4318
F0.7266781562403255
ssVmdo/code-guide
p4319
(dp4320
sVnextgen666/phpbb3
p4321
(dp4322
VPHP
p4323
F0.5740808829600631
ssVayende/NHibernate-NewYork-Course-Code-Oct-2011
p4324
(dp4325
VASP
p4326
F0.0063311583435622446
sVJavaScript
p4327
F0.005936904360985218
ssVvanpelt/shortr
p4328
(dp4329
VRuby
p4330
F0.00020979424169362973
ssVlancecarlson/cheap_chronic
p4331
(dp4332
VRuby
p4333
F0.0016566553565417182
ssVvim-scripts/4NT-Bundle
p4334
(dp4335
VVimL
p4336
F0.01966363018947867
ssVweierophinney/Component_ZendAuthentication
p4337
(dp4338
VPHP
p4339
F0.007953083222454601
ssVdesandro/issues-agreement
p4340
(dp4341
sVkafka399/newsCrawl
p4342
(dp4343
VPython
p4344
F0.0019613907311068763
ssVmathiasbynens/acorn
p4345
(dp4346
sVjdhuntington/emacs-starter-kit
p4347
(dp4348
VEmacs Lisp
p4349
F0.033402882695600704
sVHaskell
p4350
F0.033542744020685196
ssVcommonsguy/cw-lunchlist
p4351
(dp4352
VJava
p4353
F0.015304473469706542
ssVhede/sample_app
p4354
(dp4355
VRuby
p4356
F0.001482446781140093
ssVdesandro/dropshado.ws
p4357
(dp4358
VShell
p4359
F0.00021901778346181073
sVJavaScript
p4360
F0.0005712929799717254
ssVtopfunky/categories
p4361
(dp4362
VObjective-C
p4363
F0.013633315249359481
ssVmacournoyer/mtlrb-jan12
p4364
(dp4365
VRuby
p4366
F0.0002947286716937103
sVIo
p4367
F7.342187733174153e-05
ssVpkrumins/digpicz
p4368
(dp4369
sVentryway/blind-date
p4370
(dp4371
sVcanadaduane/casperjs
p4372
(dp4373
VJavaScript
p4374
F0.0010159998040969172
ssVrobbyrussell/GoogleAnalyticsProxy
p4375
(dp4376
sVfelixge/couchdb-benchmarks
p4377
(dp4378
VShell
p4379
F0.00028159429302232806
sVPHP
p4380
F0.00031583445082556685
ssVdaikini/octave-ruby
p4381
(dp4382
VRuby
p4383
F0.005757066451582106
sVC++
p4384
F0.0008137573804999061
ssVerica/iOS-6-Cookbook
p4385
(dp4386
VObjective-C
p4387
F0.495014960717756
ssVnzakas/fireunit
p4388
(dp4389
VJavaScript
p4390
F0.0013717481986685928
ssVasseym/rapidsms-httprouter-1
p4391
(dp4392
sVrtomayko/rdiscount
p4393
(dp4394
VC
p4395
F0.018080074806412005
sVPerl
p4396
F0.012852012852012854
ssVkoush/android_system_core
p4397
(dp4398
VC
p4399
F0.30235509988482867
sVC++
p4400
F0.04951333551932644
ssVnecolas/suit-utils
p4401
(dp4402
sVakitaonrails/answers_demo
p4403
(dp4404
VRuby
p4405
F0.007844097584080436
ssVweierophinney/Component_ZendConsole
p4406
(dp4407
VPHP
p4408
F0.010514476040093463
ssVmathiasbynens/captured
p4409
(dp4410
VRuby
p4411
F0.0035679900112150645
ssVrtomayko/redcarpet
p4412
(dp4413
VC
p4414
F0.01451063346186449
sVPerl
p4415
F0.012852012852012854
ssVautomatthew/cassie
p4416
(dp4417
VRuby
p4418
F0.001998996905782919
ssVmerb/merb
p4419
(dp4420
VRuby
p4421
F0.20389495656874823
ssVJakeWharton/guiceymongo-generator-maven-plugin
p4422
(dp4423
VJava
p4424
F0.00023089964817340407
ssVibdknox/clj-socketio
p4425
(dp4426
VClojure
p4427
F0.0018233807136049066
ssVdanielharan/biximo
p4428
(dp4429
VRuby
p4430
F0.0030909932926598675
ssVdesandro/bootstrap
p4431
(dp4432
VJavaScript
p4433
F0.0016337685720772747
ssVlifesinger/backbone
p4434
(dp4435
VCoffeeScript
p4436
F0.00340587748215039
sVJavaScript
p4437
F0.0011398812004797577
ssVkoush/android_device_dell_streak7
p4438
(dp4439
sVagentzh/lua-resty-redis
p4440
(dp4441
VLua
p4442
F0.045488713613386786
sVPerl
p4443
F0.0710533729401654
ssVdesandro/dotfiles
p4444
(dp4445
VShell
p4446
F0.015480930697582307
ssVJeffreyWay/Backbone--RequireJS--and-Testem-Boilerplate-Project
p4447
(dp4448
VShell
p4449
F4.266580197308001e-05
sVJavaScript
p4450
F8.762738073226627e-06
ssVkafka399/votingDistance
p4451
(dp4452
VR
p4453
F0.02492712561636745
ssVnorbauer/salty_slugs
p4454
(dp4455
VRuby
p4456
F0.0008184703247161051
ssVcreationix/creationix
p4457
(dp4458
VJavaScript
p4459
F0.00015034879025153494
ssVmacournoyer/node-cusec
p4460
(dp4461
VJavaScript
p4462
F4.151848438590143e-05
ssVdanielharan/validations
p4463
(dp4464
VRuby
p4465
F0.0002823294848323847
ssVNZKoz/ocdtv
p4466
(dp4467
VPython
p4468
F0.0021220461150704313
ssVsstephenson/node
p4469
(dp4470
VC++
p4471
F1.0
ssVcreationix/conductor
p4472
(dp4473
VJavaScript
p4474
F0.00010025527980566004
ssVJeffreyWay/RequireJS-and-Backbone-Starter
p4475
(dp4476
sVjosh/emacs
p4477
(dp4478
VEmacs Lisp
p4479
F1.0
sVDelphi
p4480
F1.0
sVProlog
p4481
F1.0
ssVpkrumins/ed-cheat-sheet
p4482
(dp4483
sVmiyagawa/App-PAUSE-Comaint
p4484
(dp4485
VPerl
p4486
F0.008729669107027598
ssVantirez/iconping
p4487
(dp4488
VObjective-C
p4489
F0.006149596425734674
ssVezmobius/chef-101
p4490
(dp4491
VRuby
p4492
F0.0004736489381026392
ssVcanadaduane/MendelMax
p4493
(dp4494
sVnextgen666/customisation-db
p4495
(dp4496
VPHP
p4497
F0.26451480892591783
ssVmerb/merb_cucumber
p4498
(dp4499
VRuby
p4500
F0.0020944706446151262
ssVvim-scripts/A-Silly-Girl
p4501
(dp4502
sVmerb/merb-auth
p4503
(dp4504
VRuby
p4505
F0.015329362700394108
ssVdrnic/appscrolls
p4506
(dp4507
VRuby
p4508
F0.010814074812973766
ssVautomatthew/moonstone
p4509
(dp4510
VRuby
p4511
F0.006164379739976653
ssVadam/blog
p4512
(dp4513
sVglassesfactory/webgl-example
p4514
(dp4515
VCoffeeScript
p4516
F0.04940865842798444
ssVlifo/docrails
p4517
(dp4518
VRuby
p4519
F0.9931129956497453
ssVrmurphey/jmvc-sandbox
p4520
(dp4521
sVcdcarter/couchapp
p4522
(dp4523
VPython
p4524
F0.07409453309304027
ssVouterim/stunnel
p4525
(dp4526
VShell
p4527
F0.08667628780501159
sVPerl
p4528
F0.1133644529870945
ssVzybl880506/iptables-1.2.7
p4529
(dp4530
VC
p4531
F0.10723755643976185
ssVsebastianbergmann/phpunit-documentation
p4532
(dp4533
VXML
p4534
F1.0
sVVerilog
p4535
F1.0
sVDOT
p4536
F1.0
ssVdrnic/cassandra-boshrelease
p4537
(dp4538
VShell
p4539
F0.0028443867982053343
ssVmislav/by_star
p4540
(dp4541
VRuby
p4542
F0.0014498369196948066
ssVjnunemaker/googlebase
p4543
(dp4544
VRuby
p4545
F0.005710445508983521
ssVcommonsguy/cwac-loaderex
p4546
(dp4547
VJava
p4548
F0.0021739382240021127
sVPerl
p4549
F0.020251548553435347
ssVnzakas/props2js
p4550
(dp4551
VJava
p4552
F0.00040649854930685427
ssVtopfunky/ember-tunes-noodling
p4553
(dp4554
VJavaScript
p4555
F0.0006874781838111869
ssVcdcarter/backpacking
p4556
(dp4557
VIo
p4558
F0.010049843306969109
ssVdrnic/carrierwave
p4559
(dp4560
sVjosh/eve
p4561
(dp4562
VCoffeeScript
p4563
F0.03644913837549019
ssVcanadaduane/dropbox-api
p4564
(dp4565
VRuby
p4566
F0.003969971649259242
ssVdrnic/bosh-getting-started-on-aws
p4567
(dp4568
sVvim-scripts/a.vim
p4569
(dp4570
VVimL
p4571
F0.024474587676721105
ssVmerb/internals
p4572
(dp4573
sVscharfie/has_default
p4574
(dp4575
VRuby
p4576
F0.00010278925908038951
ssVrmurphey/Bober
p4577
(dp4578
VJavaScript
p4579
F1.1015282232264434e-05
ssVjosh/coffee-script
p4580
(dp4581
VCoffeeScript
p4582
F1.0
ssVtteofili/sedtum
p4583
(dp4584
VJavaScript
p4585
F0.00017004148691463823
sVJava
p4586
F0.0006188653319252769
ssVnzakas/yui3-1
p4587
(dp4588
VJavaScript
p4589
F0.20187473960290886
sVActionScript
p4590
F1.0
ssVouterim/ghost
p4591
(dp4592
VRuby
p4593
F0.003557078726777098
ssVnzakas/csslint
p4594
(dp4595
sValexvollmer/word_salad
p4596
(dp4597
VRuby
p4598
F0.0004797245396646888
ssVcowboy/gaucho-old
p4599
(dp4600
VRuby
p4601
F0.007627731773350304
ssVdesandro/imagesloaded
p4602
(dp4603
VShell
p4604
F0.00035661499482499376
sVJavaScript
p4605
F8.184243777837373e-05
ssVsebastianbergmann/phptok
p4606
(dp4607
VPHP
p4608
F0.00056592126305515
ssVjoehewitt/app.js
p4609
(dp4610
VJavaScript
p4611
F0.0010112302124874392
ssVcommonsguy/cwac-layouts
p4612
(dp4613
VPerl
p4614
F0.020251548553435347
ssVjoehewitt/looker
p4615
(dp4616
VJavaScript
p4617
F2.2346261941363717e-05
ssVhornbeck/arc
p4618
(dp4619
VArc
p4620
F1.0
sVScheme
p4621
F0.3415606337207703
ssVhenrik/etsy-rss
p4622
(dp4623
VRuby
p4624
F0.0005141942791391741
ssVmattslack/warehouse
p4625
(dp4626
VRuby
p4627
F0.006228855511655546
ssVkafka399/common_crawl_types
p4628
(dp4629
sVcanadaduane/alfred2-ruby-framework
p4630
(dp4631
VRagel in Ruby Host
p4632
F1.0
ssVmoodlehq/moodle-local_amos
p4633
(dp4634
VPHP
p4635
F0.04693160148727918
ssVsoffes/awfulrecruiters.com
p4636
(dp4637
VRuby
p4638
F0.00019913094099288967
ssVkafka399/ARCInputFormat
p4639
(dp4640
sVjschairb/dot_tmux
p4641
(dp4642
sVgarybernhardt/sucks-rocks
p4643
(dp4644
VRuby
p4645
F0.003436682622353626
ssVxhr/vimfiles
p4646
(dp4647
VVimL
p4648
F0.11031400123369867
ssVmoodlehq/moodle-filter_moodlelinks
p4649
(dp4650
VPHP
p4651
F0.001385769737790583
ssVpkrumins/bash-emacs-editing-mode-cheat-sheet
p4652
(dp4653
sVNZKoz/homebrew
p4654
(dp4655
sVpkrumins/hacker-top
p4656
(dp4657
VPython
p4658
F0.004853412649991433
ssVJeffreyWay/CSS3-TextMate-Bundle
p4659
(dp4660
sVscharfie/easy_search
p4661
(dp4662
VRuby
p4663
F0.0025211266645133413
ssVJakeWharton/mkvdts2ac3
p4664
(dp4665
VShell
p4666
F0.007852996401495152
ssVsharkcz/jquery-ui
p4667
(dp4668
VJavaScript
p4669
F0.01065918401075897
ssVmathiasbynens/fusejs
p4670
(dp4671
sVmathiasbynens/es-spec-html
p4672
(dp4673
VPython
p4674
F0.011335767389904656
ssVakitaonrails/heroku-buildpack-ruby
p4675
(dp4676
sVjschairb/homebrew
p4677
(dp4678
sVrtomayko/dotfiles
p4679
(dp4680
VVimL
p4681
F1.0
ssVrtomayko/rack
p4682
(dp4683
VRuby
p4684
F0.03727803130670691
ssVjsierles/heartbeat
p4685
(dp4686
sVantirez/codakido
p4687
(dp4688
sVjschairb/mineralogy
p4689
(dp4690
VRuby
p4691
F0.0006741437896502747
ssVpsi/few
p4692
(dp4693
VRuby
p4694
F0.00035176493125580827
ssVJakeWharton/domainr-java
p4695
(dp4696
VJava
p4697
F0.0030109287646289673
ssVrmurphey/grunt
p4698
(dp4699
sVfelixge/ack
p4700
(dp4701
VFORTRAN
p4702
F1.0
ssVjoehewitt/lookskitchen
p4703
(dp4704
VJavaScript
p4705
F2.391621696129916e-05
ssVlancecarlson/account_location
p4706
(dp4707
VRuby
p4708
F0.0002663345337812746
ssVcreationix/dublin-talk
p4709
(dp4710
VJavaScript
p4711
F5.5921115220961355e-05
ssVxhr/vim-io
p4712
(dp4713
VVimL
p4714
F0.003778202164580387
ssVlifo/testing
p4715
(dp4716
sVasseym/rapidsms-polls
p4717
(dp4718
VPython
p4719
F0.014233189489762776
ssVphilsturgeon/codeigniter-encoding
p4720
(dp4721
VPHP
p4722
F0.0003125317072979649
ssVNZKoz/MagicalRecord
p4723
(dp4724
VObjective-C
p4725
F0.3374285843563621
ssVayende/courses-ravendb-stockholm-march-2013
p4726
(dp4727
VASP
p4728
F0.006589572969830092
sVJavaScript
p4729
F0.0064996564443539255
ssVmadrobby/certified
p4730
(dp4731
sVpsi/dmg
p4732
(dp4733
VRuby
p4734
F0.0006370702209349111
ssVginatrapani/ThinkUp
p4735
(dp4736
VPHP
p4737
F0.44186391790332014
ssVpkrumins/dnode
p4738
(dp4739
VJavaScript
p4740
F0.0004701844637421874
ssVrbazinet/rstat.us
p4741
(dp4742
sVmacournoyer/node-syscalls
p4743
(dp4744
VC++
p4745
F0.0005457094659368388
ssVJakeWharton/EffectiveOpenSource
p4746
(dp4747
VJavaScript
p4748
F0.0002801516474160887
ssVjwhitmire/ruby-on-rails-tmbundle
p4749
(dp4750
VRuby
p4751
F0.01282311506011436
ssVmacournoyer/rbv8
p4752
(dp4753
VC++
p4754
F0.15507841350539475
ssVzybl880506/zybl880506.github.com
p4755
(dp4756
sVglassesfactory/simple_bot_study
p4757
(dp4758
VPython
p4759
F0.0004870288215533823
ssVmathiasbynens/Dynamic-Carousel
p4760
(dp4761
VJavaScript
p4762
F0.00012917146221088404
ssVhassox/dm-adapters
p4763
(dp4764
VRuby
p4765
F0.0022468566511408185
ssVkoush/android_packages_wallpapers_Basic
p4766
(dp4767
VJava
p4768
F0.0038042015991877312
ssVfelixge/debuggable-scraps
p4769
(dp4770
VPHP
p4771
F0.003849232369436596
ssVezmobius/lua-nginx-module
p4772
(dp4773
VPerl
p4774
F0.3855175930647629
ssVDmitryBaranovskiy/elemental
p4775
(dp4776
VJavaScript
p4777
F8.338679570559282e-05
ssVouterim/coffer
p4778
(dp4779
VRuby
p4780
F0.0015711009671985712
ssVdesandro/doc-ready
p4781
(dp4782
VJavaScript
p4783
F8.984579543434895e-06
ssVcreationix/colorspin
p4784
(dp4785
VShell
p4786
F3.093270643048301e-05
sVJavaScript
p4787
F1.1066476417697113e-05
ssVayende/Degenerated.Storage
p4788
(dp4789
VC#
p4790
F0.0025659502019183458
ssVdrnic/bosh-gen
p4791
(dp4792
VShell
p4793
F0.0034690852487611807
sVRuby
p4794
F0.007066668567875319
ssVjnunemaker/bin
p4795
(dp4796
VRuby
p4797
F0.0010070619568768682
ssVjsierles/exception_notification
p4798
(dp4799
VRuby
p4800
F0.0007055137324094286
ssVjschairb/holland
p4801
(dp4802
VPython
p4803
F0.2243051795273289
ssVcreationix/conquest
p4804
(dp4805
VShell
p4806
F3.271044817936134e-05
sVJavaScript
p4807
F7.303703788395319e-05
ssVhede/demo_app
p4808
(dp4809
VRuby
p4810
F0.0014431413587896907
ssVdesandro/eventie
p4811
(dp4812
VJavaScript
p4813
F1.3037452556855194e-05
ssVguille/jshint
p4814
(dp4815
VJavaScript
p4816
F0.0028377790221757
ssVasseym/django-eav
p4817
(dp4818
VPython
p4819
F0.008771131442542468
ssVsstephenson/dnsserver.js
p4820
(dp4821
VJavaScript
p4822
F9.403518627558972e-05
ssVvanpelt/delayed_job
p4823
(dp4824
VRuby
p4825
F0.003665447619945084
ssVnorbauer/heroku-sinatra-coming-soon
p4826
(dp4827
VRuby
p4828
F3.60816337664576e-05
ssVnathanmarz/dfs-datastores
p4829
(dp4830
VJava
p4831
F0.007135980598737317
sVScala
p4832
F0.017291513395292505
ssVcommonsguy/cw-android
p4833
(dp4834
VJava
p4835
F0.008790105038324973
ssVmacournoyer/confoo
p4836
(dp4837
VRuby
p4838
F0.002622428021170372
ssVup_the_irons/tendersync
p4839
(dp4840
VRuby
p4841
F0.0033343893307476898
ssVDmitryBaranovskiy/web-animations
p4842
(dp4843
sVouterim/goliath
p4844
(dp4845
sVcanadaduane/grbl
p4846
(dp4847
VC
p4848
F0.03560208617004651
sVPerl
p4849
F0.01361871173191928
ssVdesandro/isotope
p4850
(dp4851
VShell
p4852
F0.00015608572555151772
sVJavaScript
p4853
F0.0004206370246075944
ssVscharfie/eztime
p4854
(dp4855
VRuby
p4856
F0.0012054489466580783
ssVrtomayko/replicate
p4857
(dp4858
VRuby
p4859
F0.008868394410694548
sVPerl
p4860
F0.006031958862147541
ssVcloudwu/windsoul
p4861
(dp4862
VC
p4863
F0.005438289711838865
ssVglassesfactory/GAEStudy
p4864
(dp4865
sVMarak/badproject
p4866
(dp4867
VJavaScript
p4868
F2.4658532650072978e-06
ssVantirez/mc-benchmark
p4869
(dp4870
VC
p4871
F0.024948043358725244
ssValexvollmer/gitjour
p4872
(dp4873
VRuby
p4874
F0.0014208228224393046
ssVantirez/redisdotphp
p4875
(dp4876
sVjvantuyl/pelvis
p4877
(dp4878
VRuby
p4879
F0.006905479138678086
ssVrobbyrussell/active_delegate
p4880
(dp4881
VRuby
p4882
F0.00017743236398556984
ssVjschairb/dot_foo
p4883
(dp4884
VRuby
p4885
F0.0005150622222194668
ssVkafka399/carCount
p4886
(dp4887
VR
p4888
F0.03435312065818509
ssVmoodlehq/moodle-filter_skypeicons
p4889
(dp4890
VPHP
p4891
F0.0015921528042712
ssVcloudwu/ameba
p4892
(dp4893
sVlancecarlson/devise
p4894
(dp4895
VRuby
p4896
F0.02359168485730706
ssVcowboy/express
p4897
(dp4898
sVguille/hummingbird
p4899
(dp4900
sVautomatthew/ambitious_activerecord
p4901
(dp4902
VRuby
p4903
F0.004293094458865387
ssVogc/deploy
p4904
(dp4905
sVMarak/geddy
p4906
(dp4907
VJavaScript
p4908
F0.004288545446059631
ssVchovy/Chic
p4909
(dp4910
VJavaScript
p4911
F1.0827570219011286e-05
ssVmathiasbynens/HTML5-custom-data-attributes-plugin-for-jQuery
p4912
(dp4913
VJavaScript
p4914
F6.365143722129565e-06
ssVcreationix/BrowserQuest
p4915
(dp4916
sVmathiasbynens/grunt-yui-compressor
p4917
(dp4918
VJavaScript
p4919
F1.0179110536864037e-05
ssVdaikini/FireBooks
p4920
(dp4921
VObjective-C
p4922
F0.031042761355608132
ssVjacobian/djangome
p4923
(dp4924
VPython
p4925
F0.0012960434336555704
ssVgarybernhardt/do_not_want
p4926
(dp4927
VRuby
p4928
F0.0006552970256210599
ssVmiyagawa/Acme-MillaTutorial
p4929
(dp4930
VPerl
p4931
F0.0013764919425296785
ssVtopfunky/choctop
p4932
(dp4933
VRuby
p4934
F0.00461150557746423
ssVradicaldynamic/gcmobile
p4935
(dp4936
sVJeffreyWay/Envato-Marketplace-API--Cookbook
p4937
(dp4938
VPHP
p4939
F0.0004590813503366763
ssVguille/dom
p4940
(dp4941
sVginatrapani/write
p4942
(dp4943
sVxhr/css_parser
p4944
(dp4945
sVrmurphey/arduino-display
p4946
(dp4947
VJavaScript
p4948
F0.0037848799850444714
ssVnzakas/combiner
p4949
(dp4950
VJava
p4951
F0.000724601948797002
ssVsoffes/iphone-plist
p4952
(dp4953
VObjective-C
p4954
F0.0008897135937574899
ssVrobbevan/emacs
p4955
(dp4956
VEmacs Lisp
p4957
F4.5566228634696045e-05
ssVakitaonrails/i18n_demo_app
p4958
(dp4959
sVayende/NHibernate-London-May
p4960
(dp4961
VVisual Basic
p4962
F0.005544812481372895
sVASP
p4963
F0.0069771949092318625
sVJavaScript
p4964
F0.0037001194786964353
ssVdaikini/fixture
p4965
(dp4966
sVglassesfactory/yarinage.js
p4967
(dp4968
VCoffeeScript
p4969
F0.013170434483728342
ssVsstephenson/minihal
p4970
(dp4971
VRuby
p4972
F0.0003681318579127581
ssVdanahern/demo_app
p4973
(dp4974
VCoffeeScript
p4975
F0.0035777336853781623
sVRuby
p4976
F0.007528910254065539
ssVjsierles/chef_cookbooks
p4977
(dp4978
VPerl
p4979
F0.4069548503510768
ssVmiyagawa/carton
p4980
(dp4981
VPerl
p4982
F0.07922139054214526
ssVmathiasbynens/css-fork-on-github-ribbon
p4983
(dp4984
sVjsierles/chef
p4985
(dp4986
VRuby
p4987
F0.2516104993834505
ssVpkrumins/bash-redirections-cheat-sheet
p4988
(dp4989
sVsoffes/core-module
p4990
(dp4991
sVmmower/lmhoneycombview
p4992
(dp4993
VObjective-C
p4994
F0.005906336364601584
ssVpkrumins/bithacks.h
p4995
(dp4996
VC
p4997
F0.0019293612707250542
ssVjschairb/purikura
p4998
(dp4999
VRuby
p5000
F0.0019898215075055377
ssVmmower/bones
p5001
(dp5002
VJavaScript
p5003
F0.004281096692079176
sVRuby
p5004
F0.0033429447696820044
ssVjvantuyl/iterdict
p5005
(dp5006
VPython
p5007
F0.0016823813808060242
ssVrdempsey/gPress
p5008
(dp5009
sVautomatthew/bitescript
p5010
(dp5011
VRuby
p5012
F0.011093800468565273
ssVfelixge/fab-basic-auth
p5013
(dp5014
VJavaScript
p5015
F2.6800156074006655e-05
ssVautomatthew/automatthew.github.com
p5016
(dp5017
sVgarybernhardt/topaz
p5018
(dp5019
VPython
p5020
F0.120962366251299
ssVjschairb/conan
p5021
(dp5022
VRuby
p5023
F7.98507633869371e-05
ssVjnunemaker/common_helpers
p5024
(dp5025
VRuby
p5026
F0.0005552355876501619
ssVsoffes/access_control
p5027
(dp5028
VRuby
p5029
F0.00010477312897820162
ssVrichhickey/slides
p5030
(dp5031
sVibdknox/clojure-koans
p5032
(dp5033
VClojure
p5034
F0.018085108976249736
ssVelbowdonkey/axonome
p5035
(dp5036
VJavaScript
p5037
F0.0016059018704734208
ssVnecolas/idiomatic-html
p5038
(dp5039
sVatep/fullcalendar
p5040
(dp5041
sVdesandro/get-size
p5042
(dp5043
VJavaScript
p5044
F7.962402307629102e-05
ssVnzakas/xauth
p5045
(dp5046
VShell
p5047
F0.00019412939897751406
sVJavaScript
p5048
F0.00012699570932999524
ssVgarybernhardt/cls
p5049
(dp5050
VShell
p5051
F0.00012550856747081036
sVRuby
p5052
F0.00029696052532874896
ssVjsierles/bluepill
p5053
(dp5054
VRuby
p5055
F0.0062536538853781975
ssVnorbauer/cj4r
p5056
(dp5057
VRuby
p5058
F0.010094797983148265
ssVdrnic/bcat
p5059
(dp5060
VRuby
p5061
F0.0031428218937402086
ssVmoodlehq/moodle-local_moodlecheck
p5062
(dp5063
VPHP
p5064
F0.00723177939762413
ssVrtomayko/rbtrace
p5065
(dp5066
sVlancecarlson/mail
p5067
(dp5068
sVsoffes/adder
p5069
(dp5070
VRuby
p5071
F0.00013440718557676987
ssVautomatthew/activemdb
p5072
(dp5073
VRuby
p5074
F0.003925458568427083
ssVded/morpheus
p5075
(dp5076
VJavaScript
p5077
F0.0006178199621657904
ssVmislav/curly
p5078
(dp5079
VRuby
p5080
F0.0003640401262485207
ssVup_the_irons/mephisto
p5081
(dp5082
sVcanadaduane/pad
p5083
(dp5084
sVgspederson/01-CodeBreaker
p5085
(dp5086
VRuby
p5087
F0.00023471660728489427
ssVautomatthew/dotfiles
p5088
(dp5089
VRuby
p5090
F0.00017371260792717214
ssVglassesfactory/WorldWordWeb
p5091
(dp5092
VActionScript
p5093
F0.043507266472196424
ssVouterim/homebrew
p5094
(dp5095
VRuby
p5096
F0.14881132095357189
ssVvim-scripts/285colors-with-az-menu
p5097
(dp5098
VVimL
p5099
F0.9644049896257159
ssVstepbystep55/mapreduce
p5100
(dp5101
VRuby
p5102
F0.00034258953297842726
ssVhenrik/country_select
p5103
(dp5104
VRuby
p5105
F0.001193793711008432
ssVasseym/rapidsms-unregister
p5106
(dp5107
VPython
p5108
F0.0005829945376044415
ssVtopfunky/couchrest
p5109
(dp5110
VRuby
p5111
F0.006224639788122695
ssVerica/CFClippyRef
p5112
(dp5113
VObjective-C
p5114
F0.0016226297263794702
ssVdesandro/get-style-property
p5115
(dp5116
VJavaScript
p5117
F8.771270437465407e-06
ssVJeffreyWay/Recurring-Tweets
p5118
(dp5119
VPHP
p5120
F0.0006555561862344876
ssVvanpelt/jsawesome
p5121
(dp5122
VJavaScript
p5123
F0.0010800949242586292
sVRuby
p5124
F0.0011998693125704818
ssVjwhitmire/integrity-campfire
p5125
(dp5126
VRuby
p5127
F0.00035201291499303475
ssVphilsturgeon/codeigniter-github
p5128
(dp5129
VPHP
p5130
F0.00046975766080962225
ssVfelixge/conflict-test
p5131
(dp5132
sVjsierles/bundler
p5133
(dp5134
VRuby
p5135
F0.0037275675461203254
ssVJakeWharton/lessres
p5136
(dp5137
sVjsierles/flamencodb
p5138
(dp5139
VRuby
p5140
F0.0015885838206730403
ssVhassox/.pair.io
p5141
(dp5142
sVleah/tumblr-themes
p5143
(dp5144
sVdanielharan/semantic-menu
p5145
(dp5146
VRuby
p5147
F0.0006684401636940649
ssVjosh/brew-pip
p5148
(dp5149
VPython
p5150
F0.0001856312209662926
ssVmerb/merb_datamapper
p5151
(dp5152
VRuby
p5153
F0.0030565235531853823
ssVnecolas/necolas.github.com
p5154
(dp5155
VJavaScript
p5156
F4.176592294882603e-05
ssVjwhitmire/feedzirra
p5157
(dp5158
VRuby
p5159
F0.00984359045733781
ssVrobbyrussell/shorturl
p5160
(dp5161
VRuby
p5162
F0.0024193293403818577
ssVjacobian/ddt
p5163
(dp5164
VPython
p5165
F0.0014254227694805624
ssVasseym/ctca
p5166
(dp5167
VPython
p5168
F0.019714260674160843
ssVnathanmarz/cascalog-conj
p5169
(dp5170
VClojure
p5171
F0.00571228449939505
ssVagentzh/memcacheq
p5172
(dp5173
VC
p5174
F0.007082469575866863
sVPerl
p5175
F0.006023043758892815
ssVmoodlehq/moodle-local_wstemplate
p5176
(dp5177
VPHP
p5178
F0.0020702825358833482
ssVlancecarlson/exception_notification
p5179
(dp5180
sVadam/exceptionalauthentication
p5181
(dp5182
VRuby
p5183
F0.012584678696771066
ssVMarak/ohh
p5184
(dp5185
VJavaScript
p5186
F0.00010612554640194038
ssVmathiasbynens/FizzBuzzEnterpriseEdition
p5187
(dp5188
sVguille/debug
p5189
(dp5190
sVhassox/dm-zone-types
p5191
(dp5192
VRuby
p5193
F0.0009249793398548924
ssVmoodlehq/sample-ws-clients
p5194
(dp5195
VPHP
p5196
F0.003928498214099044
sVPerl
p5197
F0.005579071616807466
ssVdaikini/matlab-ruby
p5198
(dp5199
VC
p5200
F0.030684469814310663
ssVagentzh/lua-rds-parser
p5201
(dp5202
VPerl
p5203
F0.0282216508631603
ssVJeffreyWay/Laravel-4-Generators
p5204
(dp5205
VPHP
p5206
F0.004828841461321148
ssVzybl880506/project
p5207
(dp5208
VVimL
p5209
F0.5330177951686367
ssVMarak/node-mkdirp
p5210
(dp5211
sVmoodlehq/functional-test-suite
p5212
(dp5213
VJava
p5214
F0.016421839790658047
ssVdaikini/event_attribute
p5215
(dp5216
VRuby
p5217
F0.0019212540041624072
ssVrobbevan/currentcoststatus
p5218
(dp5219
VObjective-C
p5220
F0.00013305384559213215
sVRuby
p5221
F0.00020830633927027066
ssVrtomayko/adoc-themes
p5222
(dp5223
VRuby
p5224
F0.0012147483368040723
ssVjnunemaker/google-weather
p5225
(dp5226
VRuby
p5227
F0.0009966466399133546
ssVkoush/android_device_motorola_sholes
p5228
(dp5229
VShell
p5230
F0.0094654081677278
ssVmjankowski/rails.github.com
p5231
(dp5232
sVrbazinet/s3nukem
p5233
(dp5234
sVmjankowski/repeated_job
p5235
(dp5236
VRuby
p5237
F0.0003063839073433564
ssVrobbevan/Vagrantfile.vim
p5238
(dp5239
VVimL
p5240
F0.00026714560759659304
ssVtteofili/samplett
p5241
(dp5242
VScala
p5243
F0.04188500017516728
ssVjosh/dotfiles
p5244
(dp5245
VShell
p5246
F0.001006201829865137
sVPerl
p5247
F0.004773146282580245
ssVjdhuntington/codekatas
p5248
(dp5249
VRuby
p5250
F0.0003848707601755477
ssVautomatthew/fate
p5251
(dp5252
VRuby
p5253
F0.0023967628202942455
ssVsstephenson/mackerel
p5254
(dp5255
VRuby
p5256
F0.0032167210474337094
ssVrobbevan/prowlr
p5257
(dp5258
VRuby
p5259
F0.0011950336296945648
ssVtteofili/tommaso_at_asf
p5260
(dp5261
sVakitaonrails/jruby_calculator_demo
p5262
(dp5263
VRuby
p5264
F0.0014142512534028018
sVJava
p5265
F0.00046706130638831186
ssVmmower/errata_plugin
p5266
(dp5267
VRuby
p5268
F0.0009105962830957547
ssVguille/chrome-spdy-indicator
p5269
(dp5270
VJavaScript
p5271
F1.0153513444147697e-06
ssVjdhuntington/pomodori
p5272
(dp5273
VRuby
p5274
F0.022978173091408666
ssVlancecarlson/aasm
p5275
(dp5276
sVjoehewitt/fool
p5277
(dp5278
VJavaScript
p5279
F6.817359026784882e-06
ssVphilsturgeon/codeigniter-dwoo
p5280
(dp5281
VPHP
p5282
F0.0006378135407722537
ssVkamal/juggernaut
p5283
(dp5284
VJavaScript
p5285
F0.001074292916576259
ssVxhr/matcher
p5286
(dp5287
VC
p5288
F0.0012524039119870159
ssVJeffreyWay/framework
p5289
(dp5290
VPHP
p5291
F0.11144624143562121
ssVmiyagawa/CGI-Compile
p5292
(dp5293
VPerl
p5294
F0.018270612610235253
ssVcowboy/grunt-jquery-example
p5295
(dp5296
VJavaScript
p5297
F0.00040899887978589907
ssValexvollmer/emacs-starter-kit
p5298
(dp5299
VEmacs Lisp
p5300
F0.13791521027741016
sVPerl
p5301
F0.23046433423791915
ssVrmurphey/bvjs
p5302
(dp5303
VJavaScript
p5304
F0.038006460876848884
ssVjnunemaker/adapter-cassanity
p5305
(dp5306
VRuby
p5307
F0.0015930475279431174
ssVzybl880506/wamlog
p5308
(dp5309
VC
p5310
F0.00354107079632521
ssVleah/python-oauth-old
p5311
(dp5312
VPython
p5313
F0.003472991388623911
ssVfloydprice/numbers.js
p5314
(dp5315
sVasseym/rapidsms-ureport
p5316
(dp5317
VPython
p5318
F0.03496234667564297
ssVjsierles/intercom-rails
p5319
(dp5320
VRuby
p5321
F0.00606035056221013
ssVlifesinger/lifesinger.github.com
p5322
(dp5323
VJavaScript
p5324
F0.0069717094958644055
ssVagentzh/jemplate
p5325
(dp5326
VPerl
p5327
F0.5102648498874914
ssVdesandro/jtetypes
p5328
(dp5329
VJavaScript
p5330
F0.00020452077080354648
ssVdanielharan/miniblog
p5331
(dp5332
VRuby
p5333
F0.0018965796223083691
ssVJeffreyWay/jeffreyway.github.com
p5334
(dp5335
VJavaScript
p5336
F0.00023595400065921045
ssVJakeWharton/Android-MapForgeFragment
p5337
(dp5338
VJava
p5339
F0.02139559758397622
ssVjosh/css-explain
p5340
(dp5341
VJavaScript
p5342
F0.00013935057274774807
ssVautomatthew/rupez
p5343
(dp5344
VRuby
p5345
F0.0005181620189347982
ssVguille/expresso
p5346
(dp5347
VJavaScript
p5348
F6.345519284380373e-05
ssVJakeWharton/jakewharton.com
p5349
(dp5350
VJavaScript
p5351
F3.2209675001392904e-05
ssVrichhickey/edn
p5352
(dp5353
sVmadrobby/box2d-js
p5354
(dp5355
VJavaScript
p5356
F0.003800536873422632
ssVakitaonrails/fedena
p5357
(dp5358
sVzybl880506/authorization
p5359
(dp5360
VC
p5361
F0.001192546974986196
ssVnecolas/custom-tweet-button-for-wordpress
p5362
(dp5363
VPHP
p5364
F0.0005123860947123921
ssVmacournoyer/mor7
p5365
(dp5366
VRuby
p5367
F0.00018028417696367474
ssVsoffes/binary_plist
p5368
(dp5369
VRuby
p5370
F0.0013476676199574832
ssVnecolas/css3-social-signin-buttons
p5371
(dp5372
sVnextgen666/ProIce
p5373
(dp5374
sVrdempsey/bp-reply-by-email
p5375
(dp5376
sVnathanmarz/clj-disruptor
p5377
(dp5378
VClojure
p5379
F0.009147780781534776
ssVrobbevan/coffee-script-vim-snippets
p5380
(dp5381
sVhenrik/file_transfer_sender_subdirectories_plugin
p5382
(dp5383
VObjective-C
p5384
F0.0016159098351879485
ssVtopfunky/cappuccino
p5385
(dp5386
VObjective-J
p5387
F0.18436233151632117
ssVkafka399/twsapi
p5388
(dp5389
sVMarak/Faker.js
p5390
(dp5391
VJavaScript
p5392
F0.0025810487145950614
ssVjschairb/doughboy
p5393
(dp5394
VRuby
p5395
F0.0009175398277380969
ssVnextgen666/todc-bootstrap
p5396
(dp5397
sVsstephenson/coffee-mode
p5398
(dp5399
VCoffeeScript
p5400
F0.010885528145359102
ssVdesandro/editorconfig-textmate
p5401
(dp5402
VC
p5403
F0.002900191591395885
sVObjective-C
p5404
F0.005636196738702407
ssVleegee/mootools-core
p5405
(dp5406
VJavaScript
p5407
F0.0035777568431480974
ssVnathanmarz/cascalog-workshop-starter
p5408
(dp5409
VClojure
p5410
F0.001532484860008402
ssVjdhuntington/codename-chicane
p5411
(dp5412
VRuby
p5413
F0.00045033846680334706
ssVmerb/book
p5414
(dp5415
sVentryway/feature-finish
p5416
(dp5417
sVdaikini/kato
p5418
(dp5419
VRuby
p5420
F0.006212488584998596
ssVNZKoz/paperclip
p5421
(dp5422
sVcdcarter/loudmouth-web
p5423
(dp5424
VJavaScript
p5425
F0.0004275397072767671
sVRuby
p5426
F0.00023298072112430869
ssVstepbystep55/f2j
p5427
(dp5428
VJavaScript
p5429
F0.00011646677185934123
ssVmislav/euruko-golf
p5430
(dp5431
VRuby
p5432
F2.8022162306595935e-05
ssVlancecarlson/heroku-buildpack-go
p5433
(dp5434
sVgarybernhardt/raptor
p5435
(dp5436
VShell
p5437
F0.0011793538762058867
sVRuby
p5438
F0.006656503466502667
ssVsebastianbergmann/dbunit
p5439
(dp5440
VPHP
p5441
F0.04113905018779938
ssVmislav/anemone
p5442
(dp5443
VRuby
p5444
F0.004590922927274429
ssVnecolas/delegate
p5445
(dp5446
VJavaScript
p5447
F7.226912510246303e-06
ssVded/qwery
p5448
(dp5449
VJavaScript
p5450
F0.0008508558942553383
ssVautomatthew/pez
p5451
(dp5452
VShell
p5453
F0.2715532520763135
ssVkoush/android_external_busybox
p5454
(dp5455
VC
p5456
F1.0
ssVmmower/coreplus
p5457
(dp5458
VRuby
p5459
F0.0006762516514167001
ssVcowboy/battlelog-hacks
p5460
(dp5461
VJavaScript
p5462
F0.00023421339835449944
ssVjvantuyl/vertebra-py
p5463
(dp5464
VPython
p5465
F0.010248643457663876
ssVglassesfactory/iOSSafariExample
p5466
(dp5467
VCoffeeScript
p5468
F0.03349243051541238
ssVsstephenson/ndns
p5469
(dp5470
VJavaScript
p5471
F0.0005224110652477573
ssVmiyagawa/AnyEvent-FriendFeed-Realtime
p5472
(dp5473
VPerl
p5474
F0.007841724822856899
ssVweierophinney/Component_ZendHttp
p5475
(dp5476
VPHP
p5477
F0.02660774674624077
ssVkoush/android_device_samsung_epic4g
p5478
(dp5479
VC
p5480
F0.00047951146243944406
ssVmathiasbynens/grunt-zopfli
p5481
(dp5482
VJavaScript
p5483
F0.0007676226811060436
ssVfloydprice/Rails-Startup-App
p5484
(dp5485
VRuby
p5486
F0.0027027747520317618
ssVnecolas/normalize.css
p5487
(dp5488
sVleah/tinytinyurl
p5489
(dp5490
sVsebastianbergmann/PHPUnit-CodeSniffer
p5491
(dp5492
VPHP
p5493
F0.0012959811986332174
ssVrebra/tmjs
p5494
(dp5495
sVjosh/cook
p5496
(dp5497
VRuby
p5498
F0.0002039666238688067
ssVrobbyrussell/less
p5499
(dp5500
VRuby
p5501
F0.0013646545059574995
ssVelbowdonkey/MCAD
p5502
(dp5503
sVvanpelt/stat
p5504
(dp5505
sVlifo/enlighten-websockets
p5506
(dp5507
VRuby
p5508
F0.0005884654084385147
ssVded/ender-tipsy
p5509
(dp5510
VJavaScript
p5511
F0.0004144169310775241
ssVphilsturgeon/codeigniter-maxcdn
p5512
(dp5513
VPHP
p5514
F0.002013905471947073
ssVdesandro/CSS3.tmbundle
p5515
(dp5516
sVweierophinney/Component_ZendCaptcha
p5517
(dp5518
VPHP
p5519
F0.0031809260570257844
ssVvim-scripts/Abc-Menu
p5520
(dp5521
sVmathiasbynens/brnfckr
p5522
(dp5523
VJavaScript
p5524
F8.537483657322846e-05
ssVibdknox/cljs-watch
p5525
(dp5526
VShell
p5527
F0.0011345547841341526
sVClojure
p5528
F0.0026716915268863335
ssVstepbystep55/joplin
p5529
(dp5530
VJava
p5531
F0.0031881161970957017
ssVrobbevan/ruby-ole
p5532
(dp5533
VDelphi
p5534
F0.5177541825514351
sVD
p5535
F1.0
ssVjnunemaker/adapter-mongo
p5536
(dp5537
VRuby
p5538
F0.001382881310643648
ssVsstephenson/dtclsh
p5539
(dp5540
sVfloydprice/helloworld
p5541
(dp5542
VVisual Basic
p5543
F0.24838680611870056
ssVsharkcz/gettext-extractor
p5544
(dp5545
VPHP
p5546
F0.0028113260138904177
ssVJakeWharton/Android-DirectionalViewPager
p5547
(dp5548
VJava
p5549
F0.0014711785810377677
ssVJeffreyWay/grunt-init-gruntfile
p5550
(dp5551
sVcdcarter/artnetr
p5552
(dp5553
VC
p5554
F1.5743194389256714e-05
sVRuby
p5555
F8.183463328474919e-06
ssVhenrik/git-tmbundle
p5556
(dp5557
VRuby
p5558
F0.021906511370984292
ssVibdknox/fipp
p5559
(dp5560
sVjdhuntington/boardgame-tracker
p5561
(dp5562
VClojure
p5563
F0.0009035647742997577
ssVjwhitmire/ruby-units
p5564
(dp5565
VRuby
p5566
F0.01059944488840422
ssValexvollmer/httparty
p5567
(dp5568
VRuby
p5569
F0.008677446933030132
ssVpkrumins/bitly
p5570
(dp5571
VPerl
p5572
F0.013814844003523251
ssVjosh/gem-template
p5573
(dp5574
VRuby
p5575
F6.509573102195959e-05
ssVrobbyrussell/bigtuna
p5576
(dp5577
sVjwhitmire/hubot-scripts
p5578
(dp5579
sVjnunemaker/crdts
p5580
(dp5581
VRuby
p5582
F0.002844125482250874
ssVcowboy/benalman.com-OLD
p5583
(dp5584
VJavaScript
p5585
F7.663769559271817e-05
ssVezmobius/merbivore
p5586
(dp5587
VRuby
p5588
F0.006303498616560726
ssVantirez/Jim
p5589
(dp5590
sVxhr/taggart
p5591
(dp5592
sVkamal/database_cleaner
p5593
(dp5594
VRuby
p5595
F0.004449200221449478
ssVmathiasbynens/CSSCSS
p5596
(dp5597
sVcloudwu/skynet
p5598
(dp5599
VLua
p5600
F0.26855281506013595
ssVnorbauer/submarine
p5601
(dp5602
VRuby
p5603
F0.0006768716107597663
ssVadam/my_blog
p5604
(dp5605
sVautomatthew/rakegen
p5606
(dp5607
VRuby
p5608
F0.001096088118541186
ssVayende/Kalahari.Resort
p5609
(dp5610
VASP
p5611
F0.0069125912526649
sVJavaScript
p5612
F0.0037001194786964353
ssVcdcarter/blog
p5613
(dp5614
sVtjogin/local-copy
p5615
(dp5616
VRuby
p5617
F0.0003065078992119697
ssVmathiasbynens/html5demos
p5618
(dp5619
sVscharfie/hcl
p5620
(dp5621
VRuby
p5622
F0.002239541130892636
ssVjschairb/how-many-days-since
p5623
(dp5624
VRuby
p5625
F0.00020285069705128737
ssVlancecarlson/JSONP
p5626
(dp5627
sVrtomayko/rack-cache
p5628
(dp5629
VRuby
p5630
F0.010345385549615655
ssVmacournoyer/rack-sandbox
p5631
(dp5632
VRuby
p5633
F0.0003815229797229898
ssVvim-scripts/0scan
p5634
(dp5635
VVimL
p5636
F0.09997164985388772
ssVilazebny/ci_test
p5637
(dp5638
VJava
p5639
F4.745737358186348e-05
ssVjschairb/foortran
p5640
(dp5641
VFORTRAN
p5642
F0.10766961651917403
ssVdrnic/blue-ridge-tmbundle
p5643
(dp5644
VRuby
p5645
F0.00044612274327049633
ssVglassesfactory/messagepack
p5646
(dp5647
VActionScript
p5648
F0.06961249841938424
ssVjacobian/django-git-authors
p5649
(dp5650
sVjacobian/invoke
p5651
(dp5652
sVjdhuntington/rinari
p5653
(dp5654
VEmacs Lisp
p5655
F0.0030481640787560025
sVRuby
p5656
F0.001957087654191638
ssVdanahern/deployinator
p5657
(dp5658
sVscharfie/fabrication
p5659
(dp5660
sVhassox/formz
p5661
(dp5662
sVvanpelt/dm-imap-adapter
p5663
(dp5664
VRuby
p5665
F0.0012409106210814695
ssVjosh/ejs
p5666
(dp5667
VJavaScript
p5668
F0.00012522950993256785
ssVjschairb/notify-me
p5669
(dp5670
sVjsierles/heroku-buildpack-ruby
p5671
(dp5672
VShell
p5673
F0.002164933901784035
sVRuby
p5674
F0.005519374039450494
sVPerl
p5675
F0.00372829618112637
ssVsebastianbergmann/php-test-helpers
p5676
(dp5677
VC
p5678
F0.003707850261886399
sVPHP
p5679
F0.000815777651317691
ssVjacobian/chucks
p5680
(dp5681
VPython
p5682
F0.003213557694352232
ssVdanielharan/isochrones
p5683
(dp5684
VRuby
p5685
F0.001045251452409751
ssVcloudwu/pbc
p5686
(dp5687
VLua
p5688
F0.1321683806867701
ssVded/reqwest
p5689
(dp5690
VJavaScript
p5691
F0.0007572473261916875
ssVakitaonrails/enki
p5692
(dp5693
VRuby
p5694
F0.017524762726060426
ssVautomatthew/minfinite
p5695
(dp5696
VC
p5697
F0.0014847800208367737
sVC++
p5698
F0.00015791014720351385
ssVelbowdonkey/RubyScad
p5699
(dp5700
sVtopfunky/barista
p5701
(dp5702
VRuby
p5703
F0.004753724250763635
ssVup_the_irons/powerdns-models
p5704
(dp5705
VRuby
p5706
F0.0022720270004693093
ssVjschairb/kickstart
p5707
(dp5708
VRuby
p5709
F0.00024017224950387755
ssVcdcarter/ticketrequests
p5710
(dp5711
VJavaScript
p5712
F4.1356369465364615e-05
ssVginatrapani/todo.txt-cli
p5713
(dp5714
VShell
p5715
F0.05737128171980159
ssVcloudwu/aoi
p5716
(dp5717
VC
p5718
F0.0027394798153388897
ssVNZKoz/formtastic
p5719
(dp5720
sVgarybernhardt/turbolinks_test
p5721
(dp5722
VCoffeeScript
p5723
F0.0008944334213445406
sVRuby
p5724
F0.0022459887080605256
ssVMarak/JSONloops
p5725
(dp5726
VJavaScript
p5727
F0.00014753311005273766
ssVyinwang0/lightsabers
p5728
(dp5729
VScheme
p5730
F1.0
ssVlancecarlson/kissgen
p5731
(dp5732
VRuby
p5733
F0.0015149326507167661
ssVmmower/objc-stomp
p5734
(dp5735
sVkamal/RubyMine-colors
p5736
(dp5737
sVkamal/detached_counter_cache
p5738
(dp5739
VRuby
p5740
F0.0003164272487010302
ssVleah/python-oauth
p5741
(dp5742
VPython
p5743
F0.004275368278279426
ssVjoehewitt/express-rewrite
p5744
(dp5745
VJavaScript
p5746
F7.013603404276813e-06
ssVagentzh/lua-resty-dns
p5747
(dp5748
VLua
p5749
F0.09122254662715705
sVPerl
p5750
F0.07862586164472957
ssVelbowdonkey/printables
p5751
(dp5752
sVweierophinney/Component_ZendCache
p5753
(dp5754
VPHP
p5755
F0.03399129873015656
ssVnorbauer/kindle-nom-nom
p5756
(dp5757
VRuby
p5758
F0.0010831929642054075
ssVayende/NHibernate-Course
p5759
(dp5760
VC#
p5761
F0.0007132355279276814
ssVJakeWharton/gms-mvn-install
p5762
(dp5763
VShell
p5764
F0.0008223833330311173
ssVjschairb/patron
p5765
(dp5766
sVhassox/jetski
p5767
(dp5768
VJavaScript
p5769
F1.0179110536864037e-05
ssVxhr/vim-nginx
p5770
(dp5771
VVimL
p5772
F0.023247119812079033
ssVgspederson/Reporting-before
p5773
(dp5774
sVrobbevan/migrate_test_db
p5775
(dp5776
VRuby
p5777
F0.00020471057508048623
ssVscharfie/blog-slate-plugin
p5778
(dp5779
VRuby
p5780
F0.000770981439037228
ssVayende/Alexandria
p5781
(dp5782
VC#
p5783
F0.004287834291679714
ssVmiyagawa/AnyEvent-Twitter-Stream
p5784
(dp5785
VPerl
p5786
F0.044985611023346875
ssVerica/NSObject-Utility-Categories
p5787
(dp5788
VObjective-C
p5789
F0.008022206104438757
ssVsgperez/project
p5790
(dp5791
VPHP
p5792
F2.3810476594339912e-06
ssVsoffes/blending-benchmarks
p5793
(dp5794
VObjective-C
p5795
F0.005850337271338902
ssVjosh/elpa
p5796
(dp5797
VEmacs Lisp
p5798
F0.020244862599417813
ssVagentzh/cookiexs
p5799
(dp5800
VPerl
p5801
F0.38139346629912674
ssVphilsturgeon/codeigniter-restserver
p5802
(dp5803
VPHP
p5804
F0.09696063874752592
ssVrobbevan/frank
p5805
(dp5806
sVjazzyfox/discourse
p5807
(dp5808
VJavaScript
p5809
F0.0239856874709313
sVRuby
p5810
F0.14983722967447793
ssVouterim/ripple
p5811
(dp5812
VRuby
p5813
F0.04811454864789968
ssVayende/Example.MapReduce
p5814
(dp5815
VC#
p5816
F0.00046720396582397935
ssVcanadaduane/Hipchat
p5817
(dp5818
VJavaScript
p5819
F2.2184147020826904e-07
ssVezmobius/tlabs-mendelmax
p5820
(dp5821
sVautomatthew/functor
p5822
(dp5823
VRuby
p5824
F0.0017197672176658655
ssVhenrik/henrik.github.com
p5825
(dp5826
sVakitaonrails/acts_as_solr_reloaded
p5827
(dp5828
VRuby
p5829
F0.025255531742228346
ssVgarybernhardt/the-march-of-progress
p5830
(dp5831
VObjective-C
p5832
F0.00011782209222468268
sVRuby
p5833
F0.0004958434825844121
ssVcowboy/benalman.com-content-OLD
p5834
(dp5835
VPython
p5836
F0.0029572741056484654
sVVimL
p5837
F0.0037820964154199875
ssVcdcarter/io
p5838
(dp5839
VIo
p5840
F1.0
ssVcloudwu/lua-serialize
p5841
(dp5842
VLua
p5843
F0.003970934286212306
ssVjsierles/homebrew-alt
p5844
(dp5845
sVjschairb/distribunaut
p5846
(dp5847
VRuby
p5848
F0.0031114519509810546
ssVleegee/MilkChart
p5849
(dp5850
VJavaScript
p5851
F0.0004940153570610988
ssVnzakas/jstools
p5852
(dp5853
VJavaScript
p5854
F7.508480530126029e-05
ssVsoffes/acts_as_list
p5855
(dp5856
VRuby
p5857
F0.006702380457889573
ssVcowboy/grunt
p5858
(dp5859
VJavaScript
p5860
F0.00014701263583417215
sVPerl
p5861
F0.0011607464437653117
ssVlifo/cramp-pub-sub-chat-demo
p5862
(dp5863
VRuby
p5864
F0.0003751993944237137
ssVjsierles/amatsung
p5865
(dp5866
sVrobbevan/chanko_sample
p5867
(dp5868
VCoffeeScript
p5869
F0.0026833002640336214
sVRuby
p5870
F0.002676612467754365
ssVdesandro/close-pixelate
p5871
(dp5872
VJavaScript
p5873
F3.617722437242541e-05
ssVpsi/chef-cookbook-template
p5874
(dp5875
VRuby
p5876
F0.00046137374310992684
ssVrbazinet/downforeveryoneorjustme
p5877
(dp5878
sVjwhitmire/dial-a-script
p5879
(dp5880
VShell
p5881
F0.01881526312177851
ssVJakeWharton/butterknife
p5882
(dp5883
VJava
p5884
F0.0007471723314907473
ssVmiyagawa/AnyEvent-mDNS
p5885
(dp5886
VPerl
p5887
F0.009318065921839508
ssVcommonsguy/cwac-colormixer
p5888
(dp5889
VPerl
p5890
F0.020251548553435347
ssVentryway/hitch
p5891
(dp5892
VRuby
p5893
F0.0019972610196223334
ssVcowboy/bash-misc
p5894
(dp5895
VShell
p5896
F0.0008821154557934293
ssVdaikini/chunky_bacon
p5897
(dp5898
VRuby
p5899
F0.0038866491135511336
ssVcanadaduane/peslyak-psoriasis-paper
p5900
(dp5901
sVMarak/node-stats
p5902
(dp5903
VJavaScript
p5904
F5.0750502492260936e-05
ssVweierophinney/Component_ZendFile
p5905
(dp5906
VPHP
p5907
F0.005840786716580595
ssVjoehewitt/hascan
p5908
(dp5909
VJavaScript
p5910
F0.00021223402807540325
ssVginatrapani/why_i_love_github
p5911
(dp5912
sVmathiasbynens/escodegen
p5913
(dp5914
VJavaScript
p5915
F0.020204655582158518
ssVlancecarlson/managespec
p5916
(dp5917
sVhenrik/cloudinary_gem
p5918
(dp5919
VRuby
p5920
F0.011456476684259045
ssVakitaonrails/brazilian-rails
p5921
(dp5922
VRuby
p5923
F0.016089556846861985
ssVsebastianbergmann/php-timer
p5924
(dp5925
VPHP
p5926
F0.001143670956418456
ssVrtomayko/rip
p5927
(dp5928
VRuby
p5929
F0.001682321673344662
ssVrobbyrussell/faker
p5930
(dp5931
VRuby
p5932
F0.010826102024229251
ssVerica/uidevice-extension
p5933
(dp5934
VObjective-C
p5935
F0.02064036979113234
ssVleah/django-pagination
p5936
(dp5937
VPython
p5938
F0.0026107624931780526
ssVchovy/tabbed-navigation
p5939
(dp5940
VShell
p5941
F0.00013013069601789404
sVJavaScript
p5942
F3.319089688885256e-05
ssVmiyagawa/ark-perl
p5943
(dp5944
VPerl
p5945
F0.28954115746568576
ssVrmurphey/dotfiles
p5946
(dp5947
VVimL
p5948
F0.616753534422062
ssVJeffreyWay/Phing-Build-Script-for-Web-Designers
p5949
(dp5950
sVded/bonzo
p5951
(dp5952
VJavaScript
p5953
F0.0028270623726917928
ssVsoffes/bully
p5954
(dp5955
VObjective-C
p5956
F0.007784321956258884
ssVnathanmarz/jackknife
p5957
(dp5958
sVrdempsey/CouchLog
p5959
(dp5960
VRuby
p5961
F0.00038586269512445377
ssVkoush/android_vendor_acer_salsa
p5962
(dp5963
sVagentzh/linguist
p5964
(dp5965
VRuby
p5966
F0.010228089241907516
ssVcreationix/canvasclock
p5967
(dp5968
VJavaScript
p5969
F2.6697767703141298e-05
ssVkamal/rack
p5970
(dp5971
VRuby
p5972
F0.03882991353427042
ssVlifo/cramp
p5973
(dp5974
VRuby
p5975
F0.007278074703860922
ssVmattslack/annual-aggregator
p5976
(dp5977
VRuby
p5978
F0.004453167961245102
ssVwaterschaats/core
p5979
(dp5980
sVsstephenson/execjs
p5981
(dp5982
VRuby
p5983
F0.003351624200484932
ssVglassesfactory/njango
p5984
(dp5985
sVded/jquery.rtl.js
p5986
(dp5987
VJavaScript
p5988
F2.127971641151627e-05
ssVrtomayko/MiniProfiler
p5989
(dp5990
VASP
p5991
F1.0
sVPuppet
p5992
F1.0
ssVcreationix/creationix.com
p5993
(dp5994
sVdrnic/8cpj
p5995
(dp5996
VJavaScript
p5997
F0.0005976921149265095
sVRuby
p5998
F0.0011998693125704818
ssVhenrik/gchartrb
p5999
(dp6000
VRuby
p6001
F0.010075703235381823
ssVcloudwu/SharpLua
p6002
(dp6003
sVdesandro/draggabilly
p6004
(dp6005
VJavaScript
p6006
F0.00010180817009711792
ssVweierophinney/Component_ZendLoader
p6007
(dp6008
VPHP
p6009
F0.0037774168997085065
ssVweierophinney/Component_ZendFilter
p6010
(dp6011
VPHP
p6012
F0.014854588267318534
ssVfelixge/async
p6013
(dp6014
sVstepbystep55/procs
p6015
(dp6016
VJava
p6017
F0.0010455183725231736
ssVphilsturgeon/chef-php-fpm
p6018
(dp6019
VRuby
p6020
F0.000629258733212276
ssVvim-scripts/ABAP.vim
p6021
(dp6022
VVimL
p6023
F0.004183204251898837
ssVscharfie/guard
p6024
(dp6025
sVxhr/minifactory
p6026
(dp6027
VRuby
p6028
F0.0005986327416648016
ssVagentzh/encrypted-session-nginx-module
p6029
(dp6030
VC
p6031
F0.00299284685004099
sVPerl
p6032
F0.006745167122525613
ssVmathiasbynens/cdnjs
p6033
(dp6034
VJavaScript
p6035
F0.009807423685894321
ssVcommonsguy/cwac-richedit
p6036
(dp6037
VPerl
p6038
F0.020251548553435347
ssVdrnic/associated_with
p6039
(dp6040
VRuby
p6041
F0.0010552947937674246
ssVdanielharan/github_resys
p6042
(dp6043
VRuby
p6044
F0.0005327930594311625
ssVdrnic/.dotfiles
p6045
(dp6046
VShell
p6047
F0.0035757497536938803
ssVkamal/gitx
p6048
(dp6049
VObjective-C
p6050
F0.19589154812405274
ssVmislav/addressable
p6051
(dp6052
VRuby
p6053
F0.0708883831398337
ssVmiyagawa/asana_digest
p6054
(dp6055
VRuby
p6056
F0.0006748877408619542
ssVvim-scripts/acsb
p6057
(dp6058
VVimL
p6059
F0.02223227804327915
ssVezmobius/redis
p6060
(dp6061
sVtopfunky/google-checkout
p6062
(dp6063
VRuby
p6064
F0.006637656702473452
ssVrmurphey/berlinjs.org
p6065
(dp6066
sVMarak/data-behaviors
p6067
(dp6068
VJavaScript
p6069
F0.009923796601747034
ssVsebastianbergmann/phpunit-mock-objects
p6070
(dp6071
VPHP
p6072
F0.021959711291058576
ssVrobbevan/Specs
p6073
(dp6074
VRuby
p6075
F0.12617685332195916
ssVsstephenson/dimensions
p6076
(dp6077
VRuby
p6078
F0.0017712238431403671
ssVsebastianbergmann/exporter
p6079
(dp6080
VPHP
p6081
F0.0020796531105430564
ssVAlexanderFlatscher/puzzlesFrontEndAIR
p6082
(dp6083
VActionScript
p6084
F0.019274791685743066
ssVjdhuntington/dotfiles
p6085
(dp6086
VEmacs Lisp
p6087
F0.2391594788672669
sVErlang
p6088
F0.45361227587657993
ssVded/klass
p6089
(dp6090
VJavaScript
p6091
F0.00012615953763459484
ssVnzakas/oocss
p6092
(dp6093
VJavaScript
p6094
F0.0024169372208263746
ssVibdknox/Korma
p6095
(dp6096
sVweierophinney/Component_ZendCrypt
p6097
(dp6098
VPHP
p6099
F0.008719319720858262
ssVdanielharan/mp-ca-scraper
p6100
(dp6101
VRuby
p6102
F0.0023584493328927493
ssVnextgen666/ProsilverME
p6103
(dp6104
VJavaScript
p6105
F2.076777455718949e-05
ssVhornbeck/blerb-core
p6106
(dp6107
VRuby
p6108
F0.012760871142070503
ssVmattslack/rounder
p6109
(dp6110
sVrobbyrussell/delayed_job
p6111
(dp6112
sVfloydprice/smoothie
p6113
(dp6114
sVcowboy/javascript-emotify
p6115
(dp6116
VPHP
p6117
F0.001880874034974825
sVJavaScript
p6118
F0.0027016963449314046
ssVmattslack/radiant
p6119
(dp6120
VRuby
p6121
F0.08614359870279707
ssVrbazinet/render_mate
p6122
(dp6123
VRuby
p6124
F0.00017148075429213353
ssVjnunemaker/flipper-mongo
p6125
(dp6126
VRuby
p6127
F0.0009777998758841396
ssVasseym/rapidsms-auth
p6128
(dp6129
VPython
p6130
F0.0008555911729991851
ssVded/R2
p6131
(dp6132
VJavaScript
p6133
F0.00014315600719824376
ssVcowboy/grunt-gruntplugin-example
p6134
(dp6135
VJavaScript
p6136
F2.2713153603631236e-05
ssVrtomayko/lesscode.org
p6137
(dp6138
VJavaScript
p6139
F4.674882366427331e-05
ssVhassox/conventionsapp
p6140
(dp6141
sVcowboy/grunt-commonjs-example
p6142
(dp6143
VJavaScript
p6144
F2.7798442689943866e-05
ssVcloudwu/lua-int64
p6145
(dp6146
VLua
p6147
F0.0019173784207774098
ssVded/sqwish
p6148
(dp6149
VJavaScript
p6150
F6.420604089681633e-05
ssVNZKoz/bigdecimal-segfault-fix
p6151
(dp6152
VRuby
p6153
F0.00017755635585418308
ssVsebastianbergmann/phpcpd
p6154
(dp6155
VPHP
p6156
F0.005436699886377942
ssVibdknox/lein-cljsbuild
p6157
(dp6158
sVAlexanderFlatscher/alexanderflatscher.github.com
p6159
(dp6160
VJavaScript
p6161
F0.004846894829481128
ssVmerb/old-wiki
p6162
(dp6163
sVimgf/unwrite
p6164
(dp6165
sVtopfunky/cappuccino-couchdb
p6166
(dp6167
VObjective-J
p6168
F1.0
ssVcreationix/detectindent
p6169
(dp6170
VJavaScript
p6171
F6.501661549950038e-06
ssVrtomayko/gitscm
p6172
(dp6173
VRuby
p6174
F0.0004090491745551327
ssVlifo/misfit_client
p6175
(dp6176
VRuby
p6177
F0.000572718441124631
ssVsoffes/enmatz.com
p6178
(dp6179
VRuby
p6180
F0.0018557862975346077
ssVayende/lucene.net
p6181
(dp6182
VC#
p6183
F0.5812808920516984
sVPowerShell
p6184
F1.0
ssVcommonsguy/cwac-updater
p6185
(dp6186
VPerl
p6187
F0.020251548553435347
ssVmacournoyer/is_taggable
p6188
(dp6189
VRuby
p6190
F0.001066082086336778
ssVdaikini/cocoa-extensions
p6191
(dp6192
sVmattslack/radiant-sitemap_search-extension
p6193
(dp6194
VRuby
p6195
F0.0025570843064111858
ssVezmobius/vcap-tests
p6196
(dp6197
VErlang
p6198
F0.06016201511940725
ssVrobbevan/facebooker
p6199
(dp6200
VRuby
p6201
F0.06256121323563602
ssVwaterschaats/A2ACLdemo
p6202
(dp6203
sVnathanmarz/pallet-crates
p6204
(dp6205
sVvanpelt/guestlist
p6206
(dp6207
sVJakeWharton/davealcorn.com
p6208
(dp6209
VPython
p6210
F0.001251266933083095
ssVJeffreyWay/Quiz-Preparer
p6211
(dp6212
VPHP
p6213
F0.07566531656143845
ssVrobbevan/authlogic_facebook_connect
p6214
(dp6215
VRuby
p6216
F0.0011166707687309866
ssVjsierles/js_named_routes
p6217
(dp6218
VRuby
p6219
F0.0002474877697520597
ssVdanielharan/scraper
p6220
(dp6221
sVautomatthew/shred
p6222
(dp6223
VCoffeeScript
p6224
F0.05876310403549612
ssVhassox/dm-more
p6225
(dp6226
sVnecolas/idiomatic-css
p6227
(dp6228
sValexvollmer/clip
p6229
(dp6230
VRuby
p6231
F0.0035407118001201483
ssVlancecarlson/couchgo
p6232
(dp6233
VGo
p6234
F0.5465821638750566
ssVjnunemaker/feedzirra
p6235
(dp6236
VRuby
p6237
F0.010255863420476886
ssVscharfie/facebox
p6238
(dp6239
VShell
p6240
F0.0001112866334797837
sVJavaScript
p6241
F8.409498193741152e-05
ssVyinwang0/ydiff
p6242
(dp6243
VRacket
p6244
F1.0
ssVlancecarlson/lancecarlson.github.com
p6245
(dp6246
sVchovy/wineapp_1
p6247
(dp6248
VPython
p6249
F0.000465090586348275
ssVdesandro/demo
p6250
(dp6251
VJavaScript
p6252
F0.0007859416671267032
sVPHP
p6253
F0.0011535791870012618
ssVdrnic/chef-repo
p6254
(dp6255
VRuby
p6256
F0.0005351489049348144
ssVnorbauer/openssh-for-git
p6257
(dp6258
VRuby
p6259
F0.00021029020916808275
ssVgspederson/practice_game_of_life
p6260
(dp6261
sVtopfunky/ember.js
p6262
(dp6263
VJavaScript
p6264
F0.008214917627275784
ssVautomatthew/rephraser
p6265
(dp6266
VJavaScript
p6267
F2.7841104511137764e-05
sVRuby
p6268
F4.017336543069506e-05
ssVnecolas/suit-button-group
p6269
(dp6270
sVakitaonrails/cells_demo
p6271
(dp6272
VRuby
p6273
F0.007654885992576607
ssVpsi/runit-rpm
p6274
(dp6275
VShell
p6276
F0.00026595016563219875
ssVnathanmarz/nanny
p6277
(dp6278
VPython
p6279
F0.0019933418018671352
ssVrtomayko/discount
p6280
(dp6281
VC
p6282
F0.019838064846545673
sVPerl
p6283
F0.05578536710612182
ssVvanpelt/jekyll
p6284
(dp6285
VRuby
p6286
F0.0021534907740750364
ssVibdknox/cljs-template
p6287
(dp6288
sVcdcarter/statister
p6289
(dp6290
VC#
p6291
F0.0007420020878998282
sVJavaScript
p6292
F0.0019661468209989335
ssVphilsturgeon/codeigniter-payments
p6293
(dp6294
VPHP
p6295
F0.016008858726220918
ssVrbazinet/cheddar-mac
p6296
(dp6297
sVogc/rails_skeleton
p6298
(dp6299
VRuby
p6300
F0.004865688908121405
ssVjosh/bundler
p6301
(dp6302
VRuby
p6303
F0.024764275958782625
ssVyinwang0/blog-cn
p6304
(dp6305
VJavaScript
p6306
F6.497395367830648e-05
ssVdanahern/ruby_game
p6307
(dp6308
VRuby
p6309
F0.000415000784248569
ssVelbowdonkey/gitignore
p6310
(dp6311
sValthjs/xx
p6312
(dp6313
sVcanadaduane/osx-space-id
p6314
(dp6315
VC
p6316
F0.0028505021341047937
ssVlancecarlson/Gajure
p6317
(dp6318
sVjsierles/clickatell
p6319
(dp6320
VRuby
p6321
F0.004251805166617173
ssVkamal/will_paginate
p6322
(dp6323
VRuby
p6324
F0.01111884682602515
ssVhenrik/exception_logger
p6325
(dp6326
VRuby
p6327
F0.001352379310964787
ssVjacobian/django-sitetree
p6328
(dp6329
sVmislav/asbestos
p6330
(dp6331
VRuby
p6332
F0.0007573423334897698
ssVMarak/ANSIdom
p6333
(dp6334
VJavaScript
p6335
F5.1108861790289676e-05
ssVjacobian/metrology
p6336
(dp6337
VPython
p6338
F0.007349646305021797
ssVgarybernhardt/python-mock-comparison
p6339
(dp6340
VPython
p6341
F0.000801701867033819
ssVjdhuntington/magit
p6342
(dp6343
VEmacs Lisp
p6344
F0.002012716102440013
ssVkamal/geekcamp-hub
p6345
(dp6346
VJavaScript
p6347
F0.00011733707301169676
ssVdanielharan/hansard_scraper
p6348
(dp6349
VRuby
p6350
F0.0019064989717974298
ssVrichhickey/clojure-clr
p6351
(dp6352
VC#
p6353
F0.22485735289441447
sVClojure
p6354
F1.0
ssVmdo/mdo-df-css
p6355
(dp6356
sVpkrumins/endtable
p6357
(dp6358
VJavaScript
p6359
F0.0010083889351959257
ssVtopfunky/emacs-starter-kit
p6360
(dp6361
VEmacs Lisp
p6362
F0.011017059118031428
ssVJakeWharton/github-deploy-maven-plugin
p6363
(dp6364
VJava
p6365
F0.001114123069479382
ssVmadrobby/emile
p6366
(dp6367
VJavaScript
p6368
F0.00027583427111126617
ssVjosh/components-jquery
p6369
(dp6370
VJavaScript
p6371
F7.67912781490162e-08
ssVlifo/lifo.github.com
p6372
(dp6373
sVvim-scripts/accentuate.vim
p6374
(dp6375
VVimL
p6376
F0.0021659823169857878
ssVmathiasbynens/html5shiv
p6377
(dp6378
VJavaScript
p6379
F0.0019091506278838856
ssVjosh/brew-gem
p6380
(dp6381
VRuby
p6382
F0.00019441924998558595
ssVrbazinet/simplelog
p6383
(dp6384
VRuby
p6385
F0.04658944866395662
ssVjoehewitt/nerve
p6386
(dp6387
VJavaScript
p6388
F0.0006097398132316662
ssVlifo/sidekick
p6389
(dp6390
VRuby
p6391
F0.0017135676242352028
ssVagentzh/lua-redis-parser
p6392
(dp6393
VPerl
p6394
F0.03556947896570538
ssVayende/courses-ravendb-fleet-street-nov-2012
p6395
(dp6396
VASP
p6397
F0.006460365656696168
sVJavaScript
p6398
F0.0037001194786964353
ssVhenrik/albino
p6399
(dp6400
sVjacobian/djangobook.com
p6401
(dp6402
VPython
p6403
F0.0017749719837486053
ssVcdcarter/cdcarter.github.com
p6404
(dp6405
sVdesandro/lists
p6406
(dp6407
sVkoush/android_device_generic
p6408
(dp6409
VC
p6410
F0.0038565906505432304
ssVdanielharan/people_you_may_know
p6411
(dp6412
VRuby
p6413
F0.0008467404707599276
ssVcanadaduane/merb_active_admin
p6414
(dp6415
VJavaScript
p6416
F0.0005622230767859028
sVRuby
p6417
F0.0017210071363519981
ssVmacournoyer/cache_digests
p6418
(dp6419
VRuby
p6420
F0.0014130113347166694
ssVjschairb/enrollment_service
p6421
(dp6422
VCoffeeScript
p6423
F0.0008944334213445406
sVRuby
p6424
F0.00348937916651426
ssVJia-Liu/CCIndex
p6425
(dp6426
sVantirez/linenoise
p6427
(dp6428
VC
p6429
F0.00526363864908305
ssVjnunemaker/flipper
p6430
(dp6431
VRuby
p6432
F0.01601602966877432
ssVginatrapani/Social-Timeline
p6433
(dp6434
sVvim-scripts/3DGlasses.vim
p6435
(dp6436
VVimL
p6437
F0.003308555513324569
ssVmacournoyer/macournoyer.github.com
p6438
(dp6439
sVjdhuntington/bus-scheme
p6440
(dp6441
VScheme
p6442
F0.024695661746493347
ssVagentzh/headers-more-nginx-module
p6443
(dp6444
VPerl
p6445
F0.11083612970405424
ssVcommonsguy/cwac-task
p6446
(dp6447
VJava
p6448
F0.0006015569592730352
ssVjoehewitt/ajax
p6449
(dp6450
VJavaScript
p6451
F2.6015178564038936e-05
ssVscharfie/bam
p6452
(dp6453
VJavaScript
p6454
F4.999965443924833e-06
ssVtopfunky/castanaut
p6455
(dp6456
VRuby
p6457
F0.004457755660383792
ssValexvollmer/github-gem
p6458
(dp6459
VRuby
p6460
F0.008355192066504279
ssVmislav/big_sitemap
p6461
(dp6462
VRuby
p6463
F0.00226024777295105
ssVdaikini/fityk-ruby
p6464
(dp6465
VC++
p6466
F0.009327199734446701
ssVDoogiemuc/Dokuwiki-Plugin-Doodle2
p6467
(dp6468
VShell
p6469
F0.0006449647064930595
sVPHP
p6470
F0.002405626215918471
ssVantirez/iPhoneTracker
p6471
(dp6472
sVmadrobby/logo.js
p6473
(dp6474
sVscharfie/backbone-deep-model
p6475
(dp6476
sVayende/dotnet-protobufs
p6477
(dp6478
VC#
p6479
F0.15750028429715007
ssVrtomayko/astrotrain
p6480
(dp6481
VRuby
p6482
F0.004874740314530173
ssVsoffes/iphone-library-test-library
p6483
(dp6484
VObjective-C
p6485
F0.00015634946838940782
ssVmislav/cook
p6486
(dp6487
VRuby
p6488
F0.00019156743700748108
ssVrdempsey/Coupon-Tracker-Test-App
p6489
(dp6490
VRuby
p6491
F0.0025910580784112183
ssVchovy/express-force-domain
p6492
(dp6493
VJavaScript
p6494
F2.610903457066551e-06
ssVrbazinet/poi
p6495
(dp6496
sVpsi/octokit
p6497
(dp6498
VRuby
p6499
F0.03654672726562592
ssVleah/django-elsewhere
p6500
(dp6501
VPython
p6502
F0.002485883308164365
ssVmiyagawa/App-perlbrew
p6503
(dp6504
VPerl
p6505
F0.030657257072351413
ssVAlexanderFlatscher/portfolio
p6506
(dp6507
VCoffeeScript
p6508
F0.07334354055025233
ssVMarak/node_hash
p6509
(dp6510
VJavaScript
p6511
F2.6586846968037164e-05
ssVDmitryBaranovskiy/g.raphael
p6512
(dp6513
VJavaScript
p6514
F0.0006540057189024546
ssVmerb/merb.github.com
p6515
(dp6516
sVmadrobby/bitarray.js
p6517
(dp6518
VJavaScript
p6519
F1.725244049081231e-05
ssVautomatthew/desire
p6520
(dp6521
VRuby
p6522
F0.005486392202399367
ssVakitaonrails/gitstats-ruby
p6523
(dp6524
sVNZKoz/dropwizard
p6525
(dp6526
VScala
p6527
F0.04699988489007001
ssVmjankowski/sms-fu
p6528
(dp6529
VRuby
p6530
F0.001053434915738226
ssVmislav/cane
p6531
(dp6532
VRuby
p6533
F0.0029739449686889538
ssVantirez/load81
p6534
(dp6535
VLua
p6536
F0.2582196705595259
ssVayende/courses-stockholm-oct-2012
p6537
(dp6538
VC#
p6539
F0.0017228946246550033
sVASP
p6540
F0.007041798565798824
ssVhassox/hashie
p6541
(dp6542
VRuby
p6543
F0.0028458613684114596
ssVerica/ABContactHelper
p6544
(dp6545
VObjective-C
p6546
F0.020833006671955968
ssVakitaonrails/factory_girl
p6547
(dp6548
VRuby
p6549
F0.010919963868769486
ssVvim-scripts/A-better-tcl-indent
p6550
(dp6551
VVimL
p6552
F0.0015413444823138705
ssVguille/connect
p6553
(dp6554
VJavaScript
p6555
F0.001743272934717772
ssVhenrik/atomica
p6556
(dp6557
VRuby
p6558
F0.0006138837415042322
ssVsstephenson/coffee-script
p6559
(dp6560
VCoffeeScript
p6561
F0.9479861577639946
ssValexvollmer/tuneup_js
p6562
(dp6563
VJavaScript
p6564
F0.000255015302368644
sVRuby
p6565
F0.002138487757972832
ssVAlexanderFlatscher/puzzlesFrontEnd
p6566
(dp6567
VActionScript
p6568
F0.022248529482299283
ss.