ccollections
defaultdict
p0
(tRp1
Vnecolas/suit-utils-dimension
p2
Vtwitter
p3
sVguille/emitter
p4
Vmootools
p5
sVvanpelt/merb-core
p6
Vdolores
p7
sVMarak/natman
p8
Vbigcompany
p9
sVezmobius/nanite
p10
Vrubinius
p11
sVdesandro/dropshado.ws
p12
Vtwitter
p13
sVezmobius/redis-rb
p14
Vrubinius
p15
sVasseym/formhub
p16
Vunicefuganda
p17
sVrmurphey/dojo-transformers
p18
Vbocoup
p19
sVginatrapani/todo.txt-aim-bot
p20
VThinkUpLLC
p21
sVsstephenson/eve
p22
V37signals
p23
sVNZKoz/cassandra_object
p24
Vrails
p25
sVdesandro/3dtransforms
p26
Vtwitter
p27
sVhassox/dotfiles
p28
Vsydjs
p29
sVmacournoyer/orange
p30
Vrack
p31
sVup_the_irons/credit_card_tools
p32
Vpledgie
p33
sVJeffreyWay/Easy-WordPress-Custom-Post-Types
p34
Venvato
p35
sVnathanmarz/kryo
p36
VCascading
p37
sVlancecarlson/eugene
p38
Vrubyskills
p39
sVantirez/otree
p40
Vredis
p41
sVibdknox/CodeMirror
p42
VKodowa
p43
sVcanadaduane/node-serialport
p44
Vinstructure
p45
sVjacobian/fumblerooski
p46
Vdjango
p47
sVayende/courses-trondheim-sep-2012
p48
Vcastleproject
p49
sVmislav/developer.dnsimple.com
p50
Vrails
p51
sVjwhitmire/donors_choose_gem
p52
Vrochester-rb
p53
sVagentzh/lua-php-utils
p54
Vcloudflare
p55
sVrtomayko/kidgloves
p56
Vsinatra
p57
sVNZKoz/UnwindSegues
p58
Vrails
p59
sVguille/express-trace
p60
Vmootools
p61
sVlancecarlson/altered_beast
p62
Vrubyskills
p63
sVmjankowski/rails
p64
Vthoughtbot
p65
sVnathanmarz/kestrel
p66
VCascading
p67
sVded/matador
p68
Vchange
p69
sVfelixge/berlinjs.org
p70
Vtransloadit
p71
sVmacournoyer/faye
p72
Vrack
p73
sVmadrobby/jsnes
p74
Vcheerful
p75
sVhassox/i18n
p76
Vsydjs
p77
sVJeffreyWay/My-Vim-Repo
p78
Venvato
p79
sVpkrumins/bash-vi-editing-mode-cheat-sheet
p80
Vbrowserling
p81
sVrtomayko/rocco
p82
Vsinatra
p83
sVjacobian/chishop
p84
Vdjango
p85
sVrmurphey/dojo-scaffold
p86
Vbocoup
p87
sVjosh/ace
p88
Vgithub
p89
sVezmobius/ez-scheme
p90
Vrubinius
p91
sVnathanmarz/cascading.elasticsearch
p92
VCascading
p93
sVmadrobby/js1k-finals
p94
Vcheerful
p95
sVNZKoz/AFNetworking
p96
Vrails
p97
sVnecolas/suit-grid-layouts
p98
Vtwitter
p99
sVnecolas/grunt-usemin
p100
Vtwitter
p101
sVagentzh/makefile-parser-pm
p102
Vcloudflare
p103
sVjwhitmire/rr
p104
Vrochester-rb
p105
sVsebastianbergmann/php-object-freezer
p106
VthePHPcc
p107
sVnecolas/idiomatic-js
p108
Vtwitter
p109
sVasseym/ureport-project
p110
Vunicefuganda
p111
sVjacobian/django
p112
Vdjango
p113
sVhassox/httpi
p114
Vsydjs
p115
sVdrnic/bosh-getting-started
p116
Vmocra
p117
sVsoffes/findi
p118
VCocoaPods
p119
sVmiyagawa/App-BundleDeps
p120
Vcookpad
p121
sVhornbeck/fuzed
p122
Vbasho
p123
sVphilsturgeon/chef-logstash
p124
Vpyrocms
p125
sVsebastianbergmann/php-code-coverage
p126
VthePHPcc
p127
sVdrnic/bosh-solo
p128
Vmocra
p129
sVguille/jackpot
p130
Vmootools
p131
sVjwhitmire/fbootstrapp
p132
Vrochester-rb
p133
sVmadrobby/jslogocrazyness
p134
Vcheerful
p135
sVakitaonrails/active_merchant
p136
VCodeminer42
p137
sVded/Kizzy
p138
Vchange
p139
sVnecolas/newsriver-ui
p140
Vtwitter
p141
sVhenrik/henrik.nyh.se
p142
Vbarsoom
p143
sVsebastianbergmann/php-project-wizard
p144
VthePHPcc
p145
sVmacournoyer/iolounge
p146
Vrack
p147
sVelbowdonkey/screw-unit
p148
Vlivingsocial
p149
sVfelixge/commander.js
p150
Vtransloadit
p151
sVnathanmarz/elephantdb-cascading
p152
VCascading
p153
sVlifo/journey_demo
p154
Vrails
p155
sVantirez/recidiv
p156
Vredis
p157
sVvanpelt/evercookie
p158
Vdolores
p159
sVrmurphey/2012.jsconf.eu
p160
Vbocoup
p161
sVmislav/cane
p162
Vrails
p163
sVjwhitmire/excelinator
p164
Vrochester-rb
p165
sVmacournoyer/meshu
p166
Vrack
p167
sVxhr/taggart
p168
Vwurbe
p169
sVDmitryBaranovskiy/optimus
p170
Vsydjs
p171
sVxhr/certified
p172
Vwurbe
p173
sVantirez/redis-doc
p174
Vredis
p175
sVkoush/android_vendor_google_passion
p176
VCyanogenMod
p177
sVleah/getwelltermie
p178
Vsincerely
p179
sVmadrobby/EventSource
p180
Vcheerful
p181
sVNZKoz/delayed_job
p182
Vrails
p183
sVmdo/sublime-snippets
p184
Vgithub
p185
sVJeffreyWay/Laravel-Guard
p186
Venvato
p187
sVdesandro/FitText.js
p188
Vtwitter
p189
sVmadrobby/exploder
p190
Vcheerful
p191
sVAlexanderFlatscher/FileServer
p192
Vfh-salzburg
p193
sVtteofili/btl
p194
Vsourcesense
p195
sVnathanmarz/elephantdb
p196
VCascading
p197
sVgarybernhardt/expecter
p198
Vspeakerconf
p199
sVdrnic/bosh
p200
Vmocra
p201
sVguille/latency-io
p202
Vmootools
p203
sVibdknox/gambit
p204
VKodowa
p205
sVakitaonrails/cramp_chat_demo
p206
VCodeminer42
p207
sVjwhitmire/disco-tmbundle
p208
Vrochester-rb
p209
sVsstephenson/gosh
p210
V37signals
p211
sVjacobian/django-pjax
p212
Vdjango
p213
sVmislav/fakefs
p214
Vrails
p215
sVnathanmarz/kafka-deploy
p216
VCascading
p217
sVMarak/ospriet
p218
Vbigcompany
p219
sVxhr/tmux-powerline
p220
Vwurbe
p221
sVhenrik/CamelCaseMotion
p222
Vbarsoom
p223
sVxhr/bxslider
p224
Vwurbe
p225
sVrmurphey/complexityReport.js
p226
Vbocoup
p227
sVdrnic/bosh-bootstrap
p228
Vmocra
p229
sVginatrapani/isosceles
p230
VThinkUpLLC
p231
sVakitaonrails/cookbooks
p232
VCodeminer42
p233
sVup_the_irons/Ruby-Radius
p234
Vpledgie
p235
sVginatrapani/todo.txt-touch-ios
p236
VThinkUpLLC
p237
sVpkrumins/browserify-website
p238
Vbrowserling
p239
sVguille/jsconf-todo-demo
p240
Vmootools
p241
sVcowboy/embedly-jquery
p242
Vjquery
p243
sVibdknox/clojure
p244
VKodowa
p245
sVasseym/rapidsms-uganda-common
p246
Vunicefuganda
p247
sVginatrapani/narrowthegapp
p248
VThinkUpLLC
p249
sVrbazinet/iOS-ClearStyle
p250
Vpostrank-labs
p251
sVantirez/lamernews
p252
Vredis
p253
sVcowboy/enterprise-js
p254
Vjquery
p255
sVhenrik/go_to_param
p256
Vbarsoom
p257
sVjsierles/dropbox-api
p258
Vrubytune
p259
sVantirez/redis-rb-cluster
p260
Vredis
p261
sVkoush/android_packages_apps_Superuser
p262
VCyanogenMod
p263
sVkamal/friendly_id
p264
Vbitfluent
p265
sVelbowdonkey/gcode_to_canvas
p266
Vlivingsocial
p267
sVlancecarlson/dm-mongo-adapter
p268
Vrubyskills
p269
sVmislav/albino
p270
Vrails
p271
sVmislav/git-deploy
p272
Vrails
p273
sVkoush/android_device_htc_ace
p274
VCyanogenMod
p275
sVnathanmarz/leiningen
p276
VCascading
p277
sVmislav/bundler
p278
Vrails
p279
sVvanpelt/lyndon
p280
Vdolores
p281
sVrtomayko/distributed-management-talk
p282
Vsinatra
p283
sVJeffreyWay/Laravel-Testing-Decoded
p284
Venvato
p285
sVnecolas/suit
p286
Vtwitter
p287
sVsstephenson/mdtoc
p288
V37signals
p289
sVnathanmarz/clojars-web
p290
VCascading
p291
sVjnunemaker/aaws
p292
Vgithub
p293
sVcanadaduane/getdoc
p294
Vinstructure
p295
sVgarybernhardt/webkit
p296
Vspeakerconf
p297
sVcreationix/candor.io
p298
Vsenchalabs
p299
sVasseym/django-eav
p300
Vunicefuganda
p301
sVMarak/node_mailer
p302
Vbigcompany
p303
sVsebastianbergmann/php-file-iterator
p304
VthePHPcc
p305
sVphilsturgeon/codeigniter-oauth2
p306
Vpyrocms
p307
sVjacobian/django-buildmaster
p308
Vdjango
p309
sVnathanmarz/storm
p310
VCascading
p311
sVhassox/haml
p312
Vsydjs
p313
sVMarak/play.js
p314
Vbigcompany
p315
sVcreationix/bench-suite
p316
Vsenchalabs
p317
sVrmurphey/gaucho
p318
Vbocoup
p319
sVagentzh/lua-resty-upload
p320
Vcloudflare
p321
sVagentzh/lua-resty-string
p322
Vcloudflare
p323
sVagentzh/lua-resty-memcached
p324
Vcloudflare
p325
sVjnunemaker/dotfiles
p326
Vgithub
p327
sVayende/IntroToNHibernate
p328
Vcastleproject
p329
sVded/bowser
p330
Vchange
p331
sVsoffes/any
p332
VCocoaPods
p333
sVsebastianbergmann/phpunit
p334
VthePHPcc
p335
sVmislav/choices
p336
Vrails
p337
sVsstephenson/37signalsMenu
p338
V37signals
p339
sVjwhitmire/ruby-tmbundle
p340
Vrochester-rb
p341
sVmadrobby/eyeballs.js
p342
Vcheerful
p343
sVweierophinney/Component_ZendEscaper
p344
Vzendframework
p345
sVmiyagawa/Acme-YakiniQ
p346
Vcookpad
p347
sVcowboy/comment.aculo.us
p348
Vjquery
p349
sVcowboy/javascript-hooker
p350
Vjquery
p351
sVhassox/foreman
p352
Vsydjs
p353
sVmadrobby/Evidence
p354
Vcheerful
p355
sVsoffes/houston
p356
VCocoaPods
p357
sVmadrobby/blink
p358
Vcheerful
p359
sVasseym/RapidFTR-chef-repo
p360
Vunicefuganda
p361
sVMarak/npmtop
p362
Vbigcompany
p363
sVnathanmarz/carbonite
p364
VCascading
p365
sVcowboy/gaucho
p366
Vjquery
p367
sVjacobian/django-faq
p368
Vdjango
p369
sVxhr/vim-io
p370
Vwurbe
p371
sVkoush/android_external_yaffs2
p372
VCyanogenMod
p373
sVasseym/rapidsms-contact
p374
Vunicefuganda
p375
sVjwhitmire/rspec_validation_expectations
p376
Vrochester-rb
p377
sVsoffes/cloudapp.uploader
p378
VCocoaPods
p379
sVezmobius/nats
p380
Vrubinius
p381
sVded/script.js
p382
Vchange
p383
sVibdknox/colorize
p384
VKodowa
p385
sVezmobius/vmc
p386
Vrubinius
p387
sVmathiasbynens/grunt-yui-compressor
p388
ViRail
p389
sVtteofili/m2s
p390
Vsourcesense
p391
sVMarak/machine.js
p392
Vbigcompany
p393
sVdrnic/bosh-sample-release
p394
Vmocra
p395
sVvanpelt/chris-snez
p396
Vdolores
p397
sVcanadaduane/pad
p398
Vinstructure
p399
sVsstephenson/hork
p400
V37signals
p401
sVweierophinney/argumentrewrap
p402
Vzendframework
p403
sVcowboy/javascript-packify
p404
Vjquery
p405
sVgarybernhardt/destroy-all-software-extras
p406
Vspeakerconf
p407
sVlifo/docrails
p408
Vrails
p409
sVasseym/rapidsms-generic
p410
Vunicefuganda
p411
sVdesandro/infinite-scroll
p412
Vtwitter
p413
sVweierophinney/Component_ZendLog
p414
Vzendframework
p415
sVjnunemaker/flipper-cassanity
p416
Vgithub
p417
sVfelixge/cakephp-browscap
p418
Vtransloadit
p419
sVvanpelt/cube
p420
Vdolores
p421
sVrmurphey/idiomatic.js
p422
Vbocoup
p423
sVnathanmarz/cascading-batch-query
p424
VCascading
p425
sVasseym/bamboo
p426
Vunicefuganda
p427
sVdrnic/Bundler.tmbundle
p428
Vmocra
p429
sVmathiasbynens/browser-diet
p430
ViRail
p431
sVsstephenson/everyjs.com
p432
V37signals
p433
sVhassox/dm-polymorphic
p434
Vsydjs
p435
sVnecolas/event
p436
Vtwitter
p437
sVrtomayko/bert
p438
Vsinatra
p439
sVantirez/Gitan
p440
Vredis
p441
sVphilsturgeon/ee2-rest
p442
Vpyrocms
p443
sVmathiasbynens/CSSCSS
p444
ViRail
p445
sVhenrik/bookmarks_bar_keyboard_shortcuts
p446
Vbarsoom
p447
sVagentzh/cheater
p448
Vcloudflare
p449
sVrbazinet/cheddarkit
p450
Vpostrank-labs
p451
sVjosh/bower
p452
Vgithub
p453
sVrichhickey/sdb
p454
Vclojure
p455
sVkamal/cucumber
p456
Vbitfluent
p457
sVkamal/contacts
p458
Vbitfluent
p459
sVpkrumins/immutable-hash
p460
Vbrowserling
p461
sVjwhitmire/lazy_developer
p462
Vrochester-rb
p463
sVsebastianbergmann/diff
p464
VthePHPcc
p465
sVMarak/JSLINQ
p466
Vbigcompany
p467
sVhassox/google-spreadsheet-ruby
p468
Vsydjs
p469
sVantirez/nolate
p470
Vredis
p471
sVlancecarlson/merb
p472
Vrubyskills
p473
sVvanpelt/fancy-zoom
p474
Vdolores
p475
sVrmurphey/dojo-sandbox
p476
Vbocoup
p477
sVmiyagawa/Catalyst-Engine-PSGI
p478
Vcookpad
p479
sVmdo/inca
p480
Vgithub
p481
sVmathiasbynens/custom.keylayout
p482
ViRail
p483
sVNZKoz/rails_xss
p484
Vrails
p485
sVdesandro/lazyweb-requests
p486
Vtwitter
p487
sVmathiasbynens/istanbul
p488
ViRail
p489
sVnathanmarz/jzmq
p490
VCascading
p491
sVmathiasbynens/brnfckr
p492
ViRail
p493
sVrtomayko/ipadsforautism.info
p494
Vsinatra
p495
sVjwhitmire/jwhitmire.github.com
p496
Vrochester-rb
p497
sVcanadaduane/Printrun
p498
Vinstructure
p499
sVmislav/eventmachine
p500
Vrails
p501
sVasseym/RapidFTR
p502
Vunicefuganda
p503
sVmdo/preboot
p504
Vgithub
p505
sVguille/define.js
p506
Vmootools
p507
sVphilsturgeon/codeigniter-cli
p508
Vpyrocms
p509
sVmdo/github-buttons
p510
Vgithub
p511
sVNZKoz/sprockets
p512
Vrails
p513
sVcanadaduane/Adafruit-ST7735-Library
p514
Vinstructure
p515
sVup_the_irons/yubikey-cli-tools
p516
Vpledgie
p517
sVNZKoz/thinking-sphinx
p518
Vrails
p519
sVdanahern/vimeo
p520
Vetsy
p521
sVhornbeck/rubyzilla
p522
Vbasho
p523
sVcreationix/continuable
p524
Vsenchalabs
p525
sVguille/jsconfus
p526
Vmootools
p527
sVvanpelt/merb-more
p528
Vdolores
p529
sVginatrapani/GitHub-Pull-Request-Email-Bot
p530
VThinkUpLLC
p531
sVkoush/android_frameworks_base
p532
VCyanogenMod
p533
sVmdo/ratchet
p534
Vgithub
p535
sVsebastianbergmann/phpcov
p536
VthePHPcc
p537
sVmislav/fakeweb
p538
Vrails
p539
sVrbazinet/rails_upgrade_guide
p540
Vpostrank-labs
p541
sVkoush/android_vendor_dell_streak
p542
VCyanogenMod
p543
sVmislav/async-upload
p544
Vrails
p545
sVagentzh/chunkin-nginx-module
p546
Vcloudflare
p547
sVmdo/userstyles
p548
Vgithub
p549
sVibdknox/.scripts
p550
VKodowa
p551
sVsoffes/discover
p552
VCocoaPods
p553
sVphilsturgeon/codeigniter-unzip
p554
Vpyrocms
p555
sVsebastianbergmann/phpOpenTracker
p556
VthePHPcc
p557
sVup_the_irons/ram
p558
Vpledgie
p559
sVhenrik/delpin
p560
Vbarsoom
p561
sVpkrumins/browser-badge-cached
p562
Vbrowserling
p563
sVakitaonrails/enki-translator
p564
VCodeminer42
p565
sVtteofili/sedtum
p566
Vsourcesense
p567
sVguille/chromekit
p568
Vmootools
p569
sVdanahern/google_weather_api_test
p570
Vetsy
p571
sVtteofili/le11-nls
p572
Vsourcesense
p573
sVNZKoz/rake
p574
Vrails
p575
sVlifesinger/requirejs
p576
Vkissyteam
p577
sVakitaonrails/dry_scaffold
p578
VCodeminer42
p579
sVagentzh/advent.perlchina.org
p580
Vcloudflare
p581
sVphilsturgeon/fuelphp-casset
p582
Vpyrocms
p583
sVup_the_irons/ebay4r
p584
Vpledgie
p585
sVnecolas/suit-button
p586
Vtwitter
p587
sVakitaonrails/call4paperz
p588
VCodeminer42
p589
sVlifo/snoop
p590
Vrails
p591
sVphilsturgeon/mojo-inputs
p592
Vpyrocms
p593
sVcreationix/candor.js
p594
Vsenchalabs
p595
sVhenrik/annotate_models
p596
Vbarsoom
p597
sVphilsturgeon/ee2-widgets
p598
Vpyrocms
p599
sVakitaonrails/Command-T
p600
VCodeminer42
p601
sVmiyagawa/catalyst-view-json
p602
Vcookpad
p603
sVfelixge/buster-docs
p604
Vtransloadit
p605
sVmacournoyer/mysql_s3_backup
p606
Vrack
p607
sVweierophinney/Component_ZendForm
p608
Vzendframework
p609
sVphilsturgeon/codeigniter-oauth
p610
Vpyrocms
p611
sVjsierles/integrity
p612
Vrubytune
p613
sVgarybernhardt/blocks
p614
Vspeakerconf
p615
sVmiyagawa/AnyEvent-Atom-Stream
p616
Vcookpad
p617
sVjosh/dom-prof
p618
Vgithub
p619
sVphilsturgeon/gulliver
p620
Vpyrocms
p621
sVrichhickey/clojure
p622
Vclojure
p623
sVlukas/mailfactory
p624
Vdolores
p625
sVxhr/iTerm-2-Color-Themes
p626
Vwurbe
p627
sVjnunemaker/github-twitter
p628
Vgithub
p629
sVdesandro/blahble
p630
Vtwitter
p631
sVhassox/babushka-deps
p632
Vsydjs
p633
sVcreationix/dombuilder
p634
Vsenchalabs
p635
sVrmurphey/ffconf-mulberry-demo
p636
Vbocoup
p637
sVJeffreyWay/CodeCanyon-Comp-Landing-Page
p638
Venvato
p639
sVcanadaduane/Hipchat
p640
Vinstructure
p641
sVhenrik/action_mailer_tls
p642
Vbarsoom
p643
sVakitaonrails/chef-debian
p644
VCodeminer42
p645
sVpkrumins/catonmat.net
p646
Vbrowserling
p647
sVhornbeck/zendeskR
p648
Vbasho
p649
sVmdo/Redditate
p650
Vgithub
p651
sVsebastianbergmann/hphpa
p652
VthePHPcc
p653
sVlancecarlson/funfx
p654
Vrubyskills
p655
sVweierophinney/Component_ZendCache
p656
Vzendframework
p657
sVasseym/RapidFTR---BlackBerry-Edition
p658
Vunicefuganda
p659
sVjacobian/django-shorturls
p660
Vdjango
p661
sVrmurphey/ember.js
p662
Vbocoup
p663
sVjnunemaker/canable
p664
Vgithub
p665
sVjnunemaker/gemwhois
p666
Vgithub
p667
sVayende/NewYork-Course-RavenDB-Nov-2011
p668
Vcastleproject
p669
sVjsierles/git-deploy
p670
Vrubytune
p671
sVlancecarlson/machinist
p672
Vrubyskills
p673
sVpkrumins/awk-cheat-sheet
p674
Vbrowserling
p675
sVdrnic/celerity
p676
Vmocra
p677
sVgarybernhardt/pycomplexity
p678
Vspeakerconf
p679
sVguille/CSS3-Overlay
p680
Vmootools
p681
sVfelixge/chrome-bookmark-bar-shortcuts
p682
Vtransloadit
p683
sVginatrapani/todo.txt-touch-ios-webapp
p684
VThinkUpLLC
p685
sVayende/courses-nhibernate-fleet-street-nov-2012
p686
Vcastleproject
p687
sVdaikini/sstoolkit
p688
Vovercommitted
p689
sVkoush/android_device_kyocera_m6000
p690
VCyanogenMod
p691
sVibdknox/blind
p692
VKodowa
p693
sVrtomayko/git-sh
p694
Vsinatra
p695
sVsstephenson/eco
p696
V37signals
p697
sVsoffes/hire.samsoff.es
p698
VCocoaPods
p699
sVmadrobby/freckle-cmd
p700
Vcheerful
p701
sVjwhitmire/rspec-tmbundle
p702
Vrochester-rb
p703
sVmacournoyer/rails
p704
Vrack
p705
sVgarybernhardt/dotfiles
p706
Vspeakerconf
p707
sVmiyagawa/coveralls-perl
p708
Vcookpad
p709
sVcowboy/dotfiles
p710
Vjquery
p711
sVjacobian/geocoders
p712
Vdjango
p713
sVagentzh/dns-nginx-module
p714
Vcloudflare
p715
sVphilsturgeon/fuel-oauth-provider
p716
Vpyrocms
p717
sVsstephenson/hector
p718
V37signals
p719
sVmacournoyer/rack
p720
Vrack
p721
sVcowboy/javascript-htmlslice
p722
Vjquery
p723
sVnathanmarz/focus
p724
VCascading
p725
sVfelixge/faster-than-c
p726
Vtransloadit
p727
sVAlexanderFlatscher/sbicktRails
p728
Vfh-salzburg
p729
sVsebastianbergmann/academic-papers
p730
VthePHPcc
p731
sVhassox/gabber-client
p732
Vsydjs
p733
sVjacobian/django-dev-dashboard
p734
Vdjango
p735
sVmathiasbynens/homebrew
p736
ViRail
p737
sVcreationix/boxcode
p738
Vsenchalabs
p739
sVrtomayko/diveintomark
p740
Vsinatra
p741
sVcreationix/do
p742
Vsenchalabs
p743
sVhenrik/git-grep-vim
p744
Vbarsoom
p745
sVrbazinet/NewsBlur
p746
Vpostrank-labs
p747
sVphilsturgeon/codeigniter-cache
p748
Vpyrocms
p749
sVcowboy/github-markdown-anchors
p750
Vjquery
p751
sVmislav/faraday
p752
Vrails
p753
sVrmurphey/grunt-mocha
p754
Vbocoup
p755
sVcanadaduane/alfred2-dropbox
p756
Vinstructure
p757
sVlifo/Websocket-Bomberman
p758
Vrails
p759
sVmacournoyer/em-spec
p760
Vrack
p761
sVguille/Cube5
p762
Vmootools
p763
sVvanpelt/merb-plugins
p764
Vdolores
p765
sVayende/CourseSampleApp
p766
Vcastleproject
p767
sVcowboy/javascript-linkify
p768
Vjquery
p769
sVkoush/android_device_motorola_backflip
p770
VCyanogenMod
p771
sVagentzh/lua-redis-parser
p772
Vcloudflare
p773
sVantirez/redis-tools
p774
Vredis
p775
sVfelixge/codesurgeon
p776
Vtransloadit
p777
sVMarak/node-kiwf
p778
Vbigcompany
p779
sVMarak/hellonode
p780
Vbigcompany
p781
sVasseym/rapidsms-httprouter
p782
Vunicefuganda
p783
sVrbazinet/cheddar-ios
p784
Vpostrank-labs
p785
sVakitaonrails/dynamic_liquid_templates
p786
VCodeminer42
p787
sVjsierles/marginalia
p788
Vrubytune
p789
sVjosh/backbone
p790
Vgithub
p791
sVibdknox/aichallenge
p792
VKodowa
p793
sVjwhitmire/heroku-rails
p794
Vrochester-rb
p795
sVjsierles/broach
p796
Vrubytune
p797
sVgspederson/enki
p798
Vportablemind
p799
sVrtomayko/mongrel_proctitle
p800
Vsinatra
p801
sVmadrobby/mail
p802
Vcheerful
p803
sVjnunemaker/flipper-ui
p804
Vgithub
p805
sVkamal/ancestry
p806
Vbitfluent
p807
sVdrnic/bootstrap-cf-plugin
p808
Vmocra
p809
sVakitaonrails/disqus
p810
VCodeminer42
p811
sVleah/django-flash-status
p812
Vsincerely
p813
sVjacobian/django-tastypie
p814
Vdjango
p815
sVibdknox/clj-record
p816
VKodowa
p817
sVjacobian/django-debug-toolbar
p818
Vdjango
p819
sVpkrumins/hwnd-finder
p820
Vbrowserling
p821
sVayende/HibernatingRhinos.PhoneBook
p822
Vcastleproject
p823
sVNZKoz/dalli
p824
Vrails
p825
sVantirez/redis-io
p826
Vredis
p827
sVvanpelt/instimage
p828
Vdolores
p829
sVweierophinney/Component_ZendDebug
p830
Vzendframework
p831
sVmislav/contacts
p832
Vrails
p833
sVhenrik/blocket_se_feeds
p834
Vbarsoom
p835
sVsoffes/hue
p836
VCocoaPods
p837
sVup_the_irons/pony
p838
Vpledgie
p839
sVguille/jade
p840
Vmootools
p841
sVantirez/redis-sampler
p842
Vredis
p843
sVhassox/db2fog
p844
Vsydjs
p845
sVpkrumins/defined
p846
Vbrowserling
p847
sVezmobius/heist
p848
Vrubinius
p849
sVelbowdonkey/js_state
p850
Vlivingsocial
p851
sVgarybernhardt/vim-ruby
p852
Vspeakerconf
p853
sVhenrik/attachment_fu
p854
Vbarsoom
p855
sVMarak/node-backbone-request
p856
Vbigcompany
p857
sVjacobian/django-storymarket
p858
Vdjango
p859
sVakitaonrails/depot
p860
VCodeminer42
p861
sVNZKoz/sillytestapp
p862
Vrails
p863
sVezmobius/LocheGSplicer
p864
Vrubinius
p865
sVlancecarlson/live-search
p866
Vrubyskills
p867
sVnecolas/grunt-release
p868
Vtwitter
p869
sVJeffreyWay/ardent
p870
Venvato
p871
sVJeffreyWay/Laravel-Generator
p872
Venvato
p873
sVmathiasbynens/Benchmark.js
p874
ViRail
p875
sVrtomayko/node-bertrpc
p876
Vsinatra
p877
sVmadrobby/js-animation-course
p878
Vcheerful
p879
sVguille/kibi
p880
Vmootools
p881
sVweierophinney/2013-04-04-RestfulZf2-Webinar
p882
Vzendframework
p883
sVginatrapani/todo.txt-web
p884
VThinkUpLLC
p885
sVgarybernhardt/prest
p886
Vspeakerconf
p887
sVsstephenson/node-matrices
p888
V37signals
p889
sVkamal/fireeagle
p890
Vbitfluent
p891
sVphilsturgeon/codeigniter-restclient
p892
Vpyrocms
p893
sVguille/mocha
p894
Vmootools
p895
sVnathanmarz/elephantdb-cascalog
p896
VCascading
p897
sVjosh/emacs-color-theme-solarized
p898
Vgithub
p899
sVfelixge/ec2-plugin
p900
Vtransloadit
p901
sVmattslack/AVA_home_page_layout
p902
Vcollectiveidea
p903
sVagentzh/array-var-nginx-module
p904
Vcloudflare
p905
sVxhr/xhr.github.com
p906
Vwurbe
p907
sVjnunemaker/adapter
p908
Vgithub
p909
sVjnunemaker/columbus
p910
Vgithub
p911
sVrmurphey/ffco
p912
Vbocoup
p913
sVNZKoz/MiniProfiler
p914
Vrails
p915
sVrmurphey/grunt
p916
Vbocoup
p917
sVagentzh/lua-resty-mysql
p918
Vcloudflare
p919
sVmadrobby/enterprise-css
p920
Vcheerful
p921
sVrtomayko/date-performance
p922
Vsinatra
p923
sVvanpelt/vandev
p924
Vdolores
p925
sVjosh/emacs.d
p926
Vgithub
p927
sVhassox/bcrypt-ruby
p928
Vsydjs
p929
sVjnunemaker/flipper-redis
p930
Vgithub
p931
sVsebastianbergmann/gap
p932
VthePHPcc
p933
sVkamal/celerity
p934
Vbitfluent
p935
sVsebastianbergmann/php-token-stream
p936
VthePHPcc
p937
sVjnunemaker/adapter-riak
p938
Vgithub
p939
sVDmitryBaranovskiy/raphaeljs.com
p940
Vsydjs
p941
sVdrnic/bosh-cloudfoundry
p942
Vmocra
p943
sVakitaonrails/capistrano
p944
VCodeminer42
p945
sVmiyagawa/App-FatPacker
p946
Vcookpad
p947
sVmathiasbynens/BrowserQuest
p948
ViRail
p949
sVagentzh/jitdemo
p950
Vcloudflare
p951
sVhornbeck/Little-Erlanger
p952
Vbasho
p953
sVAlexanderFlatscher/bakk1todo
p954
Vfh-salzburg
p955
sVcanadaduane/kopimi-vector
p956
Vinstructure
p957
sVkamal/phantomjs-driver
p958
Vbitfluent
p959
sVcowboy/blog.js
p960
Vjquery
p961
sVmadrobby/madrobby.github.com
p962
Vcheerful
p963
sVasseym/RapidFTR---Android
p964
Vunicefuganda
p965
sVmiyagawa/Acme-Dzil-Test
p966
Vcookpad
p967
sVlancecarlson/acts-as-taggable-on
p968
Vrubyskills
p969
sVsebastianbergmann/finder-facade
p970
VthePHPcc
p971
sVup_the_irons/dotfiles
p972
Vpledgie
p973
sVMarak/badjitsu
p974
Vbigcompany
p975
sVrmurphey/dojo-boilerplate
p976
Vbocoup
p977
sVmiyagawa/Corona
p978
Vcookpad
p979
sVmjankowski/money
p980
Vthoughtbot
p981
sVcanadaduane/Adafruit-GFX-Library
p982
Vinstructure
p983
sVrbazinet/railsbp.com
p984
Vpostrank-labs
p985
sVdrnic/bosh-client
p986
Vmocra
p987
sVdaikini/daikini.github.com
p988
Vovercommitted
p989
sVsoffes/geminabox
p990
VCocoaPods
p991
sVmiyagawa/blib-portable
p992
Vcookpad
p993
sVmadrobby/enterprise-js
p994
Vcheerful
p995
sVkoush/android_bionic
p996
VCyanogenMod
p997
sVnathanmarz/cascalog
p998
VCascading
p999
sVginatrapani/Smarterware
p1000
VThinkUpLLC
p1001
sVgspederson/practice_game_of_life
p1002
Vportablemind
p1003
sVded/valentine
p1004
Vchange
p1005
sVrtomayko/posix-spawn
p1006
Vsinatra
p1007
sVnathanmarz/cascalog-contrib
p1008
VCascading
p1009
sVkamal/will_paginate
p1010
Vbitfluent
p1011
sVayende/Advanced.NHibernate
p1012
Vcastleproject
p1013
sVrtomayko/bcat
p1014
Vsinatra
p1015
sVleah/PullToRefresh
p1016
Vsincerely
p1017
sVkoush/android_device_generic
p1018
VCyanogenMod
p1019
sVjsierles/faraday
p1020
Vrubytune
p1021
sVjwhitmire/sinatra-helpers
p1022
Vrochester-rb
p1023
sVnecolas/project-euler
p1024
Vtwitter
p1025
sVantirez/book-examples
p1026
Vredis
p1027
sVnathanmarz/cascalog-workshop
p1028
VCascading
p1029
sVjnunemaker/cassanity
p1030
Vgithub
p1031
sVjnunemaker/adapter-redis
p1032
Vgithub
p1033
sVantirez/dump1090
p1034
Vredis
p1035
sVxhr/picasso
p1036
Vwurbe
p1037
sVmacournoyer/macournoyer.com
p1038
Vrack
p1039
sVnathanmarz/dfs-datastores-cascading
p1040
VCascading
p1041
sVAlexanderFlatscher/puzzlesFrontEnd
p1042
Vfh-salzburg
p1043
sVkamal/chosen
p1044
Vbitfluent
p1045
sVfelixge/cakephp
p1046
Vtransloadit
p1047
sVNZKoz/janus
p1048
Vrails
p1049
sVphilsturgeon/jsonlint
p1050
Vpyrocms
p1051
sVjsierles/bitsontherun
p1052
Vrubytune
p1053
sVpkrumins/adns
p1054
Vbrowserling
p1055
sVjnunemaker/7langauges7weeks
p1056
Vgithub
p1057
sVcanadaduane/limescripts
p1058
Vinstructure
p1059
sVagentzh/echo-nginx-module
p1060
Vcloudflare
p1061
sVvanpelt/merb_paginate
p1062
Vdolores
p1063
sVmjankowski/polepin
p1064
Vthoughtbot
p1065
sVpkrumins/geom-vec
p1066
Vbrowserling
p1067
sVmadrobby/downtime
p1068
Vcheerful
p1069
sVup_the_irons/cacheable-flash
p1070
Vpledgie
p1071
sVdaikini/rubicus
p1072
Vovercommitted
p1073
sVcowboy/javascript-library-boilerplate
p1074
Vjquery
p1075
sVjnunemaker/chinwag
p1076
Vgithub
p1077
sVdanahern/goose
p1078
Vetsy
p1079
sVrichhickey/rdfm
p1080
Vclojure
p1081
sVdanahern/java_game
p1082
Vetsy
p1083
sVkamal/rails
p1084
Vbitfluent
p1085
sVlancecarlson/fog
p1086
Vrubyskills
p1087
sVMarak/nconf
p1088
Vbigcompany
p1089
sVmislav/bats
p1090
Vrails
p1091
sVayende/Effectus
p1092
Vcastleproject
p1093
sVjsierles/memcache-client
p1094
Vrubytune
p1095
sVJeffreyWay/Envato-Marketplace-API-Wrapper-in-PHP
p1096
Venvato
p1097
sVdrnic/cf-docs-contrib
p1098
Vmocra
p1099
sVnathanmarz/formula-inverse
p1100
VCascading
p1101
sVJeffreyWay/Compress-and-Concatenate-Stylesheets-with-PHP
p1102
Venvato
p1103
sVjsierles/kayak
p1104
Vrubytune
p1105
sVkoush/android_device_elocity_a7
p1106
VCyanogenMod
p1107
sVsebastianbergmann/bytekit-cli
p1108
VthePHPcc
p1109
sVtjogin/static-skeleton
p1110
Vesnme
p1111
sVkamal/tender_multipass
p1112
Vbitfluent
p1113
sVjosh/albino
p1114
Vgithub
p1115
sVsebastianbergmann/pear.phpqatools.org
p1116
VthePHPcc
p1117
sVjosh/dotjs
p1118
Vgithub
p1119
sVweierophinney/avalanche
p1120
Vzendframework
p1121
sVelbowdonkey/flightcontrol
p1122
Vlivingsocial
p1123
sVmislav/gorgeous
p1124
Vrails
p1125
sVJeffreyWay/docs
p1126
Venvato
p1127
sVmathiasbynens/GetCountries
p1128
ViRail
p1129
sVjosh/datomic-free
p1130
Vgithub
p1131
sVhassox/chain
p1132
Vsydjs
p1133
sVvanpelt/sigmod
p1134
Vdolores
p1135
sVjsierles/bits_on_the_run
p1136
Vrubytune
p1137
sVnecolas/css3-facebook-buttons
p1138
Vtwitter
p1139
sVjosh/connect
p1140
Vgithub
p1141
sVrmurphey/johnny-five
p1142
Vbocoup
p1143
sVJeffreyWay/jquery.styleWords
p1144
Venvato
p1145
sVasseym/rapidsms-maintenance
p1146
Vunicefuganda
p1147
sVfelixge/connect
p1148
Vtransloadit
p1149
sVsoffes/ActiveSupportInflector
p1150
VCocoaPods
p1151
sVagentzh/dodo
p1152
Vcloudflare
p1153
sVmadrobby/acornkittens
p1154
Vcheerful
p1155
sVginatrapani/todo.txt-touch
p1156
VThinkUpLLC
p1157
sVmislav/coral
p1158
Vrails
p1159
sVjosh/gem_stub
p1160
Vgithub
p1161
sVup_the_irons/billing-system-models
p1162
Vpledgie
p1163
sVdrnic/blue-ridge
p1164
Vmocra
p1165
sVgarybernhardt/LuaSpec
p1166
Vspeakerconf
p1167
sVsoffes/blog
p1168
VCocoaPods
p1169
sVjacobian/djangobench
p1170
Vdjango
p1171
sVakitaonrails/locarails
p1172
VCodeminer42
p1173
sVdrnic/build-change-trigger-plugin
p1174
Vmocra
p1175
sVrmurphey/github-viewer
p1176
Vbocoup
p1177
sVleah/suggestorama
p1178
Vsincerely
p1179
sVweierophinney/Component_ZendDom
p1180
Vzendframework
p1181
sVgarybernhardt/explicit_import
p1182
Vspeakerconf
p1183
sVxhr/devise
p1184
Vwurbe
p1185
sVsebastianbergmann/php-text-template
p1186
VthePHPcc
p1187
sVvanpelt/merb_facebooker
p1188
Vdolores
p1189
sVvanpelt/CardMaven
p1190
Vdolores
p1191
sVmiyagawa/AnyEvent-DBI-Abstract
p1192
Vcookpad
p1193
sVrmurphey/cufon
p1194
Vbocoup
p1195
sVweierophinney/Component_ZendCode
p1196
Vzendframework
p1197
sVmadrobby/dotvim
p1198
Vcheerful
p1199
sVnecolas/griddle
p1200
Vtwitter
p1201
sVrmurphey/bloody-jquery-plugins
p1202
Vbocoup
p1203
sVmadrobby/microjs.com
p1204
Vcheerful
p1205
sVcanadaduane/ImplicitCAD
p1206
Vinstructure
p1207
sVayende/course-jul-25
p1208
Vcastleproject
p1209
sVjosh/gobert
p1210
Vgithub
p1211
sVagentzh/agentzh.org
p1212
Vcloudflare
p1213
sVsebastianbergmann/php-jenkins-template
p1214
VthePHPcc
p1215
sVjosh/brew-gem
p1216
Vgithub
p1217
sVjwhitmire/tm-themes
p1218
Vrochester-rb
p1219
sVlifo/fast_context
p1220
Vrails
p1221
sVginatrapani/sphinx-bootstrap-theme
p1222
VThinkUpLLC
p1223
sVcreationix/eventemitter-browser
p1224
Vsenchalabs
p1225
sVginatrapani/todo.txt-cli
p1226
VThinkUpLLC
p1227
sVhenrik/draper
p1228
Vbarsoom
p1229
sVkoush/android_vendor_cyanogen
p1230
VCyanogenMod
p1231
sVezmobius/acl_system2
p1232
Vrubinius
p1233
sVfelixge/EventEmitter
p1234
Vtransloadit
p1235
sVayende/courses-lucerne-oct-2012
p1236
Vcastleproject
p1237
sVhassox/any_view
p1238
Vsydjs
p1239
sVhassox/black
p1240
Vsydjs
p1241
sVdrnic/cf-release
p1242
Vmocra
p1243
sVelbowdonkey/infiniteexcitebike
p1244
Vlivingsocial
p1245
sVnathanmarz/midje-cascalog
p1246
VCascading
p1247
sVlifo/cramp_chat_demo
p1248
Vrails
p1249
sVleah/python-guide
p1250
Vsincerely
p1251
sVpkrumins/codinghorror-keyword-analyzer
p1252
Vbrowserling
p1253
sVvanpelt/contacts
p1254
Vdolores
p1255
sVakitaonrails/CoffeeScript-Demonstration
p1256
VCodeminer42
p1257
sVantirez/jsrt
p1258
Vredis
p1259
sVNZKoz/iOSPorts
p1260
Vrails
p1261
sVmiyagawa/backpan-timemachine
p1262
Vcookpad
p1263
sVmathiasbynens/Faker.js
p1264
ViRail
p1265
sVjwhitmire/ssl_requirement
p1266
Vrochester-rb
p1267
sVlancecarlson/flails
p1268
Vrubyskills
p1269
sVgarybernhardt/base
p1270
Vspeakerconf
p1271
sVmacournoyer/min
p1272
Vrack
p1273
sVhenrik/facebox
p1274
Vbarsoom
p1275
sVmadrobby/creditcard_js
p1276
Vcheerful
p1277
sVjsierles/driven
p1278
Vrubytune
p1279
sVsebastianbergmann/money
p1280
VthePHPcc
p1281
sVfelixge/dotfiles
p1282
Vtransloadit
p1283
sVlifesinger/dew
p1284
Vkissyteam
p1285
sVmacournoyer/gh-contest
p1286
Vrack
p1287
sVweierophinney/Component_ZendFeed
p1288
Vzendframework
p1289
sVcowboy/D8
p1290
Vjquery
p1291
sVdesandro/classie
p1292
Vtwitter
p1293
sVibdknox/crate
p1294
VKodowa
p1295
sVpkrumins/feedburner-graph-generator
p1296
Vbrowserling
p1297
sVded/domready
p1298
Vchange
p1299
sVjsierles/globalize_translator
p1300
Vrubytune
p1301
sVjsierles/cijoe
p1302
Vrubytune
p1303
sVsoffes/fat.samsoff.es
p1304
VCocoaPods
p1305
sVasseym/rapidsms-xforms
p1306
Vunicefuganda
p1307
sVxhr/guard-unicorn
p1308
Vwurbe
p1309
sVelbowdonkey/ember.js
p1310
Vlivingsocial
p1311
sVcreationix/chicagowebconf2012
p1312
Vsenchalabs
p1313
sVcreationix/brozula
p1314
Vsenchalabs
p1315
sVweierophinney/Component_ZendMail
p1316
Vzendframework
p1317
sVjacobian/django-googlecharts
p1318
Vdjango
p1319
sVded/sink-test
p1320
Vchange
p1321
sVup_the_irons/ip_allocator
p1322
Vpledgie
p1323
sVrbazinet/html2haml
p1324
Vpostrank-labs
p1325
sVlifo/tickle
p1326
Vrails
p1327
sVguille/git-extras
p1328
Vmootools
p1329
sVkamal/geekcamp
p1330
Vbitfluent
p1331
sVagentzh/appears
p1332
Vcloudflare
p1333
sVjacobian/djobs
p1334
Vdjango
p1335
sVvanpelt/Velocigraphtor
p1336
Vdolores
p1337
sVdaikini/paysimple
p1338
Vovercommitted
p1339
sVmacournoyer/llvmruby
p1340
Vrack
p1341
sVnathanmarz/crane
p1342
VCascading
p1343
sVhassox/dm-pagination
p1344
Vsydjs
p1345
sVsebastianbergmann/phpqatools.org
p1346
VthePHPcc
p1347
sVpkrumins/gnu-awk-youtube-downloader
p1348
Vbrowserling
p1349
sVjnunemaker/crack
p1350
Vgithub
p1351
sVelbowdonkey/IsometricMap
p1352
Vlivingsocial
p1353
sVdesandro/dotvim
p1354
Vtwitter
p1355
sVasseym/android-sms-relay
p1356
Vunicefuganda
p1357
sVphilsturgeon/dbad
p1358
Vpyrocms
p1359
sVded/emile
p1360
Vchange
p1361
sVagentzh/makefile-dom-pm
p1362
Vcloudflare
p1363
sVcreationix/adventure
p1364
Vsenchalabs
p1365
sVmislav/bluecloth
p1366
Vrails
p1367
sVjosh/homebrew
p1368
Vgithub
p1369
sVayende/NHibernate-NewYork-Course-Code-Oct-2011
p1370
Vcastleproject
p1371
sVayende/courses-new-york-aug-2012
p1372
Vcastleproject
p1373
sVjacobian/jellyroll
p1374
Vdjango
p1375
sVezmobius/vcap
p1376
Vrubinius
p1377
sVagentzh/lua-resty-redis
p1378
Vcloudflare
p1379
sVkoush/android_device_htc_inc
p1380
VCyanogenMod
p1381
sVpkrumins/ed-cheat-sheet
p1382
Vbrowserling
p1383
sVouterim/stunnel
p1384
Vurug
p1385
sVsoffes/dotfiles
p1386
VCocoaPods
p1387
sVDmitryBaranovskiy/raphael
p1388
Vsydjs
p1389
sVdanahern/file_column
p1390
Vetsy
p1391
sVsoffes/iphone-library-test-app
p1392
VCocoaPods
p1393
sVlifo/testing
p1394
Vrails
p1395
sVayende/managed-esent
p1396
Vcastleproject
p1397
sVayende/courses-ravendb-stockholm-march-2013
p1398
Vcastleproject
p1399
sVdrnic/Backbone.tmbundle
p1400
Vmocra
p1401
sVasseym/rapidsms-script
p1402
Vunicefuganda
p1403
sVguille/insights-chrome
p1404
Vmootools
p1405
sVouterim/rack-jsonp
p1406
Vurug
p1407
sVjosh/direnv
p1408
Vgithub
p1409
sVphilsturgeon/fuel-ninjauth
p1410
Vpyrocms
p1411
sVsstephenson/multi_json
p1412
V37signals
p1413
sVcowboy/grunt-node-example
p1414
Vjquery
p1415
sVrmurphey/dojo-demo
p1416
Vbocoup
p1417
sVmadrobby/freckle-client
p1418
Vcheerful
p1419
sVjacobian/django-buildbots
p1420
Vdjango
p1421
sVded/Dagron
p1422
Vchange
p1423
sVmislav/dotfiles
p1424
Vrails
p1425
sVhassox/acts_as_votable
p1426
Vsydjs
p1427
sVmiyagawa/CGI.pm
p1428
Vcookpad
p1429
sVnecolas/suit-grid
p1430
Vtwitter
p1431
sVleah/tumblr-themes
p1432
Vsincerely
p1433
sVcowboy/express
p1434
Vjquery
p1435
sVphilsturgeon/codeigniter-prowl
p1436
Vpyrocms
p1437
sVkoush/android_device_endeavoru
p1438
VCyanogenMod
p1439
sVantirez/redis-timeseries
p1440
Vredis
p1441
sVJeffreyWay/framework
p1442
Venvato
p1443
sVjsierles/fast_git_deploy
p1444
Vrubytune
p1445
sVasseym/rapidsms-mvrs
p1446
Vunicefuganda
p1447
sVibdknox/brepl
p1448
VKodowa
p1449
sVphilsturgeon/codeigniter-maxcdn
p1450
Vpyrocms
p1451
sVlifo/tramp
p1452
Vrails
p1453
sVMarak/node-dbox
p1454
Vbigcompany
p1455
sVdesandro/CSS3.tmbundle
p1456
Vtwitter
p1457
sVtteofili/cpt
p1458
Vsourcesense
p1459
sVjacobian/django-multiurl
p1460
Vdjango
p1461
sVantirez/hping
p1462
Vredis
p1463
sVdrnic/carrierwave
p1464
Vmocra
p1465
sVhassox/handlebars_assets
p1466
Vsydjs
p1467
sVMarak/colors.js
p1468
Vbigcompany
p1469
sVayende/NHibernate-Challanges
p1470
Vcastleproject
p1471
sVfelixge/cluster
p1472
Vtransloadit
p1473
sVgarybernhardt/turbolinks_test
p1474
Vspeakerconf
p1475
sVrtomayko/camo
p1476
Vsinatra
p1477
sVsstephenson/backbone
p1478
V37signals
p1479
sVphilsturgeon/codeigniter-restserver
p1480
Vpyrocms
p1481
sVjwhitmire/ruby_practice
p1482
Vrochester-rb
p1483
sVcanadaduane/house
p1484
Vinstructure
p1485
sVcowboy/benalman.com-idea
p1486
Vjquery
p1487
sVmathiasbynens/alcuadrado.github.com
p1488
ViRail
p1489
sVxhr/ro-keylayouts
p1490
Vwurbe
p1491
sVguille/express-expose
p1492
Vmootools
p1493
sVpkrumins/endian-toggle
p1494
Vbrowserling
p1495
sVgarybernhardt/do_not_want
p1496
Vspeakerconf
p1497
sVrmurphey/gith
p1498
Vbocoup
p1499
sVmislav/explain-ruby
p1500
Vrails
p1501
sVibdknox/jayq
p1502
VKodowa
p1503
sVhenrik/augmentations
p1504
Vbarsoom
p1505
sVweierophinney/Component_ZendEventManager
p1506
Vzendframework
p1507
sVNZKoz/statsd.scala
p1508
Vrails
p1509
sVayende/Alexandria
p1510
Vcastleproject
p1511
sVmadrobby/keymaster
p1512
Vcheerful
p1513
sVhenrik/globalize3
p1514
Vbarsoom
p1515
sVvanpelt/merb_async_observer
p1516
Vdolores
p1517
sVNZKoz/rexml-expansion-fix
p1518
Vrails
p1519
sVAlexanderFlatscher/puzzlesBackEnd
p1520
Vfh-salzburg
p1521
sVhassox/hash_path
p1522
Vsydjs
p1523
sVDmitryBaranovskiy/prefixfree
p1524
Vsydjs
p1525
sVkoush/androidmono
p1526
VCyanogenMod
p1527
sVezmobius/ey-lessql
p1528
Vrubinius
p1529
sVMarak/consolidate.js
p1530
Vbigcompany
p1531
sVhenrik/fuzzy_file_finder
p1532
Vbarsoom
p1533
sVjacobian/django-deployment-workshop
p1534
Vdjango
p1535
sVNZKoz/MailCore
p1536
Vrails
p1537
sVjosh/gem_keychain
p1538
Vgithub
p1539
sVezmobius/bmhsearch
p1540
Vrubinius
p1541
sVleah/github-services
p1542
Vsincerely
p1543
sVMarak/css_to_json
p1544
Vbigcompany
p1545
sVhassox/emacs-starter-kit
p1546
Vsydjs
p1547
sVrmurphey/frontend-dev-baseline
p1548
Vbocoup
p1549
sVsstephenson/hike
p1550
V37signals
p1551
sVlancecarlson/merb-core
p1552
Vrubyskills
p1553
sVjwhitmire/rails-diplomacy
p1554
Vrochester-rb
p1555
sVjacobian/cheeserater
p1556
Vdjango
p1557
sVlancecarlson/anvil
p1558
Vrubyskills
p1559
sVfelixge/felixge.de
p1560
Vtransloadit
p1561
sVsstephenson/jquery-pjax
p1562
V37signals
p1563
sVhenrik/delishlist.com
p1564
Vbarsoom
p1565
sVcanadaduane/cinemaker.us
p1566
Vinstructure
p1567
sVkoush/android_build
p1568
VCyanogenMod
p1569
sVcanadaduane/NewPing
p1570
Vinstructure
p1571
sVakitaonrails/fisl_10_demo
p1572
VCodeminer42
p1573
sVphilsturgeon/heroku-buildpack-wordpress
p1574
Vpyrocms
p1575
sVhenrik/ack.vim
p1576
Vbarsoom
p1577
sVhenrik/dotfiles
p1578
Vbarsoom
p1579
sVmadrobby/creditcard_js_underscore
p1580
Vcheerful
p1581
sVNZKoz/xss_bareback
p1582
Vrails
p1583
sVNZKoz/rails
p1584
Vrails
p1585
sVibdknox/chris-granger.com
p1586
VKodowa
p1587
sVkoush/android_packages_apps_Launcher2
p1588
VCyanogenMod
p1589
sVmathiasbynens/320andup
p1590
ViRail
p1591
sVweierophinney/Component_ZendJson
p1592
Vzendframework
p1593
sVkamal/rufus-tokyo
p1594
Vbitfluent
p1595
sVvanpelt/async-observer
p1596
Vdolores
p1597
sVginatrapani/jquery-unscroll-timeline
p1598
VThinkUpLLC
p1599
sVhassox/futures
p1600
Vsydjs
p1601
sVibdknox/assimilator
p1602
VKodowa
p1603
sVrtomayko/hem
p1604
Vsinatra
p1605
sVcreationix/benchmarks
p1606
Vsenchalabs
p1607
sVpkrumins/heatwave
p1608
Vbrowserling
p1609
sVjosh/closure-compiler
p1610
Vgithub
p1611
sVasseym/rapidsms-training
p1612
Vunicefuganda
p1613
sVmathiasbynens/esmangle
p1614
ViRail
p1615
sVNZKoz/cassandra
p1616
Vrails
p1617
sVdrnic/blinksale-greasemonkey
p1618
Vmocra
p1619
sVnecolas/issue-guidelines
p1620
Vtwitter
p1621
sVfelixge/cakephp-mixpanel
p1622
Vtransloadit
p1623
sVfelixge/contained
p1624
Vtransloadit
p1625
sVphilsturgeon/codeigniter-curl
p1626
Vpyrocms
p1627
sVsoffes/async_sinatra
p1628
VCocoaPods
p1629
sVayende/NHibernate-Warsaw-Course-Code
p1630
Vcastleproject
p1631
sVcowboy/css-misc
p1632
Vjquery
p1633
sVxhr/short.li
p1634
Vwurbe
p1635
sVmattslack/radiant-mediamaid-extension
p1636
Vcollectiveidea
p1637
sVmacournoyer/eventmachine
p1638
Vrack
p1639
sVmislav/freckle-apidocs
p1640
Vrails
p1641
sVkamal/webrat
p1642
Vbitfluent
p1643
sVmadrobby/fancy-zoom
p1644
Vcheerful
p1645
sVmislav/faraday-stack
p1646
Vrails
p1647
sVtteofili/jackrabbit-oak
p1648
Vsourcesense
p1649
sVmiyagawa/camp
p1650
Vcookpad
p1651
sVlancecarlson/dm-more
p1652
Vrubyskills
p1653
sVibdknox/clojure-pong
p1654
VKodowa
p1655
sVjnunemaker/fancy-zoom
p1656
Vgithub
p1657
sVguille/brevity
p1658
Vmootools
p1659
sVleah/mightylemon
p1660
Vsincerely
p1661
sVdesandro/bash-it
p1662
Vtwitter
p1663
sVjwhitmire/hubot
p1664
Vrochester-rb
p1665
sVlancecarlson/hamr
p1666
Vrubyskills
p1667
sVibdknox/babbage
p1668
VKodowa
p1669
sVjsierles/bcx-api
p1670
Vrubytune
p1671
sVmiyagawa/contributing-test
p1672
Vcookpad
p1673
sVDmitryBaranovskiy/rappar
p1674
Vsydjs
p1675
sVfelixge/fab-basic-auth
p1676
Vtransloadit
p1677
sVantirez/gif-pure-tcl
p1678
Vredis
p1679
sVayende/nagarot
p1680
Vcastleproject
p1681
sVvanpelt/amqp
p1682
Vdolores
p1683
sVmacournoyer/libuv
p1684
Vrack
p1685
sVcreationix/embedder
p1686
Vsenchalabs
p1687
sVdesandro/make-julesmarie-cry
p1688
Vtwitter
p1689
sVakitaonrails/cells_demo
p1690
VCodeminer42
p1691
sVezmobius/super-nginx
p1692
Vrubinius
p1693
sVrbazinet/tracker_ipad
p1694
Vpostrank-labs
p1695
sVlancecarlson/corpus
p1696
Vrubyskills
p1697
sVkoush/AndroidAsync
p1698
VCyanogenMod
p1699
sVhassox/amqp
p1700
Vsydjs
p1701
sVjacobian/gistio
p1702
Vdjango
p1703
sVtjogin/naive-search
p1704
Vesnme
p1705
sVdrnic/4th_and_king
p1706
Vmocra
p1707
sVmacournoyer/preforker
p1708
Vrack
p1709
sVfelixge/cakephp-authsome
p1710
Vtransloadit
p1711
sVmathiasbynens/jquery
p1712
ViRail
p1713
sVasseym/sample
p1714
Vunicefuganda
p1715
sVphilsturgeon/fig-standards
p1716
Vpyrocms
p1717
sVsoffes/bin
p1718
VCocoaPods
p1719
sVkoush/android
p1720
VCyanogenMod
p1721
sVmadrobby/cijoe
p1722
Vcheerful
p1723
sVded/CalEnder
p1724
Vchange
p1725
sVibdknox/fetch
p1726
VKodowa
p1727
sVcanadaduane/Bookmarkly
p1728
Vinstructure
p1729
sVweierophinney/Component_ZendDi
p1730
Vzendframework
p1731
sVweierophinney/Component_ZendDb
p1732
Vzendframework
p1733
sVdaikini/Specs
p1734
Vovercommitted
p1735
sVnecolas/starter-kit
p1736
Vtwitter
p1737
sVguille/ios6-bugs
p1738
Vmootools
p1739
sVup_the_irons/altered_beast
p1740
Vpledgie
p1741
sVDmitryBaranovskiy/web-anim-js
p1742
Vsydjs
p1743
sVjnunemaker/cassandra-cql
p1744
Vgithub
p1745
sVweierophinney/Component_ZendBarcode
p1746
Vzendframework
p1747
sVsstephenson/disaster
p1748
V37signals
p1749
sVasseym/rapidsms-geoserver
p1750
Vunicefuganda
p1751
sVJeffreyWay/PHPUnit-Wrappers
p1752
Venvato
p1753
sVfelixge/ardrone
p1754
Vtransloadit
p1755
sVcowboy/grunt-gruntfile-example
p1756
Vjquery
p1757
sVweierophinney/Component_ZendConfig
p1758
Vzendframework
p1759
sVouterim/fog
p1760
Vurug
p1761
sVweierophinney/Component_ZendInputFilter
p1762
Vzendframework
p1763
sVfelixge/beachwhenever.com
p1764
Vtransloadit
p1765
sVcanadaduane/omniauth-singly
p1766
Vinstructure
p1767
sVrmurphey/dojo
p1768
Vbocoup
p1769
sVsoffes/hands
p1770
VCocoaPods
p1771
sVsstephenson/node-coffee-project
p1772
V37signals
p1773
sVmacournoyer/rest-client
p1774
Vrack
p1775
sVjwhitmire/llor-nu-legacy
p1776
Vrochester-rb
p1777
sVMarak/pdf.js
p1778
Vbigcompany
p1779
sVweierophinney/Component_ZendLdap
p1780
Vzendframework
p1781
sVguille/gitfollow
p1782
Vmootools
p1783
sVmislav/diveintohtml5
p1784
Vrails
p1785
sVleah/django-flash
p1786
Vsincerely
p1787
sVasseym/rapidsms
p1788
Vunicefuganda
p1789
sVJeffreyWay/My-Starting-Template
p1790
Venvato
p1791
sVsebastianbergmann/php-invoker
p1792
VthePHPcc
p1793
sVjnunemaker/adapter-memcached
p1794
Vgithub
p1795
sVnathanmarz/serializable-fn
p1796
VCascading
p1797
sVakitaonrails/demo_responds_to_parent
p1798
VCodeminer42
p1799
sVup_the_irons/node-autocomplete
p1800
Vpledgie
p1801
sVmiyagawa/CGI-PSGI
p1802
Vcookpad
p1803
sVfelixge/fab
p1804
Vtransloadit
p1805
sVweierophinney/Component_ZendI18n
p1806
Vzendframework
p1807
sVcowboy/javascript-getclass
p1808
Vjquery
p1809
sVrtomayko/rinku
p1810
Vsinatra
p1811
sVphilsturgeon/codeigniter-akismet
p1812
Vpyrocms
p1813
sVjwhitmire/rubythere
p1814
Vrochester-rb
p1815
sVagentzh/makefile-graphviz-pm
p1816
Vcloudflare
p1817
sVphilsturgeon/fuelphp-gettingstarted
p1818
Vpyrocms
p1819
sVcanadaduane/grbl
p1820
Vinstructure
p1821
sVMarak/asciimo
p1822
Vbigcompany
p1823
sVcanadaduane/bio-hmm
p1824
Vinstructure
p1825
sVcreationix/corn
p1826
Vsenchalabs
p1827
sVup_the_irons/jenkins-hipchat-plugin
p1828
Vpledgie
p1829
sVezmobius/ohai
p1830
Vrubinius
p1831
sVnecolas/suit-utils-display
p1832
Vtwitter
p1833
sVezmobius/ez-where
p1834
Vrubinius
p1835
sVmathiasbynens/grunt-esmangle
p1836
ViRail
p1837
sVMarak/node-raps
p1838
Vbigcompany
p1839
sVpkrumins/http-async-retry
p1840
Vbrowserling
p1841
sVezmobius/chef-deploy
p1842
Vrubinius
p1843
sVtteofili/nlp-utils
p1844
Vsourcesense
p1845
sVJeffreyWay/Reminders
p1846
Venvato
p1847
sVJeffreyWay/Backbone-Starter
p1848
Venvato
p1849
sVibdknox/dommy
p1850
VKodowa
p1851
sVhenrik/DeepSleepPreventerLibrary
p1852
Vbarsoom
p1853
sVantirez/aspark
p1854
Vredis
p1855
sVjosh/git
p1856
Vgithub
p1857
sVlancecarlson/amfruby
p1858
Vrubyskills
p1859
sVibdknox/analyze
p1860
VKodowa
p1861
sVdesandro/jquery-bridget
p1862
Vtwitter
p1863
sVcreationix/couch-client
p1864
Vsenchalabs
p1865
sVsoffes/AFNetworking
p1866
VCocoaPods
p1867
sVcanadaduane/Perspective-Calendar
p1868
Vinstructure
p1869
sVrmurphey/blog-octopress
p1870
Vbocoup
p1871
sVagentzh/mockeagain
p1872
Vcloudflare
p1873
sVfelixge/fab-json
p1874
Vtransloadit
p1875
sVJeffreyWay/Capitalizr
p1876
Venvato
p1877
sVmacournoyer/confoo
p1878
Vrack
p1879
sVmacournoyer/peg
p1880
Vrack
p1881
sVayende/Macto
p1882
Vcastleproject
p1883
sVkoush/android_device_motorola_targa
p1884
VCyanogenMod
p1885
sVfelixge/depmake
p1886
Vtransloadit
p1887
sVcreationix/Calix
p1888
Vsenchalabs
p1889
sVmiyagawa/AnyEvent-ReverseHTTP
p1890
Vcookpad
p1891
sVezmobius/redactor
p1892
Vrubinius
p1893
sVmiyagawa/catalyst-plugin-authentication-credential-openid
p1894
Vcookpad
p1895
sVibdknox/ChromaShift
p1896
VKodowa
p1897
sVrmurphey/blog-jekyll
p1898
Vbocoup
p1899
sVginatrapani/todo.txt-html5
p1900
VThinkUpLLC
p1901
sVfelixge/cakephp1x
p1902
Vtransloadit
p1903
sVdanahern/app_sleuth
p1904
Vetsy
p1905
sVgarybernhardt/dingus
p1906
Vspeakerconf
p1907
sVJeffreyWay/Laravel-Model-Validation
p1908
Venvato
p1909
sVouterim/travis_reprise
p1910
Vurug
p1911
sVnathanmarz/cascalog-demo
p1912
VCascading
p1913
sVtjogin/tjogin.github.com
p1914
Vesnme
p1915
sVcreationix/builder
p1916
Vsenchalabs
p1917
sVpkrumins/invoice
p1918
Vbrowserling
p1919
sVguille/express
p1920
Vmootools
p1921
sVmadrobby/dom-monster
p1922
Vcheerful
p1923
sVmacournoyer/invisible
p1924
Vrack
p1925
sVweierophinney/bugapp
p1926
Vzendframework
p1927
sVrichhickey/edn
p1928
Vclojure
p1929
sVmacournoyer/pusher
p1930
Vrack
p1931
sVlifo/journey
p1932
Vrails
p1933
sVcanadaduane/mycast
p1934
Vinstructure
p1935
sVantirez/Bigdis
p1936
Vredis
p1937
sVkoush/android_device_asus_tf201
p1938
VCyanogenMod
p1939
sVNZKoz/paperclip
p1940
Vrails
p1941
sVpkrumins/gnu-coreutils-cheat-sheet
p1942
Vbrowserling
p1943
sVantirez/lua-cmsgpack
p1944
Vredis
p1945
sVhornbeck/resumatoR
p1946
Vbasho
p1947
sVantirez/redis
p1948
Vredis
p1949
sVmislav/facebook
p1950
Vrails
p1951
sVsebastianbergmann/phploc
p1952
VthePHPcc
p1953
sVantirez/redis-rb
p1954
Vredis
p1955
sVJeffreyWay/Blog-Expenses
p1956
Venvato
p1957
sVxhr/creamy
p1958
Vwurbe
p1959
sVsstephenson/kinect
p1960
V37signals
p1961
sVcreationix/divclock
p1962
Vsenchalabs
p1963
sVmdo/feedback
p1964
Vgithub
p1965
sVkoush/android-websockets
p1966
VCyanogenMod
p1967
sVelbowdonkey/impsock
p1968
Vlivingsocial
p1969
sVibdknox/fs
p1970
VKodowa
p1971
sVakitaonrails/docrails
p1972
VCodeminer42
p1973
sVdaikini/ssconnection
p1974
Vovercommitted
p1975
sVagentzh/lua-resty-dns
p1976
Vcloudflare
p1977
sVsstephenson/minihal
p1978
V37signals
p1979
sVhenrik/hasmygembuiltyet
p1980
Vbarsoom
p1981
sVibdknox/autodoc
p1982
VKodowa
p1983
sVmathiasbynens/dotfiles
p1984
ViRail
p1985
sVgarybernhardt/mote
p1986
Vspeakerconf
p1987
sVup_the_irons/git-winner
p1988
Vpledgie
p1989
sVjsierles/asterisk-cookbook
p1990
Vrubytune
p1991
sVagentzh/memc-nginx-module
p1992
Vcloudflare
p1993
sVxhr/compass-rails
p1994
Vwurbe
p1995
sVdesandro/html5-boilerplate
p1996
Vtwitter
p1997
sVdrnic/cf-docs
p1998
Vmocra
p1999
sVmiyagawa/AnyEvent-Redis
p2000
Vcookpad
p2001
sVgarybernhardt/rouge
p2002
Vspeakerconf
p2003
sVsstephenson/nodeunit
p2004
V37signals
p2005
sVjnunemaker/flipper-mongo
p2006
Vgithub
p2007
sVasseym/rapidsms-message-classifier
p2008
Vunicefuganda
p2009
sVup_the_irons/immutable
p2010
Vpledgie
p2011
sVasseym/bootstrap
p2012
Vunicefuganda
p2013
sVhassox/abr_lookup
p2014
Vsydjs
p2015
sVjacobian/django-markupfield
p2016
Vdjango
p2017
sVguille/APNG
p2018
Vmootools
p2019
sVnecolas/css3-github-buttons
p2020
Vtwitter
p2021
sVleah/solitaire-anywhere
p2022
Vsincerely
p2023
sVsstephenson/BubbleWrap
p2024
V37signals
p2025
sVcreationix/coffeepot
p2026
Vsenchalabs
p2027
sVfelixge/campusparty-2012-code
p2028
Vtransloadit
p2029
sVvanpelt/vanpelt.github.com
p2030
Vdolores
p2031
sVjnunemaker/clostar
p2032
Vgithub
p2033
sVrbazinet/ruby-gpu-examples
p2034
Vpostrank-labs
p2035
sVrichhickey/clojure-contrib
p2036
Vclojure
p2037
sVmdo/code-guide
p2038
Vgithub
p2039
sVantirez/hiredis
p2040
Vredis
p2041
sVvanpelt/shortr
p2042
Vdolores
p2043
sVlancecarlson/cheap_chronic
p2044
Vrubyskills
p2045
sVweierophinney/Component_ZendAuthentication
p2046
Vzendframework
p2047
sVdesandro/issues-agreement
p2048
Vtwitter
p2049
sVmathiasbynens/acorn
p2050
ViRail
p2051
sVnecolas/suit-flex-embed
p2052
Vtwitter
p2053
sVmacournoyer/mtlrb-jan12
p2054
Vrack
p2055
sVpkrumins/digpicz
p2056
Vbrowserling
p2057
sVcanadaduane/casperjs
p2058
Vinstructure
p2059
sVfelixge/couchdb-benchmarks
p2060
Vtransloadit
p2061
sVdaikini/octave-ruby
p2062
Vovercommitted
p2063
sVsebastianbergmann/php-test-helpers
p2064
VthePHPcc
p2065
sVasseym/rapidsms-httprouter-1
p2066
Vunicefuganda
p2067
sVrtomayko/rdiscount
p2068
Vsinatra
p2069
sVnecolas/suit-utils
p2070
Vtwitter
p2071
sVakitaonrails/answers_demo
p2072
VCodeminer42
p2073
sVweierophinney/Component_ZendConsole
p2074
Vzendframework
p2075
sVmathiasbynens/captured
p2076
ViRail
p2077
sVibdknox/clj-socketio
p2078
VKodowa
p2079
sVdesandro/bootstrap
p2080
Vtwitter
p2081
sVlifesinger/backbone
p2082
Vkissyteam
p2083
sVkoush/android_device_dell_streak7
p2084
VCyanogenMod
p2085
sVrmurphey/flitter
p2086
Vbocoup
p2087
sVdesandro/dotfiles
p2088
Vtwitter
p2089
sVJeffreyWay/Backbone--RequireJS--and-Testem-Boilerplate-Project
p2090
Venvato
p2091
sVcreationix/creationix
p2092
Vsenchalabs
p2093
sVmacournoyer/node-cusec
p2094
Vrack
p2095
sVNZKoz/ocdtv
p2096
Vrails
p2097
sVsstephenson/node
p2098
V37signals
p2099
sVcreationix/conductor
p2100
Vsenchalabs
p2101
sVJeffreyWay/RequireJS-and-Backbone-Starter
p2102
Venvato
p2103
sVjosh/emacs
p2104
Vgithub
p2105
sVmiyagawa/App-PAUSE-Comaint
p2106
Vcookpad
p2107
sVantirez/iconping
p2108
Vredis
p2109
sVezmobius/chef-101
p2110
Vrubinius
p2111
sVcanadaduane/MendelMax
p2112
Vinstructure
p2113
sVdrnic/appscrolls
p2114
Vmocra
p2115
sVnecolas/necolas.github.com
p2116
Vtwitter
p2117
sVrmurphey/jmvc-sandbox
p2118
Vbocoup
p2119
sVmiyagawa/Acme-Blue
p2120
Vcookpad
p2121
sVsebastianbergmann/phpunit-documentation
p2122
VthePHPcc
p2123
sVdrnic/cassandra-boshrelease
p2124
Vmocra
p2125
sVmislav/by_star
p2126
Vrails
p2127
sVjnunemaker/googlebase
p2128
Vgithub
p2129
sVguille/api.js
p2130
Vmootools
p2131
sVcanadaduane/MakerSlider
p2132
Vinstructure
p2133
sVjwhitmire/feedzirra
p2134
Vrochester-rb
p2135
sVjosh/eve
p2136
Vgithub
p2137
sVcanadaduane/dropbox-api
p2138
Vinstructure
p2139
sVdrnic/bosh-getting-started-on-aws
p2140
Vmocra
p2141
sVDmitryBaranovskiy/prism
p2142
Vsydjs
p2143
sVrmurphey/Bober
p2144
Vbocoup
p2145
sVjosh/coffee-script
p2146
Vgithub
p2147
sVAlexanderFlatscher/sbicktAndroid
p2148
Vfh-salzburg
p2149
sVouterim/ghost
p2150
Vurug
p2151
sVcowboy/gaucho-old
p2152
Vjquery
p2153
sVdesandro/imagesloaded
p2154
Vtwitter
p2155
sVsebastianbergmann/phptok
p2156
VthePHPcc
p2157
sVhornbeck/arc
p2158
Vbasho
p2159
sVhenrik/etsy-rss
p2160
Vbarsoom
p2161
sVmattslack/warehouse
p2162
Vcollectiveidea
p2163
sVcanadaduane/alfred2-ruby-framework
p2164
Vinstructure
p2165
sVsoffes/awfulrecruiters.com
p2166
VCocoaPods
p2167
sVnecolas/jekyll-boilerplate
p2168
Vtwitter
p2169
sVgarybernhardt/sucks-rocks
p2170
Vspeakerconf
p2171
sVxhr/vimfiles
p2172
Vwurbe
p2173
sVnathanmarz/cascalog-conj
p2174
VCascading
p2175
sVNZKoz/homebrew
p2176
Vrails
p2177
sVpkrumins/hacker-top
p2178
Vbrowserling
p2179
sVJeffreyWay/CSS3-TextMate-Bundle
p2180
Venvato
p2181
sVginatrapani/the-inclusive-team-tests
p2182
VThinkUpLLC
p2183
sVmathiasbynens/fusejs
p2184
ViRail
p2185
sVmathiasbynens/es-spec-html
p2186
ViRail
p2187
sVakitaonrails/heroku-buildpack-ruby
p2188
VCodeminer42
p2189
sVcreationix/embedder-sync
p2190
Vsenchalabs
p2191
sVrtomayko/dotfiles
p2192
Vsinatra
p2193
sVrtomayko/rack
p2194
Vsinatra
p2195
sVjsierles/heartbeat
p2196
Vrubytune
p2197
sVantirez/codakido
p2198
Vredis
p2199
sVmacournoyer/nanodb
p2200
Vrack
p2201
sVfelixge/ack
p2202
Vtransloadit
p2203
sVlancecarlson/account_location
p2204
Vrubyskills
p2205
sVcreationix/dublin-talk
p2206
Vsenchalabs
p2207
sVcanadaduane/BraveZealot
p2208
Vinstructure
p2209
sVsstephenson/brochure
p2210
V37signals
p2211
sVasseym/rapidsms-polls
p2212
Vunicefuganda
p2213
sVphilsturgeon/codeigniter-encoding
p2214
Vpyrocms
p2215
sVNZKoz/MagicalRecord
p2216
Vrails
p2217
sVmadrobby/certified
p2218
Vcheerful
p2219
sVginatrapani/ThinkUp
p2220
VThinkUpLLC
p2221
sVpkrumins/dnode
p2222
Vbrowserling
p2223
sVrbazinet/rstat.us
p2224
Vpostrank-labs
p2225
sVmacournoyer/node-syscalls
p2226
Vrack
p2227
sVjwhitmire/ruby-on-rails-tmbundle
p2228
Vrochester-rb
p2229
sVmacournoyer/rbv8
p2230
Vrack
p2231
sVmathiasbynens/Dynamic-Carousel
p2232
ViRail
p2233
sVhassox/dm-adapters
p2234
Vsydjs
p2235
sVkoush/android_packages_wallpapers_Basic
p2236
VCyanogenMod
p2237
sVfelixge/debuggable-scraps
p2238
Vtransloadit
p2239
sVezmobius/lua-nginx-module
p2240
Vrubinius
p2241
sVDmitryBaranovskiy/elemental
p2242
Vsydjs
p2243
sVouterim/coffer
p2244
Vurug
p2245
sVdesandro/doc-ready
p2246
Vtwitter
p2247
sVcreationix/colorspin
p2248
Vsenchalabs
p2249
sVayende/Degenerated.Storage
p2250
Vcastleproject
p2251
sVdrnic/bosh-gen
p2252
Vmocra
p2253
sVjnunemaker/bin
p2254
Vgithub
p2255
sVjsierles/exception_notification
p2256
Vrubytune
p2257
sVcreationix/conquest
p2258
Vsenchalabs
p2259
sVjwhitmire/runt
p2260
Vrochester-rb
p2261
sVdesandro/eventie
p2262
Vtwitter
p2263
sVguille/jshint
p2264
Vmootools
p2265
sVsstephenson/dnsserver.js
p2266
V37signals
p2267
sVvanpelt/delayed_job
p2268
Vdolores
p2269
sVnathanmarz/dfs-datastores
p2270
VCascading
p2271
sVup_the_irons/tendersync
p2272
Vpledgie
p2273
sVrtomayko/adoc-themes
p2274
Vsinatra
p2275
sVouterim/goliath
p2276
Vurug
p2277
sVdesandro/isotope
p2278
Vtwitter
p2279
sVrtomayko/replicate
p2280
Vsinatra
p2281
sVMarak/badproject
p2282
Vbigcompany
p2283
sVantirez/mc-benchmark
p2284
Vredis
p2285
sVantirez/redisdotphp
p2286
Vredis
p2287
sVlancecarlson/devise
p2288
Vrubyskills
p2289
sVpkrumins/bash-history-cheat-sheet
p2290
Vbrowserling
p2291
sVguille/hummingbird
p2292
Vmootools
p2293
sVMarak/geddy
p2294
Vbigcompany
p2295
sVmathiasbynens/HTML5-custom-data-attributes-plugin-for-jQuery
p2296
ViRail
p2297
sVcreationix/BrowserQuest
p2298
Vsenchalabs
p2299
sVdaikini/FireBooks
p2300
Vovercommitted
p2301
sVjacobian/djangome
p2302
Vdjango
p2303
sVnecolas/eraser.css
p2304
Vtwitter
p2305
sVmiyagawa/Acme-MillaTutorial
p2306
Vcookpad
p2307
sVJeffreyWay/Envato-Marketplace-API--Cookbook
p2308
Venvato
p2309
sVguille/dom
p2310
Vmootools
p2311
sVginatrapani/write
p2312
VThinkUpLLC
p2313
sVxhr/css_parser
p2314
Vwurbe
p2315
sVrmurphey/arduino-display
p2316
Vbocoup
p2317
sVsoffes/iphone-plist
p2318
VCocoaPods
p2319
sVakitaonrails/i18n_demo_app
p2320
VCodeminer42
p2321
sVayende/NHibernate-London-May
p2322
Vcastleproject
p2323
sVdaikini/fixture
p2324
Vovercommitted
p2325
sVdanahern/demo_app
p2326
Vetsy
p2327
sVjsierles/chef_cookbooks
p2328
Vrubytune
p2329
sVmiyagawa/carton
p2330
Vcookpad
p2331
sVmathiasbynens/css-fork-on-github-ribbon
p2332
ViRail
p2333
sVjsierles/chef
p2334
Vrubytune
p2335
sVpkrumins/bash-redirections-cheat-sheet
p2336
Vbrowserling
p2337
sVsoffes/core-module
p2338
VCocoaPods
p2339
sVnecolas/dotfiles
p2340
Vtwitter
p2341
sVpkrumins/bithacks.h
p2342
Vbrowserling
p2343
sVMarak/javascript-fu
p2344
Vbigcompany
p2345
sVkamal/pickler
p2346
Vbitfluent
p2347
sVgarybernhardt/topaz
p2348
Vspeakerconf
p2349
sVjnunemaker/common_helpers
p2350
Vgithub
p2351
sVsoffes/access_control
p2352
VCocoaPods
p2353
sVrichhickey/slides
p2354
Vclojure
p2355
sVibdknox/clojure-koans
p2356
VKodowa
p2357
sVelbowdonkey/axonome
p2358
Vlivingsocial
p2359
sVnecolas/idiomatic-html
p2360
Vtwitter
p2361
sVdesandro/get-size
p2362
Vtwitter
p2363
sVgarybernhardt/cls
p2364
Vspeakerconf
p2365
sVjsierles/bluepill
p2366
Vrubytune
p2367
sVdrnic/bcat
p2368
Vmocra
p2369
sVlancecarlson/mail
p2370
Vrubyskills
p2371
sVsoffes/adder
p2372
VCocoaPods
p2373
sVded/morpheus
p2374
Vchange
p2375
sVmislav/curly
p2376
Vrails
p2377
sVup_the_irons/mephisto
p2378
Vpledgie
p2379
sVgspederson/01-CodeBreaker
p2380
Vportablemind
p2381
sVjsierles/docrails
p2382
Vrubytune
p2383
sVouterim/homebrew
p2384
Vurug
p2385
sVhenrik/country_select
p2386
Vbarsoom
p2387
sVasseym/rapidsms-unregister
p2388
Vunicefuganda
p2389
sVdesandro/get-style-property
p2390
Vtwitter
p2391
sVJeffreyWay/Recurring-Tweets
p2392
Venvato
p2393
sVvanpelt/jsawesome
p2394
Vdolores
p2395
sVjwhitmire/integrity-campfire
p2396
Vrochester-rb
p2397
sVphilsturgeon/codeigniter-github
p2398
Vpyrocms
p2399
sVfelixge/conflict-test
p2400
Vtransloadit
p2401
sVjsierles/bundler
p2402
Vrubytune
p2403
sVjsierles/flamencodb
p2404
Vrubytune
p2405
sVhassox/.pair.io
p2406
Vsydjs
p2407
sVdrnic/cf-console
p2408
Vmocra
p2409
sVjosh/brew-pip
p2410
Vgithub
p2411
sVxhr/vim-nginx
p2412
Vwurbe
p2413
sVjacobian/ddt
p2414
Vdjango
p2415
sVasseym/ctca
p2416
Vunicefuganda
p2417
sVpkrumins/bash-emacs-editing-mode-cheat-sheet
p2418
Vbrowserling
p2419
sVagentzh/memcacheq
p2420
Vcloudflare
p2421
sVlancecarlson/exception_notification
p2422
Vrubyskills
p2423
sVMarak/ohh
p2424
Vbigcompany
p2425
sVmathiasbynens/FizzBuzzEnterpriseEdition
p2426
ViRail
p2427
sVguille/debug
p2428
Vmootools
p2429
sVhassox/dm-zone-types
p2430
Vsydjs
p2431
sVdaikini/matlab-ruby
p2432
Vovercommitted
p2433
sVagentzh/lua-rds-parser
p2434
Vcloudflare
p2435
sVJeffreyWay/Laravel-4-Generators
p2436
Venvato
p2437
sVMarak/node-mkdirp
p2438
Vbigcompany
p2439
sVdaikini/event_attribute
p2440
Vovercommitted
p2441
sVDmitryBaranovskiy/web-animations
p2442
Vsydjs
p2443
sVjnunemaker/google-weather
p2444
Vgithub
p2445
sVkoush/android_device_motorola_sholes
p2446
VCyanogenMod
p2447
sVmjankowski/rails.github.com
p2448
Vthoughtbot
p2449
sVrbazinet/s3nukem
p2450
Vpostrank-labs
p2451
sVmjankowski/repeated_job
p2452
Vthoughtbot
p2453
sVtteofili/samplett
p2454
Vsourcesense
p2455
sVjosh/dotfiles
p2456
Vgithub
p2457
sVsstephenson/mackerel
p2458
V37signals
p2459
sVtteofili/tommaso_at_asf
p2460
Vsourcesense
p2461
sVakitaonrails/jruby_calculator_demo
p2462
VCodeminer42
p2463
sVguille/chrome-spdy-indicator
p2464
Vmootools
p2465
sVphilsturgeon/codeigniter-dwoo
p2466
Vpyrocms
p2467
sVkamal/juggernaut
p2468
Vbitfluent
p2469
sVxhr/matcher
p2470
Vwurbe
p2471
sVmiyagawa/CGI-Compile
p2472
Vcookpad
p2473
sVcowboy/grunt-jquery-example
p2474
Vjquery
p2475
sVrmurphey/bvjs
p2476
Vbocoup
p2477
sVjnunemaker/adapter-cassanity
p2478
Vgithub
p2479
sVleah/python-oauth-old
p2480
Vsincerely
p2481
sVasseym/rapidsms-ureport
p2482
Vunicefuganda
p2483
sVjsierles/intercom-rails
p2484
Vrubytune
p2485
sVlifesinger/lifesinger.github.com
p2486
Vkissyteam
p2487
sVagentzh/jemplate
p2488
Vcloudflare
p2489
sVdesandro/jtetypes
p2490
Vtwitter
p2491
sVJeffreyWay/jeffreyway.github.com
p2492
Venvato
p2493
sVjosh/css-explain
p2494
Vgithub
p2495
sVguille/expresso
p2496
Vmootools
p2497
sVmadrobby/box2d-js
p2498
Vcheerful
p2499
sVakitaonrails/fedena
p2500
VCodeminer42
p2501
sVnecolas/custom-tweet-button-for-wordpress
p2502
Vtwitter
p2503
sVjacobian/chucks
p2504
Vdjango
p2505
sVsoffes/binary_plist
p2506
VCocoaPods
p2507
sVnecolas/css3-social-signin-buttons
p2508
Vtwitter
p2509
sVnathanmarz/clj-disruptor
p2510
VCascading
p2511
sVhenrik/file_transfer_sender_subdirectories_plugin
p2512
Vbarsoom
p2513
sVMarak/Faker.js
p2514
Vbigcompany
p2515
sVgarybernhardt/the-march-of-progress
p2516
Vspeakerconf
p2517
sVsstephenson/coffee-mode
p2518
V37signals
p2519
sVdesandro/editorconfig-textmate
p2520
Vtwitter
p2521
sVlifo/cramp-pub-sub-chat-demo
p2522
Vrails
p2523
sVdaikini/kato
p2524
Vovercommitted
p2525
sVdesandro/jshint.tmbundle
p2526
Vtwitter
p2527
sVmislav/euruko-golf
p2528
Vrails
p2529
sVlancecarlson/heroku-buildpack-go
p2530
Vrubyskills
p2531
sVgarybernhardt/raptor
p2532
Vspeakerconf
p2533
sVsebastianbergmann/dbunit
p2534
VthePHPcc
p2535
sVmislav/anemone
p2536
Vrails
p2537
sVnecolas/delegate
p2538
Vtwitter
p2539
sVded/qwery
p2540
Vchange
p2541
sVkoush/android_device_samsung_galaxy5
p2542
VCyanogenMod
p2543
sVkoush/android_external_busybox
p2544
VCyanogenMod
p2545
sVcowboy/battlelog-hacks
p2546
Vjquery
p2547
sVlancecarlson/lancecarlson.github.com
p2548
Vrubyskills
p2549
sVsstephenson/ndns
p2550
V37signals
p2551
sVmiyagawa/AnyEvent-FriendFeed-Realtime
p2552
Vcookpad
p2553
sVweierophinney/Component_ZendHttp
p2554
Vzendframework
p2555
sVkoush/android_device_samsung_epic4g
p2556
VCyanogenMod
p2557
sVmathiasbynens/grunt-zopfli
p2558
ViRail
p2559
sVnecolas/normalize.css
p2560
Vtwitter
p2561
sVleah/tinytinyurl
p2562
Vsincerely
p2563
sVsebastianbergmann/PHPUnit-CodeSniffer
p2564
VthePHPcc
p2565
sVjosh/cook
p2566
Vgithub
p2567
sVelbowdonkey/MCAD
p2568
Vlivingsocial
p2569
sVvanpelt/stat
p2570
Vdolores
p2571
sVlifo/enlighten-websockets
p2572
Vrails
p2573
sVded/ender-tipsy
p2574
Vchange
p2575
sVmatz/mruby
p2576
Vmruby
p2577
sVweierophinney/Component_ZendCaptcha
p2578
Vzendframework
p2579
sVayende/courses-stockholm-oct-2012
p2580
Vcastleproject
p2581
sVibdknox/cljs-watch
p2582
VKodowa
p2583
sVDmitryBaranovskiy/brackets
p2584
Vsydjs
p2585
sVjnunemaker/adapter-mongo
p2586
Vgithub
p2587
sVsstephenson/dtclsh
p2588
V37signals
p2589
sVJeffreyWay/grunt-init-gruntfile
p2590
Venvato
p2591
sVhenrik/git-tmbundle
p2592
Vbarsoom
p2593
sVibdknox/fipp
p2594
VKodowa
p2595
sVdesandro/css3please
p2596
Vtwitter
p2597
sVjwhitmire/ruby-units
p2598
Vrochester-rb
p2599
sVpkrumins/bitly
p2600
Vbrowserling
p2601
sVjosh/gem-template
p2602
Vgithub
p2603
sVjwhitmire/hubot-scripts
p2604
Vrochester-rb
p2605
sVjnunemaker/crdts
p2606
Vgithub
p2607
sVcowboy/benalman.com-OLD
p2608
Vjquery
p2609
sVezmobius/merbivore
p2610
Vrubinius
p2611
sVantirez/Jim
p2612
Vredis
p2613
sVsoffes/apple_push_notification
p2614
VCocoaPods
p2615
sVkamal/database_cleaner
p2616
Vbitfluent
p2617
sVayende/Kalahari.Resort
p2618
Vcastleproject
p2619
sVtjogin/local-copy
p2620
Vesnme
p2621
sVmathiasbynens/html5demos
p2622
ViRail
p2623
sVrbazinet/Launching-Soon
p2624
Vpostrank-labs
p2625
sVlancecarlson/JSONP
p2626
Vrubyskills
p2627
sVrtomayko/rack-cache
p2628
Vsinatra
p2629
sVmacournoyer/rack-sandbox
p2630
Vrack
p2631
sVdrnic/blue-ridge-tmbundle
p2632
Vmocra
p2633
sVjacobian/django-git-authors
p2634
Vdjango
p2635
sVjacobian/invoke
p2636
Vdjango
p2637
sVdanahern/deployinator
p2638
Vetsy
p2639
sVhassox/formz
p2640
Vsydjs
p2641
sVvanpelt/dm-imap-adapter
p2642
Vdolores
p2643
sVjosh/ejs
p2644
Vgithub
p2645
sVjsierles/heroku-buildpack-ruby
p2646
Vrubytune
p2647
sVmacournoyer/mor7
p2648
Vrack
p2649
sVded/reqwest
p2650
Vchange
p2651
sVakitaonrails/enki
p2652
VCodeminer42
p2653
sVelbowdonkey/RubyScad
p2654
Vlivingsocial
p2655
sVup_the_irons/powerdns-models
p2656
Vpledgie
p2657
sVasseym/rapidsms-uganda-ussd
p2658
Vunicefuganda
p2659
sVNZKoz/formtastic
p2660
Vrails
p2661
sVayende/IronJS
p2662
Vcastleproject
p2663
sVMarak/JSONloops
p2664
Vbigcompany
p2665
sVkamal/RubyMine-colors
p2666
Vbitfluent
p2667
sVkamal/detached_counter_cache
p2668
Vbitfluent
p2669
sVleah/python-oauth
p2670
Vsincerely
p2671
sVsstephenson/bats
p2672
V37signals
p2673
sVelbowdonkey/printables
p2674
Vlivingsocial
p2675
sVibdknox/ibdknox.github.com
p2676
VKodowa
p2677
sVayende/NHibernate-Course
p2678
Vcastleproject
p2679
sVhassox/jetski
p2680
Vsydjs
p2681
sVJeffreyWay/MessageBox
p2682
Venvato
p2683
sVgspederson/Reporting-before
p2684
Vportablemind
p2685
sVphilsturgeon/codeigniter-template
p2686
Vpyrocms
p2687
sVmiyagawa/AnyEvent-Twitter-Stream
p2688
Vcookpad
p2689
sVsoffes/blending-benchmarks
p2690
VCocoaPods
p2691
sVjosh/elpa
p2692
Vgithub
p2693
sVagentzh/cookiexs
p2694
Vcloudflare
p2695
sVsoffes/grater
p2696
VCocoaPods
p2697
sVakitaonrails/globalize3
p2698
VCodeminer42
p2699
sVouterim/ripple
p2700
Vurug
p2701
sVayende/Example.MapReduce
p2702
Vcastleproject
p2703
sVcreationix/cell
p2704
Vsenchalabs
p2705
sVezmobius/tlabs-mendelmax
p2706
Vrubinius
p2707
sVrtomayko/pkgsrc
p2708
Vsinatra
p2709
sVhenrik/henrik.github.com
p2710
Vbarsoom
p2711
sVakitaonrails/acts_as_solr_reloaded
p2712
VCodeminer42
p2713
sVcowboy/benalman.com-content-OLD
p2714
Vjquery
p2715
sVginatrapani/greasemonkey-multi-script-compiler
p2716
VThinkUpLLC
p2717
sVjsierles/homebrew-alt
p2718
Vrubytune
p2719
sVcowboy/javascript-debug
p2720
Vjquery
p2721
sVsoffes/acts_as_list
p2722
VCocoaPods
p2723
sVcowboy/grunt
p2724
Vjquery
p2725
sVnathanmarz/cascalog-workshop-starter
p2726
VCascading
p2727
sVjsierles/amatsung
p2728
Vrubytune
p2729
sVlancecarlson/instiki
p2730
Vrubyskills
p2731
sVdesandro/close-pixelate
p2732
Vtwitter
p2733
sVrbazinet/downforeveryoneorjustme
p2734
Vpostrank-labs
p2735
sVjwhitmire/dial-a-script
p2736
Vrochester-rb
p2737
sVmiyagawa/AnyEvent-mDNS
p2738
Vcookpad
p2739
sVezmobius/nginx-ey-balancer
p2740
Vrubinius
p2741
sVcowboy/bash-misc
p2742
Vjquery
p2743
sVdaikini/chunky_bacon
p2744
Vovercommitted
p2745
sVcanadaduane/peslyak-psoriasis-paper
p2746
Vinstructure
p2747
sVMarak/node-stats
p2748
Vbigcompany
p2749
sVweierophinney/Component_ZendFile
p2750
Vzendframework
p2751
sVginatrapani/why_i_love_github
p2752
VThinkUpLLC
p2753
sVmathiasbynens/escodegen
p2754
ViRail
p2755
sVlancecarlson/managespec
p2756
Vrubyskills
p2757
sVhenrik/cloudinary_gem
p2758
Vbarsoom
p2759
sVakitaonrails/brazilian-rails
p2760
VCodeminer42
p2761
sVsebastianbergmann/php-timer
p2762
VthePHPcc
p2763
sVrtomayko/rip
p2764
Vsinatra
p2765
sVleah/django-pagination
p2766
Vsincerely
p2767
sVmiyagawa/ark-perl
p2768
Vcookpad
p2769
sVrmurphey/dotfiles
p2770
Vbocoup
p2771
sVJeffreyWay/Phing-Build-Script-for-Web-Designers
p2772
Venvato
p2773
sVded/bonzo
p2774
Vchange
p2775
sVsoffes/bully
p2776
VCocoaPods
p2777
sVnathanmarz/jackknife
p2778
VCascading
p2779
sVkoush/android_vendor_acer_salsa
p2780
VCyanogenMod
p2781
sVcreationix/canvasclock
p2782
Vsenchalabs
p2783
sVkamal/rack
p2784
Vbitfluent
p2785
sVlifo/cramp
p2786
Vrails
p2787
sVmattslack/annual-aggregator
p2788
Vcollectiveidea
p2789
sVsstephenson/execjs
p2790
V37signals
p2791
sVded/jquery.rtl.js
p2792
Vchange
p2793
sVrtomayko/MiniProfiler
p2794
Vsinatra
p2795
sVcreationix/creationix.com
p2796
Vsenchalabs
p2797
sVdrnic/8cpj
p2798
Vmocra
p2799
sVhenrik/gchartrb
p2800
Vbarsoom
p2801
sVdesandro/draggabilly
p2802
Vtwitter
p2803
sVweierophinney/Component_ZendLoader
p2804
Vzendframework
p2805
sVweierophinney/Component_ZendFilter
p2806
Vzendframework
p2807
sVfelixge/async
p2808
Vtransloadit
p2809
sVphilsturgeon/chef-php-fpm
p2810
Vpyrocms
p2811
sVxhr/minifactory
p2812
Vwurbe
p2813
sVagentzh/encrypted-session-nginx-module
p2814
Vcloudflare
p2815
sVmathiasbynens/cdnjs
p2816
ViRail
p2817
sVdrnic/associated_with
p2818
Vmocra
p2819
sVdrnic/.dotfiles
p2820
Vmocra
p2821
sVkamal/gitx
p2822
Vbitfluent
p2823
sVmislav/addressable
p2824
Vrails
p2825
sVezmobius/redis
p2826
Vrubinius
p2827
sVkoush/android_system_core
p2828
VCyanogenMod
p2829
sVrmurphey/berlinjs.org
p2830
Vbocoup
p2831
sVMarak/data-behaviors
p2832
Vbigcompany
p2833
sVsstephenson/dimensions
p2834
V37signals
p2835
sVsebastianbergmann/exporter
p2836
VthePHPcc
p2837
sVAlexanderFlatscher/puzzlesFrontEndAIR
p2838
Vfh-salzburg
p2839
sVded/klass
p2840
Vchange
p2841
sVibdknox/Korma
p2842
VKodowa
p2843
sVweierophinney/Component_ZendCrypt
p2844
Vzendframework
p2845
sVhornbeck/blerb-core
p2846
Vbasho
p2847
sVmattslack/rounder
p2848
Vcollectiveidea
p2849
sVibdknox/clojail
p2850
VKodowa
p2851
sVcowboy/javascript-emotify
p2852
Vjquery
p2853
sVmattslack/radiant
p2854
Vcollectiveidea
p2855
sVrbazinet/render_mate
p2856
Vpostrank-labs
p2857
sVayende/nhibernate-blog-model
p2858
Vcastleproject
p2859
sVasseym/rapidsms-auth
p2860
Vunicefuganda
p2861
sVded/R2
p2862
Vchange
p2863
sVcowboy/grunt-gruntplugin-example
p2864
Vjquery
p2865
sVrtomayko/lesscode.org
p2866
Vsinatra
p2867
sVhassox/conventionsapp
p2868
Vsydjs
p2869
sVcowboy/grunt-commonjs-example
p2870
Vjquery
p2871
sVded/sqwish
p2872
Vchange
p2873
sVNZKoz/bigdecimal-segfault-fix
p2874
Vrails
p2875
sVsebastianbergmann/phpcpd
p2876
VthePHPcc
p2877
sVibdknox/lein-cljsbuild
p2878
VKodowa
p2879
sVAlexanderFlatscher/alexanderflatscher.github.com
p2880
Vfh-salzburg
p2881
sVcreationix/detectindent
p2882
Vsenchalabs
p2883
sVrtomayko/gitscm
p2884
Vsinatra
p2885
sVlifo/misfit_client
p2886
Vrails
p2887
sVsoffes/enmatz.com
p2888
VCocoaPods
p2889
sVayende/lucene.net
p2890
Vcastleproject
p2891
sVmacournoyer/is_taggable
p2892
Vrack
p2893
sVdaikini/cocoa-extensions
p2894
Vovercommitted
p2895
sVmattslack/radiant-sitemap_search-extension
p2896
Vcollectiveidea
p2897
sVezmobius/vcap-tests
p2898
Vrubinius
p2899
sVnathanmarz/pallet-crates
p2900
VCascading
p2901
sVvanpelt/guestlist
p2902
Vdolores
p2903
sVginatrapani/todo-cli-plugins
p2904
VThinkUpLLC
p2905
sVJeffreyWay/Quiz-Preparer
p2906
Venvato
p2907
sVjsierles/js_named_routes
p2908
Vrubytune
p2909
sVhassox/dm-more
p2910
Vsydjs
p2911
sVnecolas/idiomatic-css
p2912
Vtwitter
p2913
sVlancecarlson/couchgo
p2914
Vrubyskills
p2915
sVjnunemaker/feedzirra
p2916
Vgithub
p2917
sVdesandro/demo
p2918
Vtwitter
p2919
sVdrnic/chef-repo
p2920
Vmocra
p2921
sVmiyagawa/asana_digest
p2922
Vcookpad
p2923
sVnecolas/suit-button-group
p2924
Vtwitter
p2925
sVnathanmarz/nanny
p2926
VCascading
p2927
sVrtomayko/discount
p2928
Vsinatra
p2929
sVvanpelt/jekyll
p2930
Vdolores
p2931
sVibdknox/cljs-template
p2932
VKodowa
p2933
sVphilsturgeon/codeigniter-payments
p2934
Vpyrocms
p2935
sVrbazinet/cheddar-mac
p2936
Vpostrank-labs
p2937
sVjosh/bundler
p2938
Vgithub
p2939
sVdanahern/ruby_game
p2940
Vetsy
p2941
sVelbowdonkey/gitignore
p2942
Vlivingsocial
p2943
sVcanadaduane/osx-space-id
p2944
Vinstructure
p2945
sVlancecarlson/Gajure
p2946
Vrubyskills
p2947
sVjsierles/clickatell
p2948
Vrubytune
p2949
sVhenrik/exception_logger
p2950
Vbarsoom
p2951
sVjacobian/django-sitetree
p2952
Vdjango
p2953
sVmislav/asbestos
p2954
Vrails
p2955
sVMarak/ANSIdom
p2956
Vbigcompany
p2957
sVjacobian/metrology
p2958
Vdjango
p2959
sVpkrumins/busy-beaver
p2960
Vbrowserling
p2961
sVgarybernhardt/python-mock-comparison
p2962
Vspeakerconf
p2963
sVkamal/geekcamp-hub
p2964
Vbitfluent
p2965
sVrichhickey/clojure-clr
p2966
Vclojure
p2967
sVmdo/mdo-df-css
p2968
Vgithub
p2969
sVpkrumins/endtable
p2970
Vbrowserling
p2971
sVrtomayko/rbtrace
p2972
Vsinatra
p2973
sVmadrobby/emile
p2974
Vcheerful
p2975
sVjosh/components-jquery
p2976
Vgithub
p2977
sVlifo/lifo.github.com
p2978
Vrails
p2979
sVmathiasbynens/html5shiv
p2980
ViRail
p2981
sVrbazinet/simplelog
p2982
Vpostrank-labs
p2983
sVlifo/sidekick
p2984
Vrails
p2985
sVlancecarlson/aasm
p2986
Vrubyskills
p2987
sVayende/courses-ravendb-fleet-street-nov-2012
p2988
Vcastleproject
p2989
sVhenrik/albino
p2990
Vbarsoom
p2991
sVjacobian/djangobook.com
p2992
Vdjango
p2993
sVdesandro/lists
p2994
Vtwitter
p2995
sVcanadaduane/merb_active_admin
p2996
Vinstructure
p2997
sVmacournoyer/cache_digests
p2998
Vrack
p2999
sVantirez/linenoise
p3000
Vredis
p3001
sVjnunemaker/flipper
p3002
Vgithub
p3003
sVginatrapani/Social-Timeline
p3004
VThinkUpLLC
p3005
sVmacournoyer/macournoyer.github.com
p3006
Vrack
p3007
sVagentzh/headers-more-nginx-module
p3008
Vcloudflare
p3009
sVlancecarlson/kissgen
p3010
Vrubyskills
p3011
sVmislav/big_sitemap
p3012
Vrails
p3013
sVdaikini/fityk-ruby
p3014
Vovercommitted
p3015
sVantirez/iPhoneTracker
p3016
Vredis
p3017
sVmadrobby/logo.js
p3018
Vcheerful
p3019
sVayende/dotnet-protobufs
p3020
Vcastleproject
p3021
sVrtomayko/astrotrain
p3022
Vsinatra
p3023
sVsoffes/iphone-library-test-library
p3024
VCocoaPods
p3025
sVmislav/cook
p3026
Vrails
p3027
sVagentzh/linguist
p3028
Vcloudflare
p3029
sVrbazinet/poi
p3030
Vpostrank-labs
p3031
sVsebastianbergmann/phpunit-mock-objects
p3032
VthePHPcc
p3033
sVleah/django-elsewhere
p3034
Vsincerely
p3035
sVmiyagawa/App-perlbrew
p3036
Vcookpad
p3037
sVAlexanderFlatscher/portfolio
p3038
Vfh-salzburg
p3039
sVMarak/node_hash
p3040
Vbigcompany
p3041
sVDmitryBaranovskiy/g.raphael
p3042
Vsydjs
p3043
sVmadrobby/bitarray.js
p3044
Vcheerful
p3045
sVakitaonrails/gitstats-ruby
p3046
VCodeminer42
p3047
sVNZKoz/dropwizard
p3048
Vrails
p3049
sVmjankowski/sms-fu
p3050
Vthoughtbot
p3051
sVrtomayko/redcarpet
p3052
Vsinatra
p3053
sVantirez/load81
p3054
Vredis
p3055
sVhassox/hashie
p3056
Vsydjs
p3057
sVakitaonrails/factory_girl
p3058
VCodeminer42
p3059
sVguille/connect
p3060
Vmootools
p3061
sVhenrik/atomica
p3062
Vbarsoom
p3063
sVsstephenson/coffee-script
p3064
V37signals
p3065
s.